
D:/picobuild3/build/usb/device/tinyusb_device_examples/uac2_headset/tinyusb_dev_uac2_headset.elf:     file format elf32-littlearm

Sections:
Idx Name          Size      VMA       LMA       File off  Algn
  0 .boot2        00000100  10000000  10000000  00001000  2**0
                  CONTENTS, ALLOC, LOAD, READONLY, CODE
  1 .text         00005430  10000100  10000100  00001100  2**3
                  CONTENTS, ALLOC, LOAD, READONLY, CODE
  2 .rodata       000003f4  10005530  10005530  00006530  2**2
                  CONTENTS, ALLOC, LOAD, READONLY, DATA
  3 .binary_info  00000028  10005924  10005924  00006924  2**2
                  CONTENTS, ALLOC, LOAD, DATA
  4 .ram_vector_table 000000c0  20000000  20000000  0000736c  2**2
                  CONTENTS
  5 .data         000002a0  200000c0  1000594c  000070c0  2**4
                  CONTENTS, ALLOC, LOAD, CODE
  6 .uninitialized_ram.magic_location 0000000c  20000360  10005bec  00007360  2**2
                  CONTENTS, ALLOC, LOAD, DATA
  7 .uninitialized_data 00000000  2000036c  2000036c  0000742c  2**0
                  CONTENTS
  8 .scratch_x    00000000  20040000  20040000  0000742c  2**0
                  CONTENTS
  9 .scratch_y    00000000  20041000  20041000  0000742c  2**0
                  CONTENTS
 10 .bss          0000212c  20000370  20000370  00007370  2**3
                  ALLOC
 11 .heap         00000800  2000249c  2000249c  0000742c  2**2
                  CONTENTS, READONLY
 12 .stack_dummy  00000800  20041000  20041000  00007c40  2**5
                  CONTENTS, READONLY
 13 .ARM.attributes 00000028  00000000  00000000  00008440  2**0
                  CONTENTS, READONLY
 14 .comment      00000079  00000000  00000000  00008468  2**0
                  CONTENTS, READONLY
 15 .debug_frame  00000028  00000000  00000000  000084e4  2**2
                  CONTENTS, READONLY, DEBUGGING

D:/picobuild3/build/usb/device/tinyusb_device_examples/uac2_headset/tinyusb_dev_uac2_headset.elf:     file format elf32-littlearm


Disassembly of section .boot2:

10000000 <__boot2_start__>:
10000000:	4b32b500 	.word	0x4b32b500
10000004:	60582021 	.word	0x60582021
10000008:	21026898 	.word	0x21026898
1000000c:	60984388 	.word	0x60984388
10000010:	611860d8 	.word	0x611860d8
10000014:	4b2e6158 	.word	0x4b2e6158
10000018:	60992100 	.word	0x60992100
1000001c:	61592102 	.word	0x61592102
10000020:	22f02101 	.word	0x22f02101
10000024:	492b5099 	.word	0x492b5099
10000028:	21016019 	.word	0x21016019
1000002c:	20356099 	.word	0x20356099
10000030:	f844f000 	.word	0xf844f000
10000034:	42902202 	.word	0x42902202
10000038:	2106d014 	.word	0x2106d014
1000003c:	f0006619 	.word	0xf0006619
10000040:	6e19f834 	.word	0x6e19f834
10000044:	66192101 	.word	0x66192101
10000048:	66182000 	.word	0x66182000
1000004c:	f000661a 	.word	0xf000661a
10000050:	6e19f82c 	.word	0x6e19f82c
10000054:	6e196e19 	.word	0x6e196e19
10000058:	f0002005 	.word	0xf0002005
1000005c:	2101f82f 	.word	0x2101f82f
10000060:	d1f94208 	.word	0xd1f94208
10000064:	60992100 	.word	0x60992100
10000068:	6019491b 	.word	0x6019491b
1000006c:	60592100 	.word	0x60592100
10000070:	481b491a 	.word	0x481b491a
10000074:	21016001 	.word	0x21016001
10000078:	21eb6099 	.word	0x21eb6099
1000007c:	21a06619 	.word	0x21a06619
10000080:	f0006619 	.word	0xf0006619
10000084:	2100f812 	.word	0x2100f812
10000088:	49166099 	.word	0x49166099
1000008c:	60014814 	.word	0x60014814
10000090:	60992101 	.word	0x60992101
10000094:	2800bc01 	.word	0x2800bc01
10000098:	4700d000 	.word	0x4700d000
1000009c:	49134812 	.word	0x49134812
100000a0:	c8036008 	.word	0xc8036008
100000a4:	8808f380 	.word	0x8808f380
100000a8:	b5034708 	.word	0xb5034708
100000ac:	20046a99 	.word	0x20046a99
100000b0:	d0fb4201 	.word	0xd0fb4201
100000b4:	42012001 	.word	0x42012001
100000b8:	bd03d1f8 	.word	0xbd03d1f8
100000bc:	6618b502 	.word	0x6618b502
100000c0:	f7ff6618 	.word	0xf7ff6618
100000c4:	6e18fff2 	.word	0x6e18fff2
100000c8:	bd026e18 	.word	0xbd026e18
100000cc:	40020000 	.word	0x40020000
100000d0:	18000000 	.word	0x18000000
100000d4:	00070000 	.word	0x00070000
100000d8:	005f0300 	.word	0x005f0300
100000dc:	00002221 	.word	0x00002221
100000e0:	180000f4 	.word	0x180000f4
100000e4:	a0002022 	.word	0xa0002022
100000e8:	10000100 	.word	0x10000100
100000ec:	e000ed08 	.word	0xe000ed08
	...
100000fc:	7a4eb274 	.word	0x7a4eb274

Disassembly of section .text:

10000100 <__VECTOR_TABLE>:
10000100:	20042000 	.word	0x20042000
10000104:	100001f7 	.word	0x100001f7
10000108:	100001c3 	.word	0x100001c3
1000010c:	100001c5 	.word	0x100001c5
10000110:	100001c1 	.word	0x100001c1
10000114:	100001c1 	.word	0x100001c1
10000118:	100001c1 	.word	0x100001c1
1000011c:	100001c1 	.word	0x100001c1
10000120:	100001c1 	.word	0x100001c1
10000124:	100001c1 	.word	0x100001c1
10000128:	100001c1 	.word	0x100001c1
1000012c:	100001c7 	.word	0x100001c7
10000130:	100001c1 	.word	0x100001c1
10000134:	100001c1 	.word	0x100001c1
10000138:	100001c9 	.word	0x100001c9
1000013c:	100001cb 	.word	0x100001cb
10000140:	100001cd 	.word	0x100001cd
10000144:	100001cd 	.word	0x100001cd
10000148:	100001cd 	.word	0x100001cd
1000014c:	100001cd 	.word	0x100001cd
10000150:	100001cd 	.word	0x100001cd
10000154:	100001cd 	.word	0x100001cd
10000158:	100001cd 	.word	0x100001cd
1000015c:	100001cd 	.word	0x100001cd
10000160:	100001cd 	.word	0x100001cd
10000164:	100001cd 	.word	0x100001cd
10000168:	100001cd 	.word	0x100001cd
1000016c:	100001cd 	.word	0x100001cd
10000170:	100001cd 	.word	0x100001cd
10000174:	100001cd 	.word	0x100001cd
10000178:	100001cd 	.word	0x100001cd
1000017c:	100001cd 	.word	0x100001cd
10000180:	100001cd 	.word	0x100001cd
10000184:	100001cd 	.word	0x100001cd
10000188:	100001cd 	.word	0x100001cd
1000018c:	100001cd 	.word	0x100001cd
10000190:	100001cd 	.word	0x100001cd
10000194:	100001cd 	.word	0x100001cd
10000198:	100001cd 	.word	0x100001cd
1000019c:	100001cd 	.word	0x100001cd
100001a0:	100001cd 	.word	0x100001cd
100001a4:	100001cd 	.word	0x100001cd
100001a8:	100001cd 	.word	0x100001cd
100001ac:	100001cd 	.word	0x100001cd
100001b0:	100001cd 	.word	0x100001cd
100001b4:	100001cd 	.word	0x100001cd
100001b8:	100001cd 	.word	0x100001cd
100001bc:	100001cd 	.word	0x100001cd

100001c0 <isr_invalid>:
100001c0:	be00      	bkpt	0x0000

100001c2 <isr_nmi>:
100001c2:	be00      	bkpt	0x0000

100001c4 <isr_hardfault>:
100001c4:	be00      	bkpt	0x0000

100001c6 <isr_svcall>:
100001c6:	be00      	bkpt	0x0000

100001c8 <isr_pendsv>:
100001c8:	be00      	bkpt	0x0000

100001ca <isr_systick>:
100001ca:	be00      	bkpt	0x0000

100001cc <__unhandled_user_irq>:
100001cc:	f000 f84b 	bl	10000266 <__get_current_exception>
100001d0:	3810      	subs	r0, #16

100001d2 <unhandled_user_irq_num_in_r0>:
100001d2:	be00      	bkpt	0x0000

100001d4 <binary_info_header>:
100001d4:	7188ebf2 	.word	0x7188ebf2
100001d8:	10005924 	.word	0x10005924
100001dc:	1000594c 	.word	0x1000594c
100001e0:	10000234 	.word	0x10000234
100001e4:	e71aa390 	.word	0xe71aa390

100001e8 <_entry_point>:
100001e8:	2000      	movs	r0, #0
100001ea:	4921      	ldr	r1, [pc, #132]	; (10000270 <__get_current_exception+0xa>)
100001ec:	6008      	str	r0, [r1, #0]
100001ee:	c806      	ldmia	r0!, {r1, r2}
100001f0:	f381 8808 	msr	MSP, r1
100001f4:	4710      	bx	r2

100001f6 <_reset_handler>:
100001f6:	481f      	ldr	r0, [pc, #124]	; (10000274 <__get_current_exception+0xe>)
100001f8:	6800      	ldr	r0, [r0, #0]
100001fa:	2800      	cmp	r0, #0
100001fc:	d12f      	bne.n	1000025e <hold_non_core0_in_bootrom>
100001fe:	a40d      	add	r4, pc, #52	; (adr r4, 10000234 <data_cpy_table>)
10000200:	cc0e      	ldmia	r4!, {r1, r2, r3}
10000202:	2900      	cmp	r1, #0
10000204:	d002      	beq.n	1000020c <_reset_handler+0x16>
10000206:	f000 f812 	bl	1000022e <data_cpy>
1000020a:	e7f9      	b.n	10000200 <_reset_handler+0xa>
1000020c:	491a      	ldr	r1, [pc, #104]	; (10000278 <__get_current_exception+0x12>)
1000020e:	4a1b      	ldr	r2, [pc, #108]	; (1000027c <__get_current_exception+0x16>)
10000210:	2000      	movs	r0, #0
10000212:	e000      	b.n	10000216 <bss_fill_test>

10000214 <bss_fill_loop>:
10000214:	c101      	stmia	r1!, {r0}

10000216 <bss_fill_test>:
10000216:	4291      	cmp	r1, r2
10000218:	d1fc      	bne.n	10000214 <bss_fill_loop>

1000021a <platform_entry>:
1000021a:	4919      	ldr	r1, [pc, #100]	; (10000280 <__get_current_exception+0x1a>)
1000021c:	4788      	blx	r1
1000021e:	4919      	ldr	r1, [pc, #100]	; (10000284 <__get_current_exception+0x1e>)
10000220:	4788      	blx	r1
10000222:	4919      	ldr	r1, [pc, #100]	; (10000288 <__get_current_exception+0x22>)
10000224:	4788      	blx	r1
10000226:	be00      	bkpt	0x0000
10000228:	e7fd      	b.n	10000226 <platform_entry+0xc>

1000022a <data_cpy_loop>:
1000022a:	c901      	ldmia	r1!, {r0}
1000022c:	c201      	stmia	r2!, {r0}

1000022e <data_cpy>:
1000022e:	429a      	cmp	r2, r3
10000230:	d3fb      	bcc.n	1000022a <data_cpy_loop>
10000232:	4770      	bx	lr

10000234 <data_cpy_table>:
10000234:	1000594c 	.word	0x1000594c
10000238:	200000c0 	.word	0x200000c0
1000023c:	20000360 	.word	0x20000360
10000240:	10005bf8 	.word	0x10005bf8
10000244:	20040000 	.word	0x20040000
10000248:	20040000 	.word	0x20040000
1000024c:	10005bf8 	.word	0x10005bf8
10000250:	20041000 	.word	0x20041000
10000254:	20041000 	.word	0x20041000
10000258:	00000000 	.word	0x00000000
1000025c:	4770      	bx	lr

1000025e <hold_non_core0_in_bootrom>:
1000025e:	480b      	ldr	r0, [pc, #44]	; (1000028c <__get_current_exception+0x26>)
10000260:	f001 ff76 	bl	10002150 <rom_func_lookup>
10000264:	4700      	bx	r0

10000266 <__get_current_exception>:
10000266:	f3ef 8005 	mrs	r0, IPSR
1000026a:	b2c0      	uxtb	r0, r0
1000026c:	4770      	bx	lr
1000026e:	0000      	.short	0x0000
10000270:	e000ed08 	.word	0xe000ed08
10000274:	d0000000 	.word	0xd0000000
10000278:	20000370 	.word	0x20000370
1000027c:	2000249c 	.word	0x2000249c
10000280:	10001911 	.word	0x10001911
10000284:	10000665 	.word	0x10000665
10000288:	10001a01 	.word	0x10001a01
1000028c:	00005657 	.word	0x00005657

10000290 <__bi_50>:
10000290:	50520006 5360b3ab 10005758              ..RP..`SXW..

1000029c <__bi_38>:
1000029c:	50520006 02031c86 10005768              ..RP....hW..

100002a8 <__bi_30>:
100002a8:	50520006 9da22254 10005784              ..RPT"...W..

100002b4 <__bi_22>:
100002b4:	50520005 68f465de 10005bf8              ..RP.e.h.[..

100002c0 <_init>:
100002c0:	b5f8      	push	{r3, r4, r5, r6, r7, lr}
100002c2:	46c0      	nop			; (mov r8, r8)

100002c4 <__do_global_dtors_aux>:
100002c4:	b510      	push	{r4, lr}
100002c6:	4c06      	ldr	r4, [pc, #24]	; (100002e0 <__do_global_dtors_aux+0x1c>)
100002c8:	7823      	ldrb	r3, [r4, #0]
100002ca:	2b00      	cmp	r3, #0
100002cc:	d107      	bne.n	100002de <__do_global_dtors_aux+0x1a>
100002ce:	4b05      	ldr	r3, [pc, #20]	; (100002e4 <__do_global_dtors_aux+0x20>)
100002d0:	2b00      	cmp	r3, #0
100002d2:	d002      	beq.n	100002da <__do_global_dtors_aux+0x16>
100002d4:	4804      	ldr	r0, [pc, #16]	; (100002e8 <__do_global_dtors_aux+0x24>)
100002d6:	e000      	b.n	100002da <__do_global_dtors_aux+0x16>
100002d8:	bf00      	nop
100002da:	2301      	movs	r3, #1
100002dc:	7023      	strb	r3, [r4, #0]
100002de:	bd10      	pop	{r4, pc}
100002e0:	20000470 	.word	0x20000470
100002e4:	00000000 	.word	0x00000000
100002e8:	10005530 	.word	0x10005530

100002ec <frame_dummy>:
100002ec:	4b04      	ldr	r3, [pc, #16]	; (10000300 <frame_dummy+0x14>)
100002ee:	b510      	push	{r4, lr}
100002f0:	2b00      	cmp	r3, #0
100002f2:	d003      	beq.n	100002fc <frame_dummy+0x10>
100002f4:	4903      	ldr	r1, [pc, #12]	; (10000304 <frame_dummy+0x18>)
100002f6:	4804      	ldr	r0, [pc, #16]	; (10000308 <frame_dummy+0x1c>)
100002f8:	e000      	b.n	100002fc <frame_dummy+0x10>
100002fa:	bf00      	nop
100002fc:	bd10      	pop	{r4, pc}
100002fe:	46c0      	nop			; (mov r8, r8)
10000300:	00000000 	.word	0x00000000
10000304:	20000474 	.word	0x20000474
10000308:	10005530 	.word	0x10005530

1000030c <tud_mount_cb>:
1000030c:	22fa      	movs	r2, #250	; 0xfa
1000030e:	4b02      	ldr	r3, [pc, #8]	; (10000318 <tud_mount_cb+0xc>)
10000310:	0092      	lsls	r2, r2, #2
10000312:	601a      	str	r2, [r3, #0]
10000314:	4770      	bx	lr
10000316:	46c0      	nop			; (mov r8, r8)
10000318:	20000248 	.word	0x20000248

1000031c <tud_umount_cb>:
1000031c:	22fa      	movs	r2, #250	; 0xfa
1000031e:	4b01      	ldr	r3, [pc, #4]	; (10000324 <tud_umount_cb+0x8>)
10000320:	601a      	str	r2, [r3, #0]
10000322:	4770      	bx	lr
10000324:	20000248 	.word	0x20000248

10000328 <tud_suspend_cb>:
10000328:	4b01      	ldr	r3, [pc, #4]	; (10000330 <tud_suspend_cb+0x8>)
1000032a:	4a02      	ldr	r2, [pc, #8]	; (10000334 <tud_suspend_cb+0xc>)
1000032c:	601a      	str	r2, [r3, #0]
1000032e:	4770      	bx	lr
10000330:	20000248 	.word	0x20000248
10000334:	000009c4 	.word	0x000009c4

10000338 <tud_resume_cb>:
10000338:	22fa      	movs	r2, #250	; 0xfa
1000033a:	4b02      	ldr	r3, [pc, #8]	; (10000344 <tud_resume_cb+0xc>)
1000033c:	0092      	lsls	r2, r2, #2
1000033e:	601a      	str	r2, [r3, #0]
10000340:	4770      	bx	lr
10000342:	46c0      	nop			; (mov r8, r8)
10000344:	20000248 	.word	0x20000248

10000348 <tud_audio_get_req_entity_cb>:
10000348:	b570      	push	{r4, r5, r6, lr}
1000034a:	794b      	ldrb	r3, [r1, #5]
1000034c:	0004      	movs	r4, r0
1000034e:	b08e      	sub	sp, #56	; 0x38
10000350:	2b04      	cmp	r3, #4
10000352:	d004      	beq.n	1000035e <tud_audio_get_req_entity_cb+0x16>
10000354:	2000      	movs	r0, #0
10000356:	2b02      	cmp	r3, #2
10000358:	d010      	beq.n	1000037c <tud_audio_get_req_entity_cb+0x34>
1000035a:	b00e      	add	sp, #56	; 0x38
1000035c:	bd70      	pop	{r4, r5, r6, pc}
1000035e:	78cd      	ldrb	r5, [r1, #3]
10000360:	2d01      	cmp	r5, #1
10000362:	d020      	beq.n	100003a6 <tud_audio_get_req_entity_cb+0x5e>
10000364:	2000      	movs	r0, #0
10000366:	2d02      	cmp	r5, #2
10000368:	d1f7      	bne.n	1000035a <tud_audio_get_req_entity_cb+0x12>
1000036a:	784b      	ldrb	r3, [r1, #1]
1000036c:	2b01      	cmp	r3, #1
1000036e:	d1f4      	bne.n	1000035a <tud_audio_get_req_entity_cb+0x12>
10000370:	aa01      	add	r2, sp, #4
10000372:	0020      	movs	r0, r4
10000374:	7013      	strb	r3, [r2, #0]
10000376:	f004 fc9b 	bl	10004cb0 <tud_audio_buffer_and_schedule_control_xfer>
1000037a:	e7ee      	b.n	1000035a <tud_audio_get_req_entity_cb+0x12>
1000037c:	78cb      	ldrb	r3, [r1, #3]
1000037e:	2b01      	cmp	r3, #1
10000380:	d052      	beq.n	10000428 <tud_audio_get_req_entity_cb+0xe0>
10000382:	2b02      	cmp	r3, #2
10000384:	d1e9      	bne.n	1000035a <tud_audio_get_req_entity_cb+0x12>
10000386:	784b      	ldrb	r3, [r1, #1]
10000388:	2b02      	cmp	r3, #2
1000038a:	d063      	beq.n	10000454 <tud_audio_get_req_entity_cb+0x10c>
1000038c:	2b01      	cmp	r3, #1
1000038e:	d1e4      	bne.n	1000035a <tud_audio_get_req_entity_cb+0x12>
10000390:	788b      	ldrb	r3, [r1, #2]
10000392:	4835      	ldr	r0, [pc, #212]	; (10000468 <tud_audio_get_req_entity_cb+0x120>)
10000394:	005b      	lsls	r3, r3, #1
10000396:	5a1b      	ldrh	r3, [r3, r0]
10000398:	aa01      	add	r2, sp, #4
1000039a:	8013      	strh	r3, [r2, #0]
1000039c:	0020      	movs	r0, r4
1000039e:	2302      	movs	r3, #2
100003a0:	f004 fc86 	bl	10004cb0 <tud_audio_buffer_and_schedule_control_xfer>
100003a4:	e7d9      	b.n	1000035a <tud_audio_get_req_entity_cb+0x12>
100003a6:	784a      	ldrb	r2, [r1, #1]
100003a8:	2a01      	cmp	r2, #1
100003aa:	d04b      	beq.n	10000444 <tud_audio_get_req_entity_cb+0xfc>
100003ac:	2000      	movs	r0, #0
100003ae:	2a02      	cmp	r2, #2
100003b0:	d1d3      	bne.n	1000035a <tud_audio_get_req_entity_cb+0x12>
100003b2:	aa01      	add	r2, sp, #4
100003b4:	8013      	strh	r3, [r2, #0]
100003b6:	466b      	mov	r3, sp
100003b8:	4e2c      	ldr	r6, [pc, #176]	; (1000046c <tud_audio_get_req_entity_cb+0x124>)
100003ba:	8118      	strh	r0, [r3, #8]
100003bc:	80de      	strh	r6, [r3, #6]
100003be:	230a      	movs	r3, #10
100003c0:	446b      	add	r3, sp
100003c2:	801e      	strh	r6, [r3, #0]
100003c4:	8058      	strh	r0, [r3, #2]
100003c6:	230e      	movs	r3, #14
100003c8:	446b      	add	r3, sp
100003ca:	8018      	strh	r0, [r3, #0]
100003cc:	8058      	strh	r0, [r3, #2]
100003ce:	2312      	movs	r3, #18
100003d0:	4e27      	ldr	r6, [pc, #156]	; (10000470 <tud_audio_get_req_entity_cb+0x128>)
100003d2:	446b      	add	r3, sp
100003d4:	801e      	strh	r6, [r3, #0]
100003d6:	8058      	strh	r0, [r3, #2]
100003d8:	2316      	movs	r3, #22
100003da:	446b      	add	r3, sp
100003dc:	801e      	strh	r6, [r3, #0]
100003de:	8058      	strh	r0, [r3, #2]
100003e0:	231a      	movs	r3, #26
100003e2:	446b      	add	r3, sp
100003e4:	8018      	strh	r0, [r3, #0]
100003e6:	8058      	strh	r0, [r3, #2]
100003e8:	231e      	movs	r3, #30
100003ea:	4e22      	ldr	r6, [pc, #136]	; (10000474 <tud_audio_get_req_entity_cb+0x12c>)
100003ec:	446b      	add	r3, sp
100003ee:	801e      	strh	r6, [r3, #0]
100003f0:	805d      	strh	r5, [r3, #2]
100003f2:	2322      	movs	r3, #34	; 0x22
100003f4:	446b      	add	r3, sp
100003f6:	801e      	strh	r6, [r3, #0]
100003f8:	805d      	strh	r5, [r3, #2]
100003fa:	2326      	movs	r3, #38	; 0x26
100003fc:	446b      	add	r3, sp
100003fe:	8018      	strh	r0, [r3, #0]
10000400:	8058      	strh	r0, [r3, #2]
10000402:	26ee      	movs	r6, #238	; 0xee
10000404:	232a      	movs	r3, #42	; 0x2a
10000406:	01f6      	lsls	r6, r6, #7
10000408:	446b      	add	r3, sp
1000040a:	801e      	strh	r6, [r3, #0]
1000040c:	805d      	strh	r5, [r3, #2]
1000040e:	232e      	movs	r3, #46	; 0x2e
10000410:	446b      	add	r3, sp
10000412:	801e      	strh	r6, [r3, #0]
10000414:	805d      	strh	r5, [r3, #2]
10000416:	2332      	movs	r3, #50	; 0x32
10000418:	446b      	add	r3, sp
1000041a:	8018      	strh	r0, [r3, #0]
1000041c:	8058      	strh	r0, [r3, #2]
1000041e:	2332      	movs	r3, #50	; 0x32
10000420:	0020      	movs	r0, r4
10000422:	f004 fc45 	bl	10004cb0 <tud_audio_buffer_and_schedule_control_xfer>
10000426:	e798      	b.n	1000035a <tud_audio_get_req_entity_cb+0x12>
10000428:	784b      	ldrb	r3, [r1, #1]
1000042a:	2b01      	cmp	r3, #1
1000042c:	d000      	beq.n	10000430 <tud_audio_get_req_entity_cb+0xe8>
1000042e:	e794      	b.n	1000035a <tud_audio_get_req_entity_cb+0x12>
10000430:	788b      	ldrb	r3, [r1, #2]
10000432:	4811      	ldr	r0, [pc, #68]	; (10000478 <tud_audio_get_req_entity_cb+0x130>)
10000434:	aa01      	add	r2, sp, #4
10000436:	5cc3      	ldrb	r3, [r0, r3]
10000438:	0020      	movs	r0, r4
1000043a:	7013      	strb	r3, [r2, #0]
1000043c:	2301      	movs	r3, #1
1000043e:	f004 fc37 	bl	10004cb0 <tud_audio_buffer_and_schedule_control_xfer>
10000442:	e78a      	b.n	1000035a <tud_audio_get_req_entity_cb+0x12>
10000444:	4b0d      	ldr	r3, [pc, #52]	; (1000047c <tud_audio_get_req_entity_cb+0x134>)
10000446:	aa01      	add	r2, sp, #4
10000448:	681b      	ldr	r3, [r3, #0]
1000044a:	9301      	str	r3, [sp, #4]
1000044c:	2304      	movs	r3, #4
1000044e:	f004 fc2f 	bl	10004cb0 <tud_audio_buffer_and_schedule_control_xfer>
10000452:	e782      	b.n	1000035a <tud_audio_get_req_entity_cb+0x12>
10000454:	aa01      	add	r2, sp, #4
10000456:	0010      	movs	r0, r2
10000458:	4b09      	ldr	r3, [pc, #36]	; (10000480 <tud_audio_get_req_entity_cb+0x138>)
1000045a:	cb60      	ldmia	r3!, {r5, r6}
1000045c:	c060      	stmia	r0!, {r5, r6}
1000045e:	2308      	movs	r3, #8
10000460:	0020      	movs	r0, r4
10000462:	f004 fc25 	bl	10004cb0 <tud_audio_buffer_and_schedule_control_xfer>
10000466:	e778      	b.n	1000035a <tud_audio_get_req_entity_cb+0x12>
10000468:	20000a5c 	.word	0x20000a5c
1000046c:	ffffac44 	.word	0xffffac44
10000470:	ffffbb80 	.word	0xffffbb80
10000474:	00005888 	.word	0x00005888
10000478:	20000a58 	.word	0x20000a58
1000047c:	2000024c 	.word	0x2000024c
10000480:	10005530 	.word	0x10005530

10000484 <tud_audio_set_req_entity_cb>:
10000484:	b510      	push	{r4, lr}
10000486:	794b      	ldrb	r3, [r1, #5]
10000488:	2b02      	cmp	r3, #2
1000048a:	d01d      	beq.n	100004c8 <tud_audio_set_req_entity_cb+0x44>
1000048c:	2000      	movs	r0, #0
1000048e:	2b04      	cmp	r3, #4
10000490:	d000      	beq.n	10000494 <tud_audio_set_req_entity_cb+0x10>
10000492:	bd10      	pop	{r4, pc}
10000494:	784b      	ldrb	r3, [r1, #1]
10000496:	2b01      	cmp	r3, #1
10000498:	d1fb      	bne.n	10000492 <tud_audio_set_req_entity_cb+0xe>
1000049a:	78cb      	ldrb	r3, [r1, #3]
1000049c:	2b01      	cmp	r3, #1
1000049e:	d1f8      	bne.n	10000492 <tud_audio_set_req_entity_cb+0xe>
100004a0:	79cb      	ldrb	r3, [r1, #7]
100004a2:	798c      	ldrb	r4, [r1, #6]
100004a4:	021b      	lsls	r3, r3, #8
100004a6:	4323      	orrs	r3, r4
100004a8:	2b04      	cmp	r3, #4
100004aa:	d1f2      	bne.n	10000492 <tud_audio_set_req_entity_cb+0xe>
100004ac:	7851      	ldrb	r1, [r2, #1]
100004ae:	7813      	ldrb	r3, [r2, #0]
100004b0:	0209      	lsls	r1, r1, #8
100004b2:	4319      	orrs	r1, r3
100004b4:	7893      	ldrb	r3, [r2, #2]
100004b6:	3001      	adds	r0, #1
100004b8:	041b      	lsls	r3, r3, #16
100004ba:	4319      	orrs	r1, r3
100004bc:	78d3      	ldrb	r3, [r2, #3]
100004be:	4a15      	ldr	r2, [pc, #84]	; (10000514 <tud_audio_set_req_entity_cb+0x90>)
100004c0:	061b      	lsls	r3, r3, #24
100004c2:	430b      	orrs	r3, r1
100004c4:	6013      	str	r3, [r2, #0]
100004c6:	e7e4      	b.n	10000492 <tud_audio_set_req_entity_cb+0xe>
100004c8:	784b      	ldrb	r3, [r1, #1]
100004ca:	2000      	movs	r0, #0
100004cc:	2b01      	cmp	r3, #1
100004ce:	d1e0      	bne.n	10000492 <tud_audio_set_req_entity_cb+0xe>
100004d0:	78cb      	ldrb	r3, [r1, #3]
100004d2:	2b01      	cmp	r3, #1
100004d4:	d011      	beq.n	100004fa <tud_audio_set_req_entity_cb+0x76>
100004d6:	2b02      	cmp	r3, #2
100004d8:	d1db      	bne.n	10000492 <tud_audio_set_req_entity_cb+0xe>
100004da:	79cb      	ldrb	r3, [r1, #7]
100004dc:	798c      	ldrb	r4, [r1, #6]
100004de:	021b      	lsls	r3, r3, #8
100004e0:	4323      	orrs	r3, r4
100004e2:	2b02      	cmp	r3, #2
100004e4:	d1d5      	bne.n	10000492 <tud_audio_set_req_entity_cb+0xe>
100004e6:	7853      	ldrb	r3, [r2, #1]
100004e8:	7810      	ldrb	r0, [r2, #0]
100004ea:	788a      	ldrb	r2, [r1, #2]
100004ec:	021b      	lsls	r3, r3, #8
100004ee:	490a      	ldr	r1, [pc, #40]	; (10000518 <tud_audio_set_req_entity_cb+0x94>)
100004f0:	4303      	orrs	r3, r0
100004f2:	0052      	lsls	r2, r2, #1
100004f4:	2001      	movs	r0, #1
100004f6:	528b      	strh	r3, [r1, r2]
100004f8:	e7cb      	b.n	10000492 <tud_audio_set_req_entity_cb+0xe>
100004fa:	79cb      	ldrb	r3, [r1, #7]
100004fc:	798c      	ldrb	r4, [r1, #6]
100004fe:	021b      	lsls	r3, r3, #8
10000500:	4323      	orrs	r3, r4
10000502:	2b01      	cmp	r3, #1
10000504:	d1c5      	bne.n	10000492 <tud_audio_set_req_entity_cb+0xe>
10000506:	2000      	movs	r0, #0
10000508:	788b      	ldrb	r3, [r1, #2]
1000050a:	5610      	ldrsb	r0, [r2, r0]
1000050c:	4a03      	ldr	r2, [pc, #12]	; (1000051c <tud_audio_set_req_entity_cb+0x98>)
1000050e:	54d0      	strb	r0, [r2, r3]
10000510:	2001      	movs	r0, #1
10000512:	e7be      	b.n	10000492 <tud_audio_set_req_entity_cb+0xe>
10000514:	2000024c 	.word	0x2000024c
10000518:	20000a5c 	.word	0x20000a5c
1000051c:	20000a58 	.word	0x20000a58

10000520 <tud_audio_set_itf_close_EP_cb>:
10000520:	790b      	ldrb	r3, [r1, #4]
10000522:	2b01      	cmp	r3, #1
10000524:	d001      	beq.n	1000052a <tud_audio_set_itf_close_EP_cb+0xa>
10000526:	2001      	movs	r0, #1
10000528:	4770      	bx	lr
1000052a:	788b      	ldrb	r3, [r1, #2]
1000052c:	2b00      	cmp	r3, #0
1000052e:	d1fa      	bne.n	10000526 <tud_audio_set_itf_close_EP_cb+0x6>
10000530:	22fa      	movs	r2, #250	; 0xfa
10000532:	4b02      	ldr	r3, [pc, #8]	; (1000053c <tud_audio_set_itf_close_EP_cb+0x1c>)
10000534:	0092      	lsls	r2, r2, #2
10000536:	601a      	str	r2, [r3, #0]
10000538:	e7f5      	b.n	10000526 <tud_audio_set_itf_close_EP_cb+0x6>
1000053a:	46c0      	nop			; (mov r8, r8)
1000053c:	20000248 	.word	0x20000248

10000540 <tud_audio_set_itf_cb>:
10000540:	790b      	ldrb	r3, [r1, #4]
10000542:	788a      	ldrb	r2, [r1, #2]
10000544:	2b01      	cmp	r3, #1
10000546:	d00c      	beq.n	10000562 <tud_audio_set_itf_cb+0x22>
10000548:	2100      	movs	r1, #0
1000054a:	4b0f      	ldr	r3, [pc, #60]	; (10000588 <tud_audio_set_itf_cb+0x48>)
1000054c:	6019      	str	r1, [r3, #0]
1000054e:	2a00      	cmp	r2, #0
10000550:	d005      	beq.n	1000055e <tud_audio_set_itf_cb+0x1e>
10000552:	4b0e      	ldr	r3, [pc, #56]	; (1000058c <tud_audio_set_itf_cb+0x4c>)
10000554:	189b      	adds	r3, r3, r2
10000556:	3b01      	subs	r3, #1
10000558:	781a      	ldrb	r2, [r3, #0]
1000055a:	4b0d      	ldr	r3, [pc, #52]	; (10000590 <tud_audio_set_itf_cb+0x50>)
1000055c:	701a      	strb	r2, [r3, #0]
1000055e:	2001      	movs	r0, #1
10000560:	4770      	bx	lr
10000562:	2a00      	cmp	r2, #0
10000564:	d00c      	beq.n	10000580 <tud_audio_set_itf_cb+0x40>
10000566:	2119      	movs	r1, #25
10000568:	4b0a      	ldr	r3, [pc, #40]	; (10000594 <tud_audio_set_itf_cb+0x54>)
1000056a:	6019      	str	r1, [r3, #0]
1000056c:	2100      	movs	r1, #0
1000056e:	4b06      	ldr	r3, [pc, #24]	; (10000588 <tud_audio_set_itf_cb+0x48>)
10000570:	6019      	str	r1, [r3, #0]
10000572:	4b06      	ldr	r3, [pc, #24]	; (1000058c <tud_audio_set_itf_cb+0x4c>)
10000574:	189b      	adds	r3, r3, r2
10000576:	3b01      	subs	r3, #1
10000578:	781a      	ldrb	r2, [r3, #0]
1000057a:	4b05      	ldr	r3, [pc, #20]	; (10000590 <tud_audio_set_itf_cb+0x50>)
1000057c:	701a      	strb	r2, [r3, #0]
1000057e:	e7ee      	b.n	1000055e <tud_audio_set_itf_cb+0x1e>
10000580:	4b01      	ldr	r3, [pc, #4]	; (10000588 <tud_audio_set_itf_cb+0x48>)
10000582:	601a      	str	r2, [r3, #0]
10000584:	e7eb      	b.n	1000055e <tud_audio_set_itf_cb+0x1e>
10000586:	46c0      	nop			; (mov r8, r8)
10000588:	20001378 	.word	0x20001378
1000058c:	10005538 	.word	0x10005538
10000590:	2000137c 	.word	0x2000137c
10000594:	20000248 	.word	0x20000248

10000598 <tud_audio_rx_done_pre_read_cb>:
10000598:	000a      	movs	r2, r1
1000059a:	b510      	push	{r4, lr}
1000059c:	2000      	movs	r0, #0
1000059e:	4903      	ldr	r1, [pc, #12]	; (100005ac <tud_audio_rx_done_pre_read_cb+0x14>)
100005a0:	f003 fff8 	bl	10004594 <tud_audio_n_read>
100005a4:	4b02      	ldr	r3, [pc, #8]	; (100005b0 <tud_audio_rx_done_pre_read_cb+0x18>)
100005a6:	6018      	str	r0, [r3, #0]
100005a8:	2001      	movs	r0, #1
100005aa:	bd10      	pop	{r4, pc}
100005ac:	20000a60 	.word	0x20000a60
100005b0:	20001378 	.word	0x20001378

100005b4 <tud_audio_tx_done_pre_load_cb>:
100005b4:	2001      	movs	r0, #1
100005b6:	4770      	bx	lr

100005b8 <audio_task>:
100005b8:	b5f8      	push	{r3, r4, r5, r6, r7, lr}
100005ba:	4c26      	ldr	r4, [pc, #152]	; (10000654 <audio_task+0x9c>)
100005bc:	6822      	ldr	r2, [r4, #0]
100005be:	2a00      	cmp	r2, #0
100005c0:	d005      	beq.n	100005ce <audio_task+0x16>
100005c2:	4b25      	ldr	r3, [pc, #148]	; (10000658 <audio_task+0xa0>)
100005c4:	781b      	ldrb	r3, [r3, #0]
100005c6:	2b10      	cmp	r3, #16
100005c8:	d002      	beq.n	100005d0 <audio_task+0x18>
100005ca:	2b18      	cmp	r3, #24
100005cc:	d01f      	beq.n	1000060e <audio_task+0x56>
100005ce:	bdf8      	pop	{r3, r4, r5, r6, r7, pc}
100005d0:	0fd3      	lsrs	r3, r2, #31
100005d2:	189a      	adds	r2, r3, r2
100005d4:	1053      	asrs	r3, r2, #1
100005d6:	4821      	ldr	r0, [pc, #132]	; (1000065c <audio_task+0xa4>)
100005d8:	4921      	ldr	r1, [pc, #132]	; (10000660 <audio_task+0xa8>)
100005da:	005f      	lsls	r7, r3, #1
100005dc:	183f      	adds	r7, r7, r0
100005de:	469c      	mov	ip, r3
100005e0:	000e      	movs	r6, r1
100005e2:	4287      	cmp	r7, r0
100005e4:	d90b      	bls.n	100005fe <audio_task+0x46>
100005e6:	2500      	movs	r5, #0
100005e8:	5f43      	ldrsh	r3, [r0, r5]
100005ea:	2202      	movs	r2, #2
100005ec:	5e85      	ldrsh	r5, [r0, r2]
100005ee:	105b      	asrs	r3, r3, #1
100005f0:	106d      	asrs	r5, r5, #1
100005f2:	195b      	adds	r3, r3, r5
100005f4:	3004      	adds	r0, #4
100005f6:	8033      	strh	r3, [r6, #0]
100005f8:	3602      	adds	r6, #2
100005fa:	4287      	cmp	r7, r0
100005fc:	d8f3      	bhi.n	100005e6 <audio_task+0x2e>
100005fe:	4663      	mov	r3, ip
10000600:	2000      	movs	r0, #0
10000602:	b29a      	uxth	r2, r3
10000604:	f003 ffd6 	bl	100045b4 <tud_audio_n_write>
10000608:	2300      	movs	r3, #0
1000060a:	6023      	str	r3, [r4, #0]
1000060c:	e7df      	b.n	100005ce <audio_task+0x16>
1000060e:	2603      	movs	r6, #3
10000610:	17d3      	asrs	r3, r2, #31
10000612:	401e      	ands	r6, r3
10000614:	18b6      	adds	r6, r6, r2
10000616:	4811      	ldr	r0, [pc, #68]	; (1000065c <audio_task+0xa4>)
10000618:	10b6      	asrs	r6, r6, #2
1000061a:	00b6      	lsls	r6, r6, #2
1000061c:	1836      	adds	r6, r6, r0
1000061e:	4910      	ldr	r1, [pc, #64]	; (10000660 <audio_task+0xa8>)
10000620:	4286      	cmp	r6, r0
10000622:	d90d      	bls.n	10000640 <audio_task+0x88>
10000624:	23ff      	movs	r3, #255	; 0xff
10000626:	000f      	movs	r7, r1
10000628:	469c      	mov	ip, r3
1000062a:	6803      	ldr	r3, [r0, #0]
1000062c:	6845      	ldr	r5, [r0, #4]
1000062e:	105b      	asrs	r3, r3, #1
10000630:	106d      	asrs	r5, r5, #1
10000632:	195b      	adds	r3, r3, r5
10000634:	4665      	mov	r5, ip
10000636:	3008      	adds	r0, #8
10000638:	43ab      	bics	r3, r5
1000063a:	c708      	stmia	r7!, {r3}
1000063c:	4286      	cmp	r6, r0
1000063e:	d8f4      	bhi.n	1000062a <audio_task+0x72>
10000640:	0fd3      	lsrs	r3, r2, #31
10000642:	189a      	adds	r2, r3, r2
10000644:	1052      	asrs	r2, r2, #1
10000646:	2000      	movs	r0, #0
10000648:	b292      	uxth	r2, r2
1000064a:	f003 ffb3 	bl	100045b4 <tud_audio_n_write>
1000064e:	2300      	movs	r3, #0
10000650:	6023      	str	r3, [r4, #0]
10000652:	e7bc      	b.n	100005ce <audio_task+0x16>
10000654:	20001378 	.word	0x20001378
10000658:	2000137c 	.word	0x2000137c
1000065c:	20000a60 	.word	0x20000a60
10000660:	20001070 	.word	0x20001070

10000664 <main>:
10000664:	b5f8      	push	{r3, r4, r5, r6, r7, lr}
10000666:	46ce      	mov	lr, r9
10000668:	4647      	mov	r7, r8
1000066a:	b580      	push	{r7, lr}
1000066c:	f002 fab8 	bl	10002be0 <board_init>
10000670:	f004 fbae 	bl	10004dd0 <tusb_init>
10000674:	2301      	movs	r3, #1
10000676:	4699      	mov	r9, r3
10000678:	4c15      	ldr	r4, [pc, #84]	; (100006d0 <main+0x6c>)
1000067a:	4e16      	ldr	r6, [pc, #88]	; (100006d4 <main+0x70>)
1000067c:	4d16      	ldr	r5, [pc, #88]	; (100006d8 <main+0x74>)
1000067e:	f003 f829 	bl	100036d4 <tud_task>
10000682:	f7ff ff99 	bl	100005b8 <audio_task>
10000686:	f000 fe13 	bl	100012b0 <time_us_64>
1000068a:	6823      	ldr	r3, [r4, #0]
1000068c:	6837      	ldr	r7, [r6, #0]
1000068e:	4698      	mov	r8, r3
10000690:	2900      	cmp	r1, #0
10000692:	d013      	beq.n	100006bc <main+0x58>
10000694:	22fa      	movs	r2, #250	; 0xfa
10000696:	2300      	movs	r3, #0
10000698:	0092      	lsls	r2, r2, #2
1000069a:	f001 fdc9 	bl	10002230 <__wrap___aeabi_uldivmod>
1000069e:	4643      	mov	r3, r8
100006a0:	1ac0      	subs	r0, r0, r3
100006a2:	42b8      	cmp	r0, r7
100006a4:	d3eb      	bcc.n	1000067e <main+0x1a>
100006a6:	003b      	movs	r3, r7
100006a8:	7828      	ldrb	r0, [r5, #0]
100006aa:	4443      	add	r3, r8
100006ac:	6023      	str	r3, [r4, #0]
100006ae:	f002 faaf 	bl	10002c10 <board_led_write>
100006b2:	464a      	mov	r2, r9
100006b4:	782b      	ldrb	r3, [r5, #0]
100006b6:	4053      	eors	r3, r2
100006b8:	702b      	strb	r3, [r5, #0]
100006ba:	e7e0      	b.n	1000067e <main+0x1a>
100006bc:	21fa      	movs	r1, #250	; 0xfa
100006be:	0089      	lsls	r1, r1, #2
100006c0:	f001 fd74 	bl	100021ac <__wrap___aeabi_uidiv>
100006c4:	4643      	mov	r3, r8
100006c6:	1ac0      	subs	r0, r0, r3
100006c8:	42b8      	cmp	r0, r7
100006ca:	d3d8      	bcc.n	1000067e <main+0x1a>
100006cc:	e7eb      	b.n	100006a6 <main+0x42>
100006ce:	46c0      	nop			; (mov r8, r8)
100006d0:	20000a34 	.word	0x20000a34
100006d4:	20000248 	.word	0x20000248
100006d8:	20000a54 	.word	0x20000a54

100006dc <tud_descriptor_device_cb>:
100006dc:	4800      	ldr	r0, [pc, #0]	; (100006e0 <tud_descriptor_device_cb+0x4>)
100006de:	4770      	bx	lr
100006e0:	100056cc 	.word	0x100056cc

100006e4 <tud_descriptor_configuration_cb>:
100006e4:	4800      	ldr	r0, [pc, #0]	; (100006e8 <tud_descriptor_configuration_cb+0x4>)
100006e6:	4770      	bx	lr
100006e8:	10005588 	.word	0x10005588

100006ec <tud_descriptor_string_cb>:
100006ec:	b570      	push	{r4, r5, r6, lr}
100006ee:	2800      	cmp	r0, #0
100006f0:	d025      	beq.n	1000073e <tud_descriptor_string_cb+0x52>
100006f2:	2805      	cmp	r0, #5
100006f4:	d830      	bhi.n	10000758 <tud_descriptor_string_cb+0x6c>
100006f6:	4b19      	ldr	r3, [pc, #100]	; (1000075c <tud_descriptor_string_cb+0x70>)
100006f8:	0080      	lsls	r0, r0, #2
100006fa:	58c6      	ldr	r6, [r0, r3]
100006fc:	0030      	movs	r0, r6
100006fe:	f004 feb5 	bl	1000546c <strlen>
10000702:	b2c0      	uxtb	r0, r0
10000704:	1c04      	adds	r4, r0, #0
10000706:	281f      	cmp	r0, #31
10000708:	d814      	bhi.n	10000734 <tud_descriptor_string_cb+0x48>
1000070a:	b2e4      	uxtb	r4, r4
1000070c:	2800      	cmp	r0, #0
1000070e:	d020      	beq.n	10000752 <tud_descriptor_string_cb+0x66>
10000710:	2300      	movs	r3, #0
10000712:	4d13      	ldr	r5, [pc, #76]	; (10000760 <tud_descriptor_string_cb+0x74>)
10000714:	1caa      	adds	r2, r5, #2
10000716:	5cf1      	ldrb	r1, [r6, r3]
10000718:	3301      	adds	r3, #1
1000071a:	8011      	strh	r1, [r2, #0]
1000071c:	b2d9      	uxtb	r1, r3
1000071e:	3202      	adds	r2, #2
10000720:	428c      	cmp	r4, r1
10000722:	d8f8      	bhi.n	10000716 <tud_descriptor_string_cb+0x2a>
10000724:	23c0      	movs	r3, #192	; 0xc0
10000726:	3401      	adds	r4, #1
10000728:	0064      	lsls	r4, r4, #1
1000072a:	009b      	lsls	r3, r3, #2
1000072c:	431c      	orrs	r4, r3
1000072e:	0028      	movs	r0, r5
10000730:	802c      	strh	r4, [r5, #0]
10000732:	bd70      	pop	{r4, r5, r6, pc}
10000734:	241f      	movs	r4, #31
10000736:	b2e4      	uxtb	r4, r4
10000738:	2800      	cmp	r0, #0
1000073a:	d1e9      	bne.n	10000710 <tud_descriptor_string_cb+0x24>
1000073c:	e009      	b.n	10000752 <tud_descriptor_string_cb+0x66>
1000073e:	24c1      	movs	r4, #193	; 0xc1
10000740:	4d07      	ldr	r5, [pc, #28]	; (10000760 <tud_descriptor_string_cb+0x74>)
10000742:	4b06      	ldr	r3, [pc, #24]	; (1000075c <tud_descriptor_string_cb+0x70>)
10000744:	2202      	movs	r2, #2
10000746:	6819      	ldr	r1, [r3, #0]
10000748:	1ca8      	adds	r0, r5, #2
1000074a:	f002 f855 	bl	100027f8 <__wrap___aeabi_memcpy>
1000074e:	00a4      	lsls	r4, r4, #2
10000750:	e7ed      	b.n	1000072e <tud_descriptor_string_cb+0x42>
10000752:	4c04      	ldr	r4, [pc, #16]	; (10000764 <tud_descriptor_string_cb+0x78>)
10000754:	4d02      	ldr	r5, [pc, #8]	; (10000760 <tud_descriptor_string_cb+0x74>)
10000756:	e7ea      	b.n	1000072e <tud_descriptor_string_cb+0x42>
10000758:	2000      	movs	r0, #0
1000075a:	e7ea      	b.n	10000732 <tud_descriptor_string_cb+0x46>
1000075c:	20000250 	.word	0x20000250
10000760:	200004a4 	.word	0x200004a4
10000764:	00000302 	.word	0x00000302

10000768 <gpio_set_function>:
10000768:	4a09      	ldr	r2, [pc, #36]	; (10000790 <gpio_set_function+0x28>)
1000076a:	0083      	lsls	r3, r0, #2
1000076c:	4694      	mov	ip, r2
1000076e:	2240      	movs	r2, #64	; 0x40
10000770:	4463      	add	r3, ip
10000772:	b510      	push	{r4, lr}
10000774:	681c      	ldr	r4, [r3, #0]
10000776:	00c0      	lsls	r0, r0, #3
10000778:	4062      	eors	r2, r4
1000077a:	24c0      	movs	r4, #192	; 0xc0
1000077c:	4014      	ands	r4, r2
1000077e:	2280      	movs	r2, #128	; 0x80
10000780:	0152      	lsls	r2, r2, #5
10000782:	4313      	orrs	r3, r2
10000784:	601c      	str	r4, [r3, #0]
10000786:	4b03      	ldr	r3, [pc, #12]	; (10000794 <gpio_set_function+0x2c>)
10000788:	469c      	mov	ip, r3
1000078a:	4460      	add	r0, ip
1000078c:	6041      	str	r1, [r0, #4]
1000078e:	bd10      	pop	{r4, pc}
10000790:	4001c004 	.word	0x4001c004
10000794:	40014000 	.word	0x40014000

10000798 <gpio_get_function>:
10000798:	4b03      	ldr	r3, [pc, #12]	; (100007a8 <gpio_get_function+0x10>)
1000079a:	00c0      	lsls	r0, r0, #3
1000079c:	469c      	mov	ip, r3
1000079e:	4460      	add	r0, ip
100007a0:	6843      	ldr	r3, [r0, #4]
100007a2:	201f      	movs	r0, #31
100007a4:	4018      	ands	r0, r3
100007a6:	4770      	bx	lr
100007a8:	40014000 	.word	0x40014000

100007ac <gpio_set_pulls>:
100007ac:	4b0a      	ldr	r3, [pc, #40]	; (100007d8 <gpio_set_pulls+0x2c>)
100007ae:	0080      	lsls	r0, r0, #2
100007b0:	469c      	mov	ip, r3
100007b2:	2304      	movs	r3, #4
100007b4:	4460      	add	r0, ip
100007b6:	2900      	cmp	r1, #0
100007b8:	d001      	beq.n	100007be <gpio_set_pulls+0x12>
100007ba:	230c      	movs	r3, #12
100007bc:	2108      	movs	r1, #8
100007be:	2a00      	cmp	r2, #0
100007c0:	d100      	bne.n	100007c4 <gpio_set_pulls+0x18>
100007c2:	000b      	movs	r3, r1
100007c4:	6802      	ldr	r2, [r0, #0]
100007c6:	4053      	eors	r3, r2
100007c8:	220c      	movs	r2, #12
100007ca:	401a      	ands	r2, r3
100007cc:	2380      	movs	r3, #128	; 0x80
100007ce:	015b      	lsls	r3, r3, #5
100007d0:	4318      	orrs	r0, r3
100007d2:	6002      	str	r2, [r0, #0]
100007d4:	4770      	bx	lr
100007d6:	46c0      	nop			; (mov r8, r8)
100007d8:	4001c004 	.word	0x4001c004

100007dc <gpio_set_inover>:
100007dc:	4b07      	ldr	r3, [pc, #28]	; (100007fc <gpio_set_inover+0x20>)
100007de:	00c0      	lsls	r0, r0, #3
100007e0:	469c      	mov	ip, r3
100007e2:	4460      	add	r0, ip
100007e4:	6803      	ldr	r3, [r0, #0]
100007e6:	0409      	lsls	r1, r1, #16
100007e8:	4059      	eors	r1, r3
100007ea:	23c0      	movs	r3, #192	; 0xc0
100007ec:	029b      	lsls	r3, r3, #10
100007ee:	4019      	ands	r1, r3
100007f0:	2380      	movs	r3, #128	; 0x80
100007f2:	015b      	lsls	r3, r3, #5
100007f4:	4318      	orrs	r0, r3
100007f6:	6001      	str	r1, [r0, #0]
100007f8:	4770      	bx	lr
100007fa:	46c0      	nop			; (mov r8, r8)
100007fc:	40014004 	.word	0x40014004

10000800 <gpio_set_oeover>:
10000800:	4b07      	ldr	r3, [pc, #28]	; (10000820 <gpio_set_oeover+0x20>)
10000802:	00c0      	lsls	r0, r0, #3
10000804:	469c      	mov	ip, r3
10000806:	4460      	add	r0, ip
10000808:	6803      	ldr	r3, [r0, #0]
1000080a:	0309      	lsls	r1, r1, #12
1000080c:	4059      	eors	r1, r3
1000080e:	23c0      	movs	r3, #192	; 0xc0
10000810:	019b      	lsls	r3, r3, #6
10000812:	4019      	ands	r1, r3
10000814:	2380      	movs	r3, #128	; 0x80
10000816:	015b      	lsls	r3, r3, #5
10000818:	4318      	orrs	r0, r3
1000081a:	6001      	str	r1, [r0, #0]
1000081c:	4770      	bx	lr
1000081e:	46c0      	nop			; (mov r8, r8)
10000820:	40014004 	.word	0x40014004

10000824 <gpio_init>:
10000824:	2301      	movs	r3, #1
10000826:	22d0      	movs	r2, #208	; 0xd0
10000828:	4083      	lsls	r3, r0
1000082a:	0612      	lsls	r2, r2, #24
1000082c:	6293      	str	r3, [r2, #40]	; 0x28
1000082e:	6193      	str	r3, [r2, #24]
10000830:	4a09      	ldr	r2, [pc, #36]	; (10000858 <gpio_init+0x34>)
10000832:	0083      	lsls	r3, r0, #2
10000834:	4694      	mov	ip, r2
10000836:	2240      	movs	r2, #64	; 0x40
10000838:	4463      	add	r3, ip
1000083a:	6819      	ldr	r1, [r3, #0]
1000083c:	00c0      	lsls	r0, r0, #3
1000083e:	404a      	eors	r2, r1
10000840:	21c0      	movs	r1, #192	; 0xc0
10000842:	4011      	ands	r1, r2
10000844:	2280      	movs	r2, #128	; 0x80
10000846:	0152      	lsls	r2, r2, #5
10000848:	4313      	orrs	r3, r2
1000084a:	6019      	str	r1, [r3, #0]
1000084c:	4b03      	ldr	r3, [pc, #12]	; (1000085c <gpio_init+0x38>)
1000084e:	469c      	mov	ip, r3
10000850:	2305      	movs	r3, #5
10000852:	4460      	add	r0, ip
10000854:	6043      	str	r3, [r0, #4]
10000856:	4770      	bx	lr
10000858:	4001c004 	.word	0x4001c004
1000085c:	40014000 	.word	0x40014000

10000860 <hw_claim_or_assert>:
10000860:	b5f8      	push	{r3, r4, r5, r6, r7, lr}
10000862:	f3ef 8710 	mrs	r7, PRIMASK
10000866:	b672      	cpsid	i
10000868:	4e0e      	ldr	r6, [pc, #56]	; (100008a4 <hw_claim_or_assert+0x44>)
1000086a:	6833      	ldr	r3, [r6, #0]
1000086c:	2b00      	cmp	r3, #0
1000086e:	d0fc      	beq.n	1000086a <hw_claim_or_assert+0xa>
10000870:	f3bf 8f5f 	dmb	sy
10000874:	08cb      	lsrs	r3, r1, #3
10000876:	18c4      	adds	r4, r0, r3
10000878:	2507      	movs	r5, #7
1000087a:	46a4      	mov	ip, r4
1000087c:	5cc4      	ldrb	r4, [r0, r3]
1000087e:	2301      	movs	r3, #1
10000880:	400d      	ands	r5, r1
10000882:	40ab      	lsls	r3, r5
10000884:	0018      	movs	r0, r3
10000886:	4020      	ands	r0, r4
10000888:	4223      	tst	r3, r4
1000088a:	d108      	bne.n	1000089e <hw_claim_or_assert+0x3e>
1000088c:	4662      	mov	r2, ip
1000088e:	4323      	orrs	r3, r4
10000890:	7013      	strb	r3, [r2, #0]
10000892:	f3bf 8f5f 	dmb	sy
10000896:	6030      	str	r0, [r6, #0]
10000898:	f387 8810 	msr	PRIMASK, r7
1000089c:	bdf8      	pop	{r3, r4, r5, r6, r7, pc}
1000089e:	0010      	movs	r0, r2
100008a0:	f001 f8b0 	bl	10001a04 <panic>
100008a4:	d000012c 	.word	0xd000012c

100008a8 <hw_claim_unused_from_range>:
100008a8:	b5f8      	push	{r3, r4, r5, r6, r7, lr}
100008aa:	46ce      	mov	lr, r9
100008ac:	4647      	mov	r7, r8
100008ae:	468c      	mov	ip, r1
100008b0:	b580      	push	{r7, lr}
100008b2:	f3ef 8810 	mrs	r8, PRIMASK
100008b6:	b672      	cpsid	i
100008b8:	4d21      	ldr	r5, [pc, #132]	; (10000940 <hw_claim_unused_from_range+0x98>)
100008ba:	682c      	ldr	r4, [r5, #0]
100008bc:	2c00      	cmp	r4, #0
100008be:	d0fc      	beq.n	100008ba <hw_claim_unused_from_range+0x12>
100008c0:	f3bf 8f5f 	dmb	sy
100008c4:	429a      	cmp	r2, r3
100008c6:	d82c      	bhi.n	10000922 <hw_claim_unused_from_range+0x7a>
100008c8:	08d4      	lsrs	r4, r2, #3
100008ca:	2107      	movs	r1, #7
100008cc:	5d05      	ldrb	r5, [r0, r4]
100008ce:	1906      	adds	r6, r0, r4
100008d0:	2401      	movs	r4, #1
100008d2:	4011      	ands	r1, r2
100008d4:	408c      	lsls	r4, r1
100008d6:	422c      	tst	r4, r5
100008d8:	d01f      	beq.n	1000091a <hw_claim_unused_from_range+0x72>
100008da:	2107      	movs	r1, #7
100008dc:	4689      	mov	r9, r1
100008de:	3906      	subs	r1, #6
100008e0:	e009      	b.n	100008f6 <hw_claim_unused_from_range+0x4e>
100008e2:	08d4      	lsrs	r4, r2, #3
100008e4:	5d05      	ldrb	r5, [r0, r4]
100008e6:	1906      	adds	r6, r0, r4
100008e8:	464c      	mov	r4, r9
100008ea:	000f      	movs	r7, r1
100008ec:	4014      	ands	r4, r2
100008ee:	40a7      	lsls	r7, r4
100008f0:	003c      	movs	r4, r7
100008f2:	422f      	tst	r7, r5
100008f4:	d011      	beq.n	1000091a <hw_claim_unused_from_range+0x72>
100008f6:	3201      	adds	r2, #1
100008f8:	4293      	cmp	r3, r2
100008fa:	d2f2      	bcs.n	100008e2 <hw_claim_unused_from_range+0x3a>
100008fc:	2001      	movs	r0, #1
100008fe:	4240      	negs	r0, r0
10000900:	f3bf 8f5f 	dmb	sy
10000904:	2200      	movs	r2, #0
10000906:	4b0e      	ldr	r3, [pc, #56]	; (10000940 <hw_claim_unused_from_range+0x98>)
10000908:	601a      	str	r2, [r3, #0]
1000090a:	f388 8810 	msr	PRIMASK, r8
1000090e:	2800      	cmp	r0, #0
10000910:	db0f      	blt.n	10000932 <hw_claim_unused_from_range+0x8a>
10000912:	bc0c      	pop	{r2, r3}
10000914:	4690      	mov	r8, r2
10000916:	4699      	mov	r9, r3
10000918:	bdf8      	pop	{r3, r4, r5, r6, r7, pc}
1000091a:	432c      	orrs	r4, r5
1000091c:	0010      	movs	r0, r2
1000091e:	7034      	strb	r4, [r6, #0]
10000920:	e7ee      	b.n	10000900 <hw_claim_unused_from_range+0x58>
10000922:	f3bf 8f5f 	dmb	sy
10000926:	2300      	movs	r3, #0
10000928:	602b      	str	r3, [r5, #0]
1000092a:	f388 8810 	msr	PRIMASK, r8
1000092e:	2001      	movs	r0, #1
10000930:	4240      	negs	r0, r0
10000932:	4663      	mov	r3, ip
10000934:	2b00      	cmp	r3, #0
10000936:	d0ec      	beq.n	10000912 <hw_claim_unused_from_range+0x6a>
10000938:	9808      	ldr	r0, [sp, #32]
1000093a:	f001 f863 	bl	10001a04 <panic>
1000093e:	46c0      	nop			; (mov r8, r8)
10000940:	d000012c 	.word	0xd000012c

10000944 <running_on_fpga>:
10000944:	4b02      	ldr	r3, [pc, #8]	; (10000950 <running_on_fpga+0xc>)
10000946:	6818      	ldr	r0, [r3, #0]
10000948:	0780      	lsls	r0, r0, #30
1000094a:	0fc0      	lsrs	r0, r0, #31
1000094c:	4770      	bx	lr
1000094e:	46c0      	nop			; (mov r8, r8)
10000950:	4006c000 	.word	0x4006c000

10000954 <rp2040_chip_version>:
10000954:	2380      	movs	r3, #128	; 0x80
10000956:	05db      	lsls	r3, r3, #23
10000958:	6818      	ldr	r0, [r3, #0]
1000095a:	0f00      	lsrs	r0, r0, #28
1000095c:	4770      	bx	lr
1000095e:	46c0      	nop			; (mov r8, r8)

10000960 <spin_locks_reset>:
10000960:	2100      	movs	r1, #0
10000962:	4b04      	ldr	r3, [pc, #16]	; (10000974 <spin_locks_reset+0x14>)
10000964:	4a04      	ldr	r2, [pc, #16]	; (10000978 <spin_locks_reset+0x18>)
10000966:	f3bf 8f5f 	dmb	sy
1000096a:	c302      	stmia	r3!, {r1}
1000096c:	4293      	cmp	r3, r2
1000096e:	d1fa      	bne.n	10000966 <spin_locks_reset+0x6>
10000970:	4770      	bx	lr
10000972:	46c0      	nop			; (mov r8, r8)
10000974:	d0000100 	.word	0xd0000100
10000978:	d0000180 	.word	0xd0000180

1000097c <next_striped_spin_lock_num>:
1000097c:	4a04      	ldr	r2, [pc, #16]	; (10000990 <next_striped_spin_lock_num+0x14>)
1000097e:	7810      	ldrb	r0, [r2, #0]
10000980:	1c43      	adds	r3, r0, #1
10000982:	b2db      	uxtb	r3, r3
10000984:	2b17      	cmp	r3, #23
10000986:	d900      	bls.n	1000098a <next_striped_spin_lock_num+0xe>
10000988:	2310      	movs	r3, #16
1000098a:	7013      	strb	r3, [r2, #0]
1000098c:	4770      	bx	lr
1000098e:	46c0      	nop			; (mov r8, r8)
10000990:	20000268 	.word	0x20000268

10000994 <spin_lock_claim_unused>:
10000994:	b500      	push	{lr}
10000996:	4b05      	ldr	r3, [pc, #20]	; (100009ac <spin_lock_claim_unused+0x18>)
10000998:	b083      	sub	sp, #12
1000099a:	0001      	movs	r1, r0
1000099c:	9300      	str	r3, [sp, #0]
1000099e:	2218      	movs	r2, #24
100009a0:	231f      	movs	r3, #31
100009a2:	4803      	ldr	r0, [pc, #12]	; (100009b0 <spin_lock_claim_unused+0x1c>)
100009a4:	f7ff ff80 	bl	100008a8 <hw_claim_unused_from_range>
100009a8:	b003      	add	sp, #12
100009aa:	bd00      	pop	{pc}
100009ac:	100056e0 	.word	0x100056e0
100009b0:	20000598 	.word	0x20000598

100009b4 <uart_init>:
100009b4:	b5f8      	push	{r3, r4, r5, r6, r7, lr}
100009b6:	0004      	movs	r4, r0
100009b8:	2006      	movs	r0, #6
100009ba:	000d      	movs	r5, r1
100009bc:	f001 f99e 	bl	10001cfc <clock_get_hz>
100009c0:	2800      	cmp	r0, #0
100009c2:	d045      	beq.n	10000a50 <uart_init+0x9c>
100009c4:	4b2b      	ldr	r3, [pc, #172]	; (10000a74 <uart_init+0xc0>)
100009c6:	492c      	ldr	r1, [pc, #176]	; (10000a78 <uart_init+0xc4>)
100009c8:	18e3      	adds	r3, r4, r3
100009ca:	425a      	negs	r2, r3
100009cc:	4153      	adcs	r3, r2
100009ce:	2280      	movs	r2, #128	; 0x80
100009d0:	03d2      	lsls	r2, r2, #15
100009d2:	4694      	mov	ip, r2
100009d4:	425b      	negs	r3, r3
100009d6:	4013      	ands	r3, r2
100009d8:	4a28      	ldr	r2, [pc, #160]	; (10000a7c <uart_init+0xc8>)
100009da:	4463      	add	r3, ip
100009dc:	6013      	str	r3, [r2, #0]
100009de:	4a28      	ldr	r2, [pc, #160]	; (10000a80 <uart_init+0xcc>)
100009e0:	6013      	str	r3, [r2, #0]
100009e2:	0018      	movs	r0, r3
100009e4:	688a      	ldr	r2, [r1, #8]
100009e6:	4390      	bics	r0, r2
100009e8:	d1fb      	bne.n	100009e2 <uart_init+0x2e>
100009ea:	4b22      	ldr	r3, [pc, #136]	; (10000a74 <uart_init+0xc0>)
100009ec:	2180      	movs	r1, #128	; 0x80
100009ee:	18e3      	adds	r3, r4, r3
100009f0:	425a      	negs	r2, r3
100009f2:	4153      	adcs	r3, r2
100009f4:	4a23      	ldr	r2, [pc, #140]	; (10000a84 <uart_init+0xd0>)
100009f6:	005b      	lsls	r3, r3, #1
100009f8:	0049      	lsls	r1, r1, #1
100009fa:	2006      	movs	r0, #6
100009fc:	5299      	strh	r1, [r3, r2]
100009fe:	f001 f97d 	bl	10001cfc <clock_get_hz>
10000a02:	0029      	movs	r1, r5
10000a04:	00c0      	lsls	r0, r0, #3
10000a06:	f001 fbd1 	bl	100021ac <__wrap___aeabi_uidiv>
10000a0a:	09c3      	lsrs	r3, r0, #7
10000a0c:	d121      	bne.n	10000a52 <uart_init+0x9e>
10000a0e:	2740      	movs	r7, #64	; 0x40
10000a10:	2201      	movs	r2, #1
10000a12:	0026      	movs	r6, r4
10000a14:	2580      	movs	r5, #128	; 0x80
10000a16:	6262      	str	r2, [r4, #36]	; 0x24
10000a18:	62a3      	str	r3, [r4, #40]	; 0x28
10000a1a:	2300      	movs	r3, #0
10000a1c:	362c      	adds	r6, #44	; 0x2c
10000a1e:	01ad      	lsls	r5, r5, #6
10000a20:	4335      	orrs	r5, r6
10000a22:	602b      	str	r3, [r5, #0]
10000a24:	2006      	movs	r0, #6
10000a26:	f001 f969 	bl	10001cfc <clock_get_hz>
10000a2a:	0039      	movs	r1, r7
10000a2c:	0080      	lsls	r0, r0, #2
10000a2e:	f001 fbbd 	bl	100021ac <__wrap___aeabi_uidiv>
10000a32:	2360      	movs	r3, #96	; 0x60
10000a34:	6ae2      	ldr	r2, [r4, #44]	; 0x2c
10000a36:	4053      	eors	r3, r2
10000a38:	226e      	movs	r2, #110	; 0x6e
10000a3a:	401a      	ands	r2, r3
10000a3c:	2380      	movs	r3, #128	; 0x80
10000a3e:	015b      	lsls	r3, r3, #5
10000a40:	4333      	orrs	r3, r6
10000a42:	601a      	str	r2, [r3, #0]
10000a44:	4b10      	ldr	r3, [pc, #64]	; (10000a88 <uart_init+0xd4>)
10000a46:	6323      	str	r3, [r4, #48]	; 0x30
10000a48:	2310      	movs	r3, #16
10000a4a:	602b      	str	r3, [r5, #0]
10000a4c:	3b0d      	subs	r3, #13
10000a4e:	64a3      	str	r3, [r4, #72]	; 0x48
10000a50:	bdf8      	pop	{r3, r4, r5, r6, r7, pc}
10000a52:	4a0e      	ldr	r2, [pc, #56]	; (10000a8c <uart_init+0xd8>)
10000a54:	4293      	cmp	r3, r2
10000a56:	d903      	bls.n	10000a60 <uart_init+0xac>
10000a58:	2300      	movs	r3, #0
10000a5a:	4f0d      	ldr	r7, [pc, #52]	; (10000a90 <uart_init+0xdc>)
10000a5c:	4a0d      	ldr	r2, [pc, #52]	; (10000a94 <uart_init+0xe0>)
10000a5e:	e7d8      	b.n	10000a12 <uart_init+0x5e>
10000a60:	227f      	movs	r2, #127	; 0x7f
10000a62:	4010      	ands	r0, r2
10000a64:	3001      	adds	r0, #1
10000a66:	0840      	lsrs	r0, r0, #1
10000a68:	019f      	lsls	r7, r3, #6
10000a6a:	001a      	movs	r2, r3
10000a6c:	183f      	adds	r7, r7, r0
10000a6e:	0003      	movs	r3, r0
10000a70:	e7cf      	b.n	10000a12 <uart_init+0x5e>
10000a72:	46c0      	nop			; (mov r8, r8)
10000a74:	bffc8000 	.word	0xbffc8000
10000a78:	4000c000 	.word	0x4000c000
10000a7c:	4000e000 	.word	0x4000e000
10000a80:	4000f000 	.word	0x4000f000
10000a84:	20001380 	.word	0x20001380
10000a88:	00000301 	.word	0x00000301
10000a8c:	0000fffe 	.word	0x0000fffe
10000a90:	003fffc0 	.word	0x003fffc0
10000a94:	0000ffff 	.word	0x0000ffff

10000a98 <timer_pool_entry_comparator>:
10000a98:	6883      	ldr	r3, [r0, #8]
10000a9a:	480b      	ldr	r0, [pc, #44]	; (10000ac8 <timer_pool_entry_comparator+0x30>)
10000a9c:	b510      	push	{r4, lr}
10000a9e:	4684      	mov	ip, r0
10000aa0:	4461      	add	r1, ip
10000aa2:	4462      	add	r2, ip
10000aa4:	0109      	lsls	r1, r1, #4
10000aa6:	0112      	lsls	r2, r2, #4
10000aa8:	189a      	adds	r2, r3, r2
10000aaa:	1859      	adds	r1, r3, r1
10000aac:	6854      	ldr	r4, [r2, #4]
10000aae:	684b      	ldr	r3, [r1, #4]
10000ab0:	2001      	movs	r0, #1
10000ab2:	429c      	cmp	r4, r3
10000ab4:	d801      	bhi.n	10000aba <timer_pool_entry_comparator+0x22>
10000ab6:	d002      	beq.n	10000abe <timer_pool_entry_comparator+0x26>
10000ab8:	2000      	movs	r0, #0
10000aba:	b2c0      	uxtb	r0, r0
10000abc:	bd10      	pop	{r4, pc}
10000abe:	6812      	ldr	r2, [r2, #0]
10000ac0:	680b      	ldr	r3, [r1, #0]
10000ac2:	429a      	cmp	r2, r3
10000ac4:	d8f9      	bhi.n	10000aba <timer_pool_entry_comparator+0x22>
10000ac6:	e7f7      	b.n	10000ab8 <timer_pool_entry_comparator+0x20>
10000ac8:	0fffffff 	.word	0x0fffffff

10000acc <sleep_until_callback>:
10000acc:	4b0a      	ldr	r3, [pc, #40]	; (10000af8 <sleep_until_callback+0x2c>)
10000ace:	6819      	ldr	r1, [r3, #0]
10000ad0:	f3ef 8010 	mrs	r0, PRIMASK
10000ad4:	b672      	cpsid	i
10000ad6:	680a      	ldr	r2, [r1, #0]
10000ad8:	2a00      	cmp	r2, #0
10000ada:	d0fc      	beq.n	10000ad6 <sleep_until_callback+0xa>
10000adc:	f3bf 8f5f 	dmb	sy
10000ae0:	681b      	ldr	r3, [r3, #0]
10000ae2:	f3bf 8f5f 	dmb	sy
10000ae6:	2200      	movs	r2, #0
10000ae8:	601a      	str	r2, [r3, #0]
10000aea:	f380 8810 	msr	PRIMASK, r0
10000aee:	bf40      	sev
10000af0:	2000      	movs	r0, #0
10000af2:	2100      	movs	r1, #0
10000af4:	4770      	bx	lr
10000af6:	46c0      	nop			; (mov r8, r8)
10000af8:	20000a30 	.word	0x20000a30

10000afc <alarm_pool_add_alarm_at.constprop.0>:
10000afc:	b5f8      	push	{r3, r4, r5, r6, r7, lr}
10000afe:	4657      	mov	r7, sl
10000b00:	464e      	mov	r6, r9
10000b02:	4645      	mov	r5, r8
10000b04:	46de      	mov	lr, fp
10000b06:	b5e0      	push	{r5, r6, r7, lr}
10000b08:	4d43      	ldr	r5, [pc, #268]	; (10000c18 <alarm_pool_add_alarm_at.constprop.0+0x11c>)
10000b0a:	4681      	mov	r9, r0
10000b0c:	468a      	mov	sl, r1
10000b0e:	686a      	ldr	r2, [r5, #4]
10000b10:	f3ef 8810 	mrs	r8, PRIMASK
10000b14:	b672      	cpsid	i
10000b16:	6813      	ldr	r3, [r2, #0]
10000b18:	2b00      	cmp	r3, #0
10000b1a:	d0fc      	beq.n	10000b16 <alarm_pool_add_alarm_at.constprop.0+0x1a>
10000b1c:	f3bf 8f5f 	dmb	sy
10000b20:	682e      	ldr	r6, [r5, #0]
10000b22:	7bb4      	ldrb	r4, [r6, #14]
10000b24:	2c00      	cmp	r4, #0
10000b26:	d03e      	beq.n	10000ba6 <alarm_pool_add_alarm_at.constprop.0+0xaa>
10000b28:	0067      	lsls	r7, r4, #1
10000b2a:	6833      	ldr	r3, [r6, #0]
10000b2c:	193f      	adds	r7, r7, r4
10000b2e:	3f03      	subs	r7, #3
10000b30:	19da      	adds	r2, r3, r7
10000b32:	7853      	ldrb	r3, [r2, #1]
10000b34:	73b3      	strb	r3, [r6, #14]
10000b36:	2b00      	cmp	r3, #0
10000b38:	d100      	bne.n	10000b3c <alarm_pool_add_alarm_at.constprop.0+0x40>
10000b3a:	73f3      	strb	r3, [r6, #15]
10000b3c:	2300      	movs	r3, #0
10000b3e:	7093      	strb	r3, [r2, #2]
10000b40:	7053      	strb	r3, [r2, #1]
10000b42:	7013      	strb	r3, [r2, #0]
10000b44:	68a9      	ldr	r1, [r5, #8]
10000b46:	4a35      	ldr	r2, [pc, #212]	; (10000c1c <alarm_pool_add_alarm_at.constprop.0+0x120>)
10000b48:	468c      	mov	ip, r1
10000b4a:	4649      	mov	r1, r9
10000b4c:	18a2      	adds	r2, r4, r2
10000b4e:	0112      	lsls	r2, r2, #4
10000b50:	4462      	add	r2, ip
10000b52:	6011      	str	r1, [r2, #0]
10000b54:	4651      	mov	r1, sl
10000b56:	6051      	str	r1, [r2, #4]
10000b58:	4931      	ldr	r1, [pc, #196]	; (10000c20 <alarm_pool_add_alarm_at.constprop.0+0x124>)
10000b5a:	60d3      	str	r3, [r2, #12]
10000b5c:	6091      	str	r1, [r2, #8]
10000b5e:	6832      	ldr	r2, [r6, #0]
10000b60:	19d2      	adds	r2, r2, r7
10000b62:	7093      	strb	r3, [r2, #2]
10000b64:	7053      	strb	r3, [r2, #1]
10000b66:	7013      	strb	r3, [r2, #0]
10000b68:	7b73      	ldrb	r3, [r6, #13]
10000b6a:	469b      	mov	fp, r3
10000b6c:	2b00      	cmp	r3, #0
10000b6e:	d035      	beq.n	10000bdc <alarm_pool_add_alarm_at.constprop.0+0xe0>
10000b70:	0022      	movs	r2, r4
10000b72:	0019      	movs	r1, r3
10000b74:	68b0      	ldr	r0, [r6, #8]
10000b76:	6873      	ldr	r3, [r6, #4]
10000b78:	4798      	blx	r3
10000b7a:	6832      	ldr	r2, [r6, #0]
10000b7c:	2800      	cmp	r0, #0
10000b7e:	d020      	beq.n	10000bc2 <alarm_pool_add_alarm_at.constprop.0+0xc6>
10000b80:	465b      	mov	r3, fp
10000b82:	4658      	mov	r0, fp
10000b84:	005b      	lsls	r3, r3, #1
10000b86:	445b      	add	r3, fp
10000b88:	19d7      	adds	r7, r2, r7
10000b8a:	3b03      	subs	r3, #3
10000b8c:	70b8      	strb	r0, [r7, #2]
10000b8e:	18d1      	adds	r1, r2, r3
10000b90:	5cd3      	ldrb	r3, [r2, r3]
10000b92:	2b00      	cmp	r3, #0
10000b94:	d000      	beq.n	10000b98 <alarm_pool_add_alarm_at.constprop.0+0x9c>
10000b96:	707b      	strb	r3, [r7, #1]
10000b98:	465b      	mov	r3, fp
10000b9a:	700c      	strb	r4, [r1, #0]
10000b9c:	7373      	strb	r3, [r6, #13]
10000b9e:	455c      	cmp	r4, fp
10000ba0:	d01d      	beq.n	10000bde <alarm_pool_add_alarm_at.constprop.0+0xe2>
10000ba2:	2600      	movs	r6, #0
10000ba4:	e026      	b.n	10000bf4 <alarm_pool_add_alarm_at.constprop.0+0xf8>
10000ba6:	686b      	ldr	r3, [r5, #4]
10000ba8:	f3bf 8f5f 	dmb	sy
10000bac:	601c      	str	r4, [r3, #0]
10000bae:	f388 8810 	msr	PRIMASK, r8
10000bb2:	2001      	movs	r0, #1
10000bb4:	4240      	negs	r0, r0
10000bb6:	bc3c      	pop	{r2, r3, r4, r5}
10000bb8:	4690      	mov	r8, r2
10000bba:	4699      	mov	r9, r3
10000bbc:	46a2      	mov	sl, r4
10000bbe:	46ab      	mov	fp, r5
10000bc0:	bdf8      	pop	{r3, r4, r5, r6, r7, pc}
10000bc2:	465b      	mov	r3, fp
10000bc4:	005b      	lsls	r3, r3, #1
10000bc6:	445b      	add	r3, fp
10000bc8:	3b03      	subs	r3, #3
10000bca:	18d3      	adds	r3, r2, r3
10000bcc:	709c      	strb	r4, [r3, #2]
10000bce:	19d1      	adds	r1, r2, r7
10000bd0:	5dd2      	ldrb	r2, [r2, r7]
10000bd2:	2a00      	cmp	r2, #0
10000bd4:	d000      	beq.n	10000bd8 <alarm_pool_add_alarm_at.constprop.0+0xdc>
10000bd6:	705a      	strb	r2, [r3, #1]
10000bd8:	465b      	mov	r3, fp
10000bda:	700b      	strb	r3, [r1, #0]
10000bdc:	7374      	strb	r4, [r6, #13]
10000bde:	464a      	mov	r2, r9
10000be0:	4653      	mov	r3, sl
10000be2:	7d28      	ldrb	r0, [r5, #20]
10000be4:	f000 fbde 	bl	100013a4 <hardware_alarm_set_target>
10000be8:	1e06      	subs	r6, r0, #0
10000bea:	d0da      	beq.n	10000ba2 <alarm_pool_add_alarm_at.constprop.0+0xa6>
10000bec:	0021      	movs	r1, r4
10000bee:	6828      	ldr	r0, [r5, #0]
10000bf0:	f000 fe50 	bl	10001894 <ph_remove_and_free_node>
10000bf4:	68eb      	ldr	r3, [r5, #12]
10000bf6:	686a      	ldr	r2, [r5, #4]
10000bf8:	191b      	adds	r3, r3, r4
10000bfa:	3b01      	subs	r3, #1
10000bfc:	781b      	ldrb	r3, [r3, #0]
10000bfe:	f3bf 8f5f 	dmb	sy
10000c02:	2100      	movs	r1, #0
10000c04:	6011      	str	r1, [r2, #0]
10000c06:	f388 8810 	msr	PRIMASK, r8
10000c0a:	2000      	movs	r0, #0
10000c0c:	2e00      	cmp	r6, #0
10000c0e:	d1d2      	bne.n	10000bb6 <alarm_pool_add_alarm_at.constprop.0+0xba>
10000c10:	0218      	lsls	r0, r3, #8
10000c12:	4320      	orrs	r0, r4
10000c14:	e7cf      	b.n	10000bb6 <alarm_pool_add_alarm_at.constprop.0+0xba>
10000c16:	46c0      	nop			; (mov r8, r8)
10000c18:	2000026c 	.word	0x2000026c
10000c1c:	0fffffff 	.word	0x0fffffff
10000c20:	10000acd 	.word	0x10000acd

10000c24 <add_alarm_under_lock>:
10000c24:	b5f8      	push	{r3, r4, r5, r6, r7, lr}
10000c26:	4657      	mov	r7, sl
10000c28:	4645      	mov	r5, r8
10000c2a:	464e      	mov	r6, r9
10000c2c:	46de      	mov	lr, fp
10000c2e:	b5e0      	push	{r5, r6, r7, lr}
10000c30:	4699      	mov	r9, r3
10000c32:	ab0c      	add	r3, sp, #48	; 0x30
10000c34:	7819      	ldrb	r1, [r3, #0]
10000c36:	ab0d      	add	r3, sp, #52	; 0x34
10000c38:	781b      	ldrb	r3, [r3, #0]
10000c3a:	0005      	movs	r5, r0
10000c3c:	4690      	mov	r8, r2
10000c3e:	469a      	mov	sl, r3
10000c40:	6807      	ldr	r7, [r0, #0]
10000c42:	2900      	cmp	r1, #0
10000c44:	d112      	bne.n	10000c6c <add_alarm_under_lock+0x48>
10000c46:	7bbe      	ldrb	r6, [r7, #14]
10000c48:	2e00      	cmp	r6, #0
10000c4a:	d045      	beq.n	10000cd8 <add_alarm_under_lock+0xb4>
10000c4c:	0074      	lsls	r4, r6, #1
10000c4e:	683b      	ldr	r3, [r7, #0]
10000c50:	19a4      	adds	r4, r4, r6
10000c52:	3c03      	subs	r4, #3
10000c54:	191b      	adds	r3, r3, r4
10000c56:	785a      	ldrb	r2, [r3, #1]
10000c58:	0031      	movs	r1, r6
10000c5a:	73ba      	strb	r2, [r7, #14]
10000c5c:	2a00      	cmp	r2, #0
10000c5e:	d100      	bne.n	10000c62 <add_alarm_under_lock+0x3e>
10000c60:	73fa      	strb	r2, [r7, #15]
10000c62:	2200      	movs	r2, #0
10000c64:	709a      	strb	r2, [r3, #2]
10000c66:	705a      	strb	r2, [r3, #1]
10000c68:	701a      	strb	r2, [r3, #0]
10000c6a:	e003      	b.n	10000c74 <add_alarm_under_lock+0x50>
10000c6c:	000e      	movs	r6, r1
10000c6e:	004c      	lsls	r4, r1, #1
10000c70:	1864      	adds	r4, r4, r1
10000c72:	3c03      	subs	r4, #3
10000c74:	4b2c      	ldr	r3, [pc, #176]	; (10000d28 <add_alarm_under_lock+0x104>)
10000c76:	2200      	movs	r2, #0
10000c78:	469c      	mov	ip, r3
10000c7a:	68ab      	ldr	r3, [r5, #8]
10000c7c:	4461      	add	r1, ip
10000c7e:	469c      	mov	ip, r3
10000c80:	4643      	mov	r3, r8
10000c82:	0109      	lsls	r1, r1, #4
10000c84:	4461      	add	r1, ip
10000c86:	600b      	str	r3, [r1, #0]
10000c88:	464b      	mov	r3, r9
10000c8a:	604b      	str	r3, [r1, #4]
10000c8c:	9b0a      	ldr	r3, [sp, #40]	; 0x28
10000c8e:	608b      	str	r3, [r1, #8]
10000c90:	9b0b      	ldr	r3, [sp, #44]	; 0x2c
10000c92:	60cb      	str	r3, [r1, #12]
10000c94:	683b      	ldr	r3, [r7, #0]
10000c96:	191b      	adds	r3, r3, r4
10000c98:	709a      	strb	r2, [r3, #2]
10000c9a:	705a      	strb	r2, [r3, #1]
10000c9c:	701a      	strb	r2, [r3, #0]
10000c9e:	7b7b      	ldrb	r3, [r7, #13]
10000ca0:	469b      	mov	fp, r3
10000ca2:	2b00      	cmp	r3, #0
10000ca4:	d02c      	beq.n	10000d00 <add_alarm_under_lock+0xdc>
10000ca6:	0032      	movs	r2, r6
10000ca8:	4659      	mov	r1, fp
10000caa:	68b8      	ldr	r0, [r7, #8]
10000cac:	687b      	ldr	r3, [r7, #4]
10000cae:	4798      	blx	r3
10000cb0:	683a      	ldr	r2, [r7, #0]
10000cb2:	2800      	cmp	r0, #0
10000cb4:	d017      	beq.n	10000ce6 <add_alarm_under_lock+0xc2>
10000cb6:	465b      	mov	r3, fp
10000cb8:	4658      	mov	r0, fp
10000cba:	005b      	lsls	r3, r3, #1
10000cbc:	445b      	add	r3, fp
10000cbe:	1914      	adds	r4, r2, r4
10000cc0:	3b03      	subs	r3, #3
10000cc2:	70a0      	strb	r0, [r4, #2]
10000cc4:	18d1      	adds	r1, r2, r3
10000cc6:	5cd3      	ldrb	r3, [r2, r3]
10000cc8:	2b00      	cmp	r3, #0
10000cca:	d000      	beq.n	10000cce <add_alarm_under_lock+0xaa>
10000ccc:	7063      	strb	r3, [r4, #1]
10000cce:	465b      	mov	r3, fp
10000cd0:	700e      	strb	r6, [r1, #0]
10000cd2:	737b      	strb	r3, [r7, #13]
10000cd4:	45b3      	cmp	fp, r6
10000cd6:	d014      	beq.n	10000d02 <add_alarm_under_lock+0xde>
10000cd8:	0030      	movs	r0, r6
10000cda:	bc3c      	pop	{r2, r3, r4, r5}
10000cdc:	4690      	mov	r8, r2
10000cde:	4699      	mov	r9, r3
10000ce0:	46a2      	mov	sl, r4
10000ce2:	46ab      	mov	fp, r5
10000ce4:	bdf8      	pop	{r3, r4, r5, r6, r7, pc}
10000ce6:	465b      	mov	r3, fp
10000ce8:	005b      	lsls	r3, r3, #1
10000cea:	445b      	add	r3, fp
10000cec:	3b03      	subs	r3, #3
10000cee:	18d3      	adds	r3, r2, r3
10000cf0:	709e      	strb	r6, [r3, #2]
10000cf2:	1911      	adds	r1, r2, r4
10000cf4:	5d12      	ldrb	r2, [r2, r4]
10000cf6:	2a00      	cmp	r2, #0
10000cf8:	d000      	beq.n	10000cfc <add_alarm_under_lock+0xd8>
10000cfa:	705a      	strb	r2, [r3, #1]
10000cfc:	465b      	mov	r3, fp
10000cfe:	700b      	strb	r3, [r1, #0]
10000d00:	737e      	strb	r6, [r7, #13]
10000d02:	4642      	mov	r2, r8
10000d04:	464b      	mov	r3, r9
10000d06:	7d28      	ldrb	r0, [r5, #20]
10000d08:	f000 fb4c 	bl	100013a4 <hardware_alarm_set_target>
10000d0c:	1e04      	subs	r4, r0, #0
10000d0e:	d006      	beq.n	10000d1e <add_alarm_under_lock+0xfa>
10000d10:	4653      	mov	r3, sl
10000d12:	2b00      	cmp	r3, #0
10000d14:	d103      	bne.n	10000d1e <add_alarm_under_lock+0xfa>
10000d16:	0031      	movs	r1, r6
10000d18:	6828      	ldr	r0, [r5, #0]
10000d1a:	f000 fdbb 	bl	10001894 <ph_remove_and_free_node>
10000d1e:	9b0e      	ldr	r3, [sp, #56]	; 0x38
10000d20:	2b00      	cmp	r3, #0
10000d22:	d0d9      	beq.n	10000cd8 <add_alarm_under_lock+0xb4>
10000d24:	701c      	strb	r4, [r3, #0]
10000d26:	e7d7      	b.n	10000cd8 <add_alarm_under_lock+0xb4>
10000d28:	0fffffff 	.word	0x0fffffff

10000d2c <alarm_pool_alarm_callback>:
10000d2c:	b5f0      	push	{r4, r5, r6, r7, lr}
10000d2e:	46de      	mov	lr, fp
10000d30:	464e      	mov	r6, r9
10000d32:	4657      	mov	r7, sl
10000d34:	4645      	mov	r5, r8
10000d36:	2300      	movs	r3, #0
10000d38:	b5e0      	push	{r5, r6, r7, lr}
10000d3a:	b08d      	sub	sp, #52	; 0x34
10000d3c:	930a      	str	r3, [sp, #40]	; 0x28
10000d3e:	4b6b      	ldr	r3, [pc, #428]	; (10000eec <alarm_pool_alarm_callback+0x1c0>)
10000d40:	0082      	lsls	r2, r0, #2
10000d42:	58d3      	ldr	r3, [r2, r3]
10000d44:	900b      	str	r0, [sp, #44]	; 0x2c
10000d46:	4699      	mov	r9, r3
10000d48:	2300      	movs	r3, #0
10000d4a:	469b      	mov	fp, r3
10000d4c:	464b      	mov	r3, r9
10000d4e:	9307      	str	r3, [sp, #28]
10000d50:	f000 faae 	bl	100012b0 <time_us_64>
10000d54:	9c07      	ldr	r4, [sp, #28]
10000d56:	0006      	movs	r6, r0
10000d58:	000f      	movs	r7, r1
10000d5a:	6862      	ldr	r2, [r4, #4]
10000d5c:	f3ef 8510 	mrs	r5, PRIMASK
10000d60:	b672      	cpsid	i
10000d62:	6813      	ldr	r3, [r2, #0]
10000d64:	2b00      	cmp	r3, #0
10000d66:	d0fc      	beq.n	10000d62 <alarm_pool_alarm_callback+0x36>
10000d68:	0022      	movs	r2, r4
10000d6a:	9407      	str	r4, [sp, #28]
10000d6c:	f3bf 8f5f 	dmb	sy
10000d70:	6824      	ldr	r4, [r4, #0]
10000d72:	7b63      	ldrb	r3, [r4, #13]
10000d74:	4699      	mov	r9, r3
10000d76:	2b00      	cmp	r3, #0
10000d78:	d067      	beq.n	10000e4a <alarm_pool_alarm_callback+0x11e>
10000d7a:	6892      	ldr	r2, [r2, #8]
10000d7c:	4b5c      	ldr	r3, [pc, #368]	; (10000ef0 <alarm_pool_alarm_callback+0x1c4>)
10000d7e:	4690      	mov	r8, r2
10000d80:	444b      	add	r3, r9
10000d82:	011b      	lsls	r3, r3, #4
10000d84:	4498      	add	r8, r3
10000d86:	4643      	mov	r3, r8
10000d88:	681a      	ldr	r2, [r3, #0]
10000d8a:	685b      	ldr	r3, [r3, #4]
10000d8c:	0010      	movs	r0, r2
10000d8e:	0019      	movs	r1, r3
10000d90:	1b80      	subs	r0, r0, r6
10000d92:	41b9      	sbcs	r1, r7
10000d94:	2900      	cmp	r1, #0
10000d96:	dd5f      	ble.n	10000e58 <alarm_pool_alarm_callback+0x12c>
10000d98:	980b      	ldr	r0, [sp, #44]	; 0x2c
10000d9a:	f000 fb03 	bl	100013a4 <hardware_alarm_set_target>
10000d9e:	2300      	movs	r3, #0
10000da0:	2600      	movs	r6, #0
10000da2:	4698      	mov	r8, r3
10000da4:	2700      	movs	r7, #0
10000da6:	469a      	mov	sl, r3
10000da8:	9c07      	ldr	r4, [sp, #28]
10000daa:	6863      	ldr	r3, [r4, #4]
10000dac:	f3bf 8f5f 	dmb	sy
10000db0:	465a      	mov	r2, fp
10000db2:	601a      	str	r2, [r3, #0]
10000db4:	f385 8810 	msr	PRIMASK, r5
10000db8:	4653      	mov	r3, sl
10000dba:	2b00      	cmp	r3, #0
10000dbc:	d108      	bne.n	10000dd0 <alarm_pool_alarm_callback+0xa4>
10000dbe:	2800      	cmp	r0, #0
10000dc0:	d1c6      	bne.n	10000d50 <alarm_pool_alarm_callback+0x24>
10000dc2:	b00d      	add	sp, #52	; 0x34
10000dc4:	bc3c      	pop	{r2, r3, r4, r5}
10000dc6:	4690      	mov	r8, r2
10000dc8:	4699      	mov	r9, r3
10000dca:	46a2      	mov	sl, r4
10000dcc:	46ab      	mov	fp, r5
10000dce:	bdf0      	pop	{r4, r5, r6, r7, pc}
10000dd0:	9b0a      	ldr	r3, [sp, #40]	; 0x28
10000dd2:	4641      	mov	r1, r8
10000dd4:	0218      	lsls	r0, r3, #8
10000dd6:	464b      	mov	r3, r9
10000dd8:	4318      	orrs	r0, r3
10000dda:	47d0      	blx	sl
10000ddc:	9008      	str	r0, [sp, #32]
10000dde:	9109      	str	r1, [sp, #36]	; 0x24
10000de0:	6862      	ldr	r2, [r4, #4]
10000de2:	f3ef 8510 	mrs	r5, PRIMASK
10000de6:	b672      	cpsid	i
10000de8:	6813      	ldr	r3, [r2, #0]
10000dea:	2b00      	cmp	r3, #0
10000dec:	d0fc      	beq.n	10000de8 <alarm_pool_alarm_callback+0xbc>
10000dee:	9407      	str	r4, [sp, #28]
10000df0:	f3bf 8f5f 	dmb	sy
10000df4:	9908      	ldr	r1, [sp, #32]
10000df6:	9a09      	ldr	r2, [sp, #36]	; 0x24
10000df8:	2a00      	cmp	r2, #0
10000dfa:	db48      	blt.n	10000e8e <alarm_pool_alarm_callback+0x162>
10000dfc:	4311      	orrs	r1, r2
10000dfe:	d003      	beq.n	10000e08 <alarm_pool_alarm_callback+0xdc>
10000e00:	9b07      	ldr	r3, [sp, #28]
10000e02:	691b      	ldr	r3, [r3, #16]
10000e04:	2b00      	cmp	r3, #0
10000e06:	d15d      	bne.n	10000ec4 <alarm_pool_alarm_callback+0x198>
10000e08:	9b07      	ldr	r3, [sp, #28]
10000e0a:	681b      	ldr	r3, [r3, #0]
10000e0c:	7bda      	ldrb	r2, [r3, #15]
10000e0e:	2a00      	cmp	r2, #0
10000e10:	d007      	beq.n	10000e22 <alarm_pool_alarm_callback+0xf6>
10000e12:	0051      	lsls	r1, r2, #1
10000e14:	188a      	adds	r2, r1, r2
10000e16:	6819      	ldr	r1, [r3, #0]
10000e18:	468c      	mov	ip, r1
10000e1a:	4649      	mov	r1, r9
10000e1c:	4462      	add	r2, ip
10000e1e:	3a03      	subs	r2, #3
10000e20:	7051      	strb	r1, [r2, #1]
10000e22:	464a      	mov	r2, r9
10000e24:	73da      	strb	r2, [r3, #15]
10000e26:	464b      	mov	r3, r9
10000e28:	9a07      	ldr	r2, [sp, #28]
10000e2a:	3b01      	subs	r3, #1
10000e2c:	68d1      	ldr	r1, [r2, #12]
10000e2e:	5cca      	ldrb	r2, [r1, r3]
10000e30:	3201      	adds	r2, #1
10000e32:	54ca      	strb	r2, [r1, r3]
10000e34:	465b      	mov	r3, fp
10000e36:	9a07      	ldr	r2, [sp, #28]
10000e38:	6113      	str	r3, [r2, #16]
10000e3a:	6853      	ldr	r3, [r2, #4]
10000e3c:	f3bf 8f5f 	dmb	sy
10000e40:	465a      	mov	r2, fp
10000e42:	601a      	str	r2, [r3, #0]
10000e44:	f385 8810 	msr	PRIMASK, r5
10000e48:	e782      	b.n	10000d50 <alarm_pool_alarm_callback+0x24>
10000e4a:	2300      	movs	r3, #0
10000e4c:	2600      	movs	r6, #0
10000e4e:	4698      	mov	r8, r3
10000e50:	2700      	movs	r7, #0
10000e52:	469a      	mov	sl, r3
10000e54:	2000      	movs	r0, #0
10000e56:	e7a7      	b.n	10000da8 <alarm_pool_alarm_callback+0x7c>
10000e58:	2900      	cmp	r1, #0
10000e5a:	d101      	bne.n	10000e60 <alarm_pool_alarm_callback+0x134>
10000e5c:	2800      	cmp	r0, #0
10000e5e:	d19b      	bne.n	10000d98 <alarm_pool_alarm_callback+0x6c>
10000e60:	2100      	movs	r1, #0
10000e62:	0020      	movs	r0, r4
10000e64:	f000 fc78 	bl	10001758 <ph_remove_head>
10000e68:	4643      	mov	r3, r8
10000e6a:	681e      	ldr	r6, [r3, #0]
10000e6c:	685f      	ldr	r7, [r3, #4]
10000e6e:	689b      	ldr	r3, [r3, #8]
10000e70:	9a07      	ldr	r2, [sp, #28]
10000e72:	469a      	mov	sl, r3
10000e74:	4643      	mov	r3, r8
10000e76:	68db      	ldr	r3, [r3, #12]
10000e78:	4698      	mov	r8, r3
10000e7a:	68d3      	ldr	r3, [r2, #12]
10000e7c:	444b      	add	r3, r9
10000e7e:	3b01      	subs	r3, #1
10000e80:	781b      	ldrb	r3, [r3, #0]
10000e82:	930a      	str	r3, [sp, #40]	; 0x28
10000e84:	021b      	lsls	r3, r3, #8
10000e86:	4303      	orrs	r3, r0
10000e88:	6113      	str	r3, [r2, #16]
10000e8a:	2000      	movs	r0, #0
10000e8c:	e78c      	b.n	10000da8 <alarm_pool_alarm_callback+0x7c>
10000e8e:	6923      	ldr	r3, [r4, #16]
10000e90:	2b00      	cmp	r3, #0
10000e92:	d0b9      	beq.n	10000e08 <alarm_pool_alarm_callback+0xdc>
10000e94:	0033      	movs	r3, r6
10000e96:	003c      	movs	r4, r7
10000e98:	1a5b      	subs	r3, r3, r1
10000e9a:	4194      	sbcs	r4, r2
10000e9c:	001a      	movs	r2, r3
10000e9e:	0023      	movs	r3, r4
10000ea0:	42a7      	cmp	r7, r4
10000ea2:	d819      	bhi.n	10000ed8 <alarm_pool_alarm_callback+0x1ac>
10000ea4:	429f      	cmp	r7, r3
10000ea6:	d01b      	beq.n	10000ee0 <alarm_pool_alarm_callback+0x1b4>
10000ea8:	4659      	mov	r1, fp
10000eaa:	9104      	str	r1, [sp, #16]
10000eac:	2101      	movs	r1, #1
10000eae:	9103      	str	r1, [sp, #12]
10000eb0:	4649      	mov	r1, r9
10000eb2:	9102      	str	r1, [sp, #8]
10000eb4:	4641      	mov	r1, r8
10000eb6:	9101      	str	r1, [sp, #4]
10000eb8:	4651      	mov	r1, sl
10000eba:	9807      	ldr	r0, [sp, #28]
10000ebc:	9100      	str	r1, [sp, #0]
10000ebe:	f7ff feb1 	bl	10000c24 <add_alarm_under_lock>
10000ec2:	e7b7      	b.n	10000e34 <alarm_pool_alarm_callback+0x108>
10000ec4:	f000 f9f4 	bl	100012b0 <time_us_64>
10000ec8:	9a08      	ldr	r2, [sp, #32]
10000eca:	9b09      	ldr	r3, [sp, #36]	; 0x24
10000ecc:	0006      	movs	r6, r0
10000ece:	000f      	movs	r7, r1
10000ed0:	1992      	adds	r2, r2, r6
10000ed2:	417b      	adcs	r3, r7
10000ed4:	4299      	cmp	r1, r3
10000ed6:	d9e5      	bls.n	10000ea4 <alarm_pool_alarm_callback+0x178>
10000ed8:	2201      	movs	r2, #1
10000eda:	4252      	negs	r2, r2
10000edc:	17d3      	asrs	r3, r2, #31
10000ede:	e7e3      	b.n	10000ea8 <alarm_pool_alarm_callback+0x17c>
10000ee0:	4296      	cmp	r6, r2
10000ee2:	d9e1      	bls.n	10000ea8 <alarm_pool_alarm_callback+0x17c>
10000ee4:	2201      	movs	r2, #1
10000ee6:	4252      	negs	r2, r2
10000ee8:	17d3      	asrs	r3, r2, #31
10000eea:	e7dd      	b.n	10000ea8 <alarm_pool_alarm_callback+0x17c>
10000eec:	20000a1c 	.word	0x20000a1c
10000ef0:	0fffffff 	.word	0x0fffffff

10000ef4 <alarm_pool_init_default>:
10000ef4:	b510      	push	{r4, lr}
10000ef6:	4c12      	ldr	r4, [pc, #72]	; (10000f40 <alarm_pool_init_default+0x4c>)
10000ef8:	6863      	ldr	r3, [r4, #4]
10000efa:	2b00      	cmp	r3, #0
10000efc:	d004      	beq.n	10000f08 <alarm_pool_init_default+0x14>
10000efe:	210a      	movs	r1, #10
10000f00:	4810      	ldr	r0, [pc, #64]	; (10000f44 <alarm_pool_init_default+0x50>)
10000f02:	f000 fae1 	bl	100014c8 <lock_init>
10000f06:	bd10      	pop	{r4, pc}
10000f08:	0023      	movs	r3, r4
10000f0a:	4a0f      	ldr	r2, [pc, #60]	; (10000f48 <alarm_pool_init_default+0x54>)
10000f0c:	2110      	movs	r1, #16
10000f0e:	6820      	ldr	r0, [r4, #0]
10000f10:	f000 fb40 	bl	10001594 <ph_post_alloc_init>
10000f14:	2003      	movs	r0, #3
10000f16:	f000 f9bf 	bl	10001298 <hardware_alarm_claim>
10000f1a:	2003      	movs	r0, #3
10000f1c:	f000 fab4 	bl	10001488 <hardware_alarm_cancel>
10000f20:	2003      	movs	r0, #3
10000f22:	490a      	ldr	r1, [pc, #40]	; (10000f4c <alarm_pool_init_default+0x58>)
10000f24:	f000 f9f8 	bl	10001318 <hardware_alarm_set_callback>
10000f28:	f7ff fd28 	bl	1000097c <next_striped_spin_lock_num>
10000f2c:	4b08      	ldr	r3, [pc, #32]	; (10000f50 <alarm_pool_init_default+0x5c>)
10000f2e:	469c      	mov	ip, r3
10000f30:	2303      	movs	r3, #3
10000f32:	4460      	add	r0, ip
10000f34:	7523      	strb	r3, [r4, #20]
10000f36:	4b07      	ldr	r3, [pc, #28]	; (10000f54 <alarm_pool_init_default+0x60>)
10000f38:	0080      	lsls	r0, r0, #2
10000f3a:	6060      	str	r0, [r4, #4]
10000f3c:	60dc      	str	r4, [r3, #12]
10000f3e:	e7de      	b.n	10000efe <alarm_pool_init_default+0xa>
10000f40:	2000026c 	.word	0x2000026c
10000f44:	20000a30 	.word	0x20000a30
10000f48:	10000a99 	.word	0x10000a99
10000f4c:	10000d2d 	.word	0x10000d2d
10000f50:	34000040 	.word	0x34000040
10000f54:	20000a1c 	.word	0x20000a1c

10000f58 <alarm_pool_get_default>:
10000f58:	4800      	ldr	r0, [pc, #0]	; (10000f5c <alarm_pool_get_default+0x4>)
10000f5a:	4770      	bx	lr
10000f5c:	2000026c 	.word	0x2000026c

10000f60 <alarm_pool_add_alarm_at>:
10000f60:	b5f0      	push	{r4, r5, r6, r7, lr}
10000f62:	4657      	mov	r7, sl
10000f64:	4645      	mov	r5, r8
10000f66:	46de      	mov	lr, fp
10000f68:	464e      	mov	r6, r9
10000f6a:	b5e0      	push	{r5, r6, r7, lr}
10000f6c:	b085      	sub	sp, #20
10000f6e:	9301      	str	r3, [sp, #4]
10000f70:	ab10      	add	r3, sp, #64	; 0x40
10000f72:	781b      	ldrb	r3, [r3, #0]
10000f74:	2700      	movs	r7, #0
10000f76:	9303      	str	r3, [sp, #12]
10000f78:	2300      	movs	r3, #0
10000f7a:	4680      	mov	r8, r0
10000f7c:	469a      	mov	sl, r3
10000f7e:	9200      	str	r2, [sp, #0]
10000f80:	4643      	mov	r3, r8
10000f82:	685a      	ldr	r2, [r3, #4]
10000f84:	f3ef 8910 	mrs	r9, PRIMASK
10000f88:	b672      	cpsid	i
10000f8a:	6813      	ldr	r3, [r2, #0]
10000f8c:	2b00      	cmp	r3, #0
10000f8e:	d0fc      	beq.n	10000f8a <alarm_pool_add_alarm_at+0x2a>
10000f90:	f3bf 8f5f 	dmb	sy
10000f94:	4643      	mov	r3, r8
10000f96:	681d      	ldr	r5, [r3, #0]
10000f98:	7bac      	ldrb	r4, [r5, #14]
10000f9a:	2c00      	cmp	r4, #0
10000f9c:	d04f      	beq.n	1000103e <alarm_pool_add_alarm_at+0xde>
10000f9e:	0066      	lsls	r6, r4, #1
10000fa0:	682b      	ldr	r3, [r5, #0]
10000fa2:	1936      	adds	r6, r6, r4
10000fa4:	3e03      	subs	r6, #3
10000fa6:	199b      	adds	r3, r3, r6
10000fa8:	785a      	ldrb	r2, [r3, #1]
10000faa:	73aa      	strb	r2, [r5, #14]
10000fac:	2a00      	cmp	r2, #0
10000fae:	d100      	bne.n	10000fb2 <alarm_pool_add_alarm_at+0x52>
10000fb0:	73ea      	strb	r2, [r5, #15]
10000fb2:	4642      	mov	r2, r8
10000fb4:	709f      	strb	r7, [r3, #2]
10000fb6:	705f      	strb	r7, [r3, #1]
10000fb8:	701f      	strb	r7, [r3, #0]
10000fba:	6892      	ldr	r2, [r2, #8]
10000fbc:	4b52      	ldr	r3, [pc, #328]	; (10001108 <alarm_pool_add_alarm_at+0x1a8>)
10000fbe:	4694      	mov	ip, r2
10000fc0:	9900      	ldr	r1, [sp, #0]
10000fc2:	9a01      	ldr	r2, [sp, #4]
10000fc4:	18e3      	adds	r3, r4, r3
10000fc6:	011b      	lsls	r3, r3, #4
10000fc8:	4463      	add	r3, ip
10000fca:	6019      	str	r1, [r3, #0]
10000fcc:	605a      	str	r2, [r3, #4]
10000fce:	9a0e      	ldr	r2, [sp, #56]	; 0x38
10000fd0:	609a      	str	r2, [r3, #8]
10000fd2:	9a0f      	ldr	r2, [sp, #60]	; 0x3c
10000fd4:	60da      	str	r2, [r3, #12]
10000fd6:	682b      	ldr	r3, [r5, #0]
10000fd8:	199b      	adds	r3, r3, r6
10000fda:	709f      	strb	r7, [r3, #2]
10000fdc:	705f      	strb	r7, [r3, #1]
10000fde:	701f      	strb	r7, [r3, #0]
10000fe0:	7b6b      	ldrb	r3, [r5, #13]
10000fe2:	469b      	mov	fp, r3
10000fe4:	2b00      	cmp	r3, #0
10000fe6:	d046      	beq.n	10001076 <alarm_pool_add_alarm_at+0x116>
10000fe8:	0022      	movs	r2, r4
10000fea:	0019      	movs	r1, r3
10000fec:	68a8      	ldr	r0, [r5, #8]
10000fee:	686b      	ldr	r3, [r5, #4]
10000ff0:	4798      	blx	r3
10000ff2:	682a      	ldr	r2, [r5, #0]
10000ff4:	2800      	cmp	r0, #0
10000ff6:	d031      	beq.n	1000105c <alarm_pool_add_alarm_at+0xfc>
10000ff8:	465b      	mov	r3, fp
10000ffa:	4658      	mov	r0, fp
10000ffc:	005b      	lsls	r3, r3, #1
10000ffe:	445b      	add	r3, fp
10001000:	1996      	adds	r6, r2, r6
10001002:	3b03      	subs	r3, #3
10001004:	70b0      	strb	r0, [r6, #2]
10001006:	18d1      	adds	r1, r2, r3
10001008:	5cd3      	ldrb	r3, [r2, r3]
1000100a:	2b00      	cmp	r3, #0
1000100c:	d000      	beq.n	10001010 <alarm_pool_add_alarm_at+0xb0>
1000100e:	7073      	strb	r3, [r6, #1]
10001010:	465b      	mov	r3, fp
10001012:	700c      	strb	r4, [r1, #0]
10001014:	736b      	strb	r3, [r5, #13]
10001016:	455c      	cmp	r4, fp
10001018:	d02e      	beq.n	10001078 <alarm_pool_add_alarm_at+0x118>
1000101a:	4643      	mov	r3, r8
1000101c:	68db      	ldr	r3, [r3, #12]
1000101e:	191b      	adds	r3, r3, r4
10001020:	3b01      	subs	r3, #1
10001022:	7818      	ldrb	r0, [r3, #0]
10001024:	4643      	mov	r3, r8
10001026:	685b      	ldr	r3, [r3, #4]
10001028:	f3bf 8f5f 	dmb	sy
1000102c:	601f      	str	r7, [r3, #0]
1000102e:	f389 8810 	msr	PRIMASK, r9
10001032:	4653      	mov	r3, sl
10001034:	2b00      	cmp	r3, #0
10001036:	d12e      	bne.n	10001096 <alarm_pool_add_alarm_at+0x136>
10001038:	0200      	lsls	r0, r0, #8
1000103a:	4320      	orrs	r0, r4
1000103c:	e007      	b.n	1000104e <alarm_pool_add_alarm_at+0xee>
1000103e:	685b      	ldr	r3, [r3, #4]
10001040:	f3bf 8f5f 	dmb	sy
10001044:	601c      	str	r4, [r3, #0]
10001046:	f389 8810 	msr	PRIMASK, r9
1000104a:	2001      	movs	r0, #1
1000104c:	4240      	negs	r0, r0
1000104e:	b005      	add	sp, #20
10001050:	bc3c      	pop	{r2, r3, r4, r5}
10001052:	4690      	mov	r8, r2
10001054:	4699      	mov	r9, r3
10001056:	46a2      	mov	sl, r4
10001058:	46ab      	mov	fp, r5
1000105a:	bdf0      	pop	{r4, r5, r6, r7, pc}
1000105c:	465b      	mov	r3, fp
1000105e:	005b      	lsls	r3, r3, #1
10001060:	445b      	add	r3, fp
10001062:	3b03      	subs	r3, #3
10001064:	18d3      	adds	r3, r2, r3
10001066:	709c      	strb	r4, [r3, #2]
10001068:	1991      	adds	r1, r2, r6
1000106a:	5d92      	ldrb	r2, [r2, r6]
1000106c:	2a00      	cmp	r2, #0
1000106e:	d000      	beq.n	10001072 <alarm_pool_add_alarm_at+0x112>
10001070:	705a      	strb	r2, [r3, #1]
10001072:	465b      	mov	r3, fp
10001074:	700b      	strb	r3, [r1, #0]
10001076:	736c      	strb	r4, [r5, #13]
10001078:	4643      	mov	r3, r8
1000107a:	7d18      	ldrb	r0, [r3, #20]
1000107c:	9a00      	ldr	r2, [sp, #0]
1000107e:	9b01      	ldr	r3, [sp, #4]
10001080:	f000 f990 	bl	100013a4 <hardware_alarm_set_target>
10001084:	4682      	mov	sl, r0
10001086:	2800      	cmp	r0, #0
10001088:	d0c7      	beq.n	1000101a <alarm_pool_add_alarm_at+0xba>
1000108a:	4643      	mov	r3, r8
1000108c:	0021      	movs	r1, r4
1000108e:	6818      	ldr	r0, [r3, #0]
10001090:	f000 fc00 	bl	10001894 <ph_remove_and_free_node>
10001094:	e7c1      	b.n	1000101a <alarm_pool_add_alarm_at+0xba>
10001096:	9b03      	ldr	r3, [sp, #12]
10001098:	2b00      	cmp	r3, #0
1000109a:	d032      	beq.n	10001102 <alarm_pool_add_alarm_at+0x1a2>
1000109c:	9b0e      	ldr	r3, [sp, #56]	; 0x38
1000109e:	2000      	movs	r0, #0
100010a0:	990f      	ldr	r1, [sp, #60]	; 0x3c
100010a2:	4798      	blx	r3
100010a4:	0003      	movs	r3, r0
100010a6:	0004      	movs	r4, r0
100010a8:	000d      	movs	r5, r1
100010aa:	430b      	orrs	r3, r1
100010ac:	d029      	beq.n	10001102 <alarm_pool_add_alarm_at+0x1a2>
100010ae:	2900      	cmp	r1, #0
100010b0:	da0d      	bge.n	100010ce <alarm_pool_add_alarm_at+0x16e>
100010b2:	9800      	ldr	r0, [sp, #0]
100010b4:	9901      	ldr	r1, [sp, #4]
100010b6:	0002      	movs	r2, r0
100010b8:	000b      	movs	r3, r1
100010ba:	1b12      	subs	r2, r2, r4
100010bc:	41ab      	sbcs	r3, r5
100010be:	4299      	cmp	r1, r3
100010c0:	d815      	bhi.n	100010ee <alarm_pool_add_alarm_at+0x18e>
100010c2:	d01a      	beq.n	100010fa <alarm_pool_add_alarm_at+0x19a>
100010c4:	9200      	str	r2, [sp, #0]
100010c6:	9301      	str	r3, [sp, #4]
100010c8:	9b03      	ldr	r3, [sp, #12]
100010ca:	469a      	mov	sl, r3
100010cc:	e758      	b.n	10000f80 <alarm_pool_add_alarm_at+0x20>
100010ce:	f000 f8ef 	bl	100012b0 <time_us_64>
100010d2:	0002      	movs	r2, r0
100010d4:	000b      	movs	r3, r1
100010d6:	18a4      	adds	r4, r4, r2
100010d8:	415d      	adcs	r5, r3
100010da:	0020      	movs	r0, r4
100010dc:	0029      	movs	r1, r5
100010de:	9000      	str	r0, [sp, #0]
100010e0:	9101      	str	r1, [sp, #4]
100010e2:	42ab      	cmp	r3, r5
100010e4:	d803      	bhi.n	100010ee <alarm_pool_add_alarm_at+0x18e>
100010e6:	d1ef      	bne.n	100010c8 <alarm_pool_add_alarm_at+0x168>
100010e8:	9900      	ldr	r1, [sp, #0]
100010ea:	428a      	cmp	r2, r1
100010ec:	d9ec      	bls.n	100010c8 <alarm_pool_add_alarm_at+0x168>
100010ee:	2301      	movs	r3, #1
100010f0:	425b      	negs	r3, r3
100010f2:	17dc      	asrs	r4, r3, #31
100010f4:	9300      	str	r3, [sp, #0]
100010f6:	9401      	str	r4, [sp, #4]
100010f8:	e7e6      	b.n	100010c8 <alarm_pool_add_alarm_at+0x168>
100010fa:	9900      	ldr	r1, [sp, #0]
100010fc:	4291      	cmp	r1, r2
100010fe:	d9e1      	bls.n	100010c4 <alarm_pool_add_alarm_at+0x164>
10001100:	e7f5      	b.n	100010ee <alarm_pool_add_alarm_at+0x18e>
10001102:	2000      	movs	r0, #0
10001104:	e7a3      	b.n	1000104e <alarm_pool_add_alarm_at+0xee>
10001106:	46c0      	nop			; (mov r8, r8)
10001108:	0fffffff 	.word	0x0fffffff

1000110c <best_effort_wfe_or_timeout>:
1000110c:	b5f8      	push	{r3, r4, r5, r6, r7, lr}
1000110e:	46ce      	mov	lr, r9
10001110:	4647      	mov	r7, r8
10001112:	b580      	push	{r7, lr}
10001114:	0006      	movs	r6, r0
10001116:	000c      	movs	r4, r1
10001118:	f7ff fcf0 	bl	10000afc <alarm_pool_add_alarm_at.constprop.0>
1000111c:	2800      	cmp	r0, #0
1000111e:	dc0c      	bgt.n	1000113a <best_effort_wfe_or_timeout+0x2e>
10001120:	4b2d      	ldr	r3, [pc, #180]	; (100011d8 <best_effort_wfe_or_timeout+0xcc>)
10001122:	2000      	movs	r0, #0
10001124:	6a59      	ldr	r1, [r3, #36]	; 0x24
10001126:	428c      	cmp	r4, r1
10001128:	d803      	bhi.n	10001132 <best_effort_wfe_or_timeout+0x26>
1000112a:	6a9b      	ldr	r3, [r3, #40]	; 0x28
1000112c:	3001      	adds	r0, #1
1000112e:	42b3      	cmp	r3, r6
10001130:	d345      	bcc.n	100011be <best_effort_wfe_or_timeout+0xb2>
10001132:	bc0c      	pop	{r2, r3}
10001134:	4690      	mov	r8, r2
10001136:	4699      	mov	r9, r3
10001138:	bdf8      	pop	{r3, r4, r5, r6, r7, pc}
1000113a:	bf20      	wfe
1000113c:	4d27      	ldr	r5, [pc, #156]	; (100011dc <best_effort_wfe_or_timeout+0xd0>)
1000113e:	686a      	ldr	r2, [r5, #4]
10001140:	f3ef 8710 	mrs	r7, PRIMASK
10001144:	b672      	cpsid	i
10001146:	6813      	ldr	r3, [r2, #0]
10001148:	2b00      	cmp	r3, #0
1000114a:	d0fc      	beq.n	10001146 <best_effort_wfe_or_timeout+0x3a>
1000114c:	f3bf 8f5f 	dmb	sy
10001150:	682b      	ldr	r3, [r5, #0]
10001152:	b2c1      	uxtb	r1, r0
10001154:	469c      	mov	ip, r3
10001156:	7b5b      	ldrb	r3, [r3, #13]
10001158:	428b      	cmp	r3, r1
1000115a:	d035      	beq.n	100011c8 <best_effort_wfe_or_timeout+0xbc>
1000115c:	23ff      	movs	r3, #255	; 0xff
1000115e:	4003      	ands	r3, r0
10001160:	005a      	lsls	r2, r3, #1
10001162:	4691      	mov	r9, r2
10001164:	4662      	mov	r2, ip
10001166:	6812      	ldr	r2, [r2, #0]
10001168:	4499      	add	r9, r3
1000116a:	4690      	mov	r8, r2
1000116c:	464a      	mov	r2, r9
1000116e:	4442      	add	r2, r8
10001170:	3a03      	subs	r2, #3
10001172:	7892      	ldrb	r2, [r2, #2]
10001174:	2a00      	cmp	r2, #0
10001176:	d01d      	beq.n	100011b4 <best_effort_wfe_or_timeout+0xa8>
10001178:	68ea      	ldr	r2, [r5, #12]
1000117a:	0a00      	lsrs	r0, r0, #8
1000117c:	4690      	mov	r8, r2
1000117e:	4443      	add	r3, r8
10001180:	3b01      	subs	r3, #1
10001182:	781b      	ldrb	r3, [r3, #0]
10001184:	b2c0      	uxtb	r0, r0
10001186:	4283      	cmp	r3, r0
10001188:	d021      	beq.n	100011ce <best_effort_wfe_or_timeout+0xc2>
1000118a:	686b      	ldr	r3, [r5, #4]
1000118c:	f3bf 8f5f 	dmb	sy
10001190:	2200      	movs	r2, #0
10001192:	601a      	str	r2, [r3, #0]
10001194:	f387 8810 	msr	PRIMASK, r7
10001198:	4a0f      	ldr	r2, [pc, #60]	; (100011d8 <best_effort_wfe_or_timeout+0xcc>)
1000119a:	2000      	movs	r0, #0
1000119c:	6a53      	ldr	r3, [r2, #36]	; 0x24
1000119e:	429c      	cmp	r4, r3
100011a0:	d8c7      	bhi.n	10001132 <best_effort_wfe_or_timeout+0x26>
100011a2:	6a92      	ldr	r2, [r2, #40]	; 0x28
100011a4:	3001      	adds	r0, #1
100011a6:	42b2      	cmp	r2, r6
100011a8:	d2c3      	bcs.n	10001132 <best_effort_wfe_or_timeout+0x26>
100011aa:	1ae4      	subs	r4, r4, r3
100011ac:	1e60      	subs	r0, r4, #1
100011ae:	4184      	sbcs	r4, r0
100011b0:	b2e0      	uxtb	r0, r4
100011b2:	e7be      	b.n	10001132 <best_effort_wfe_or_timeout+0x26>
100011b4:	692b      	ldr	r3, [r5, #16]
100011b6:	4298      	cmp	r0, r3
100011b8:	d1e7      	bne.n	1000118a <best_effort_wfe_or_timeout+0x7e>
100011ba:	612a      	str	r2, [r5, #16]
100011bc:	e7e5      	b.n	1000118a <best_effort_wfe_or_timeout+0x7e>
100011be:	1a64      	subs	r4, r4, r1
100011c0:	1e60      	subs	r0, r4, #1
100011c2:	4184      	sbcs	r4, r0
100011c4:	b2e0      	uxtb	r0, r4
100011c6:	e7b4      	b.n	10001132 <best_effort_wfe_or_timeout+0x26>
100011c8:	23ff      	movs	r3, #255	; 0xff
100011ca:	4003      	ands	r3, r0
100011cc:	e7d4      	b.n	10001178 <best_effort_wfe_or_timeout+0x6c>
100011ce:	4660      	mov	r0, ip
100011d0:	f000 fb60 	bl	10001894 <ph_remove_and_free_node>
100011d4:	e7d9      	b.n	1000118a <best_effort_wfe_or_timeout+0x7e>
100011d6:	46c0      	nop			; (mov r8, r8)
100011d8:	40054000 	.word	0x40054000
100011dc:	2000026c 	.word	0x2000026c

100011e0 <hardware_alarm_irq_handler>:
100011e0:	b5f0      	push	{r4, r5, r6, r7, lr}
100011e2:	46d6      	mov	lr, sl
100011e4:	464f      	mov	r7, r9
100011e6:	4646      	mov	r6, r8
100011e8:	b5c0      	push	{r6, r7, lr}
100011ea:	f3ef 8305 	mrs	r3, IPSR
100011ee:	223f      	movs	r2, #63	; 0x3f
100011f0:	4013      	ands	r3, r2
100011f2:	0018      	movs	r0, r3
100011f4:	3810      	subs	r0, #16
100011f6:	f3ef 8c10 	mrs	ip, PRIMASK
100011fa:	b672      	cpsid	i
100011fc:	4d20      	ldr	r5, [pc, #128]	; (10001280 <hardware_alarm_irq_handler+0xa0>)
100011fe:	682a      	ldr	r2, [r5, #0]
10001200:	2a00      	cmp	r2, #0
10001202:	d0fc      	beq.n	100011fe <hardware_alarm_irq_handler+0x1e>
10001204:	f3bf 8f5f 	dmb	sy
10001208:	2201      	movs	r2, #1
1000120a:	0011      	movs	r1, r2
1000120c:	4081      	lsls	r1, r0
1000120e:	4c1d      	ldr	r4, [pc, #116]	; (10001284 <hardware_alarm_irq_handler+0xa4>)
10001210:	4688      	mov	r8, r1
10001212:	6361      	str	r1, [r4, #52]	; 0x34
10001214:	491c      	ldr	r1, [pc, #112]	; (10001288 <hardware_alarm_irq_handler+0xa8>)
10001216:	0017      	movs	r7, r2
10001218:	780e      	ldrb	r6, [r1, #0]
1000121a:	468a      	mov	sl, r1
1000121c:	0031      	movs	r1, r6
1000121e:	40c1      	lsrs	r1, r0
10001220:	400f      	ands	r7, r1
10001222:	420a      	tst	r2, r1
10001224:	d015      	beq.n	10001252 <hardware_alarm_irq_handler+0x72>
10001226:	4919      	ldr	r1, [pc, #100]	; (1000128c <hardware_alarm_irq_handler+0xac>)
10001228:	0082      	lsls	r2, r0, #2
1000122a:	6a64      	ldr	r4, [r4, #36]	; 0x24
1000122c:	5851      	ldr	r1, [r2, r1]
1000122e:	428c      	cmp	r4, r1
10001230:	d319      	bcc.n	10001266 <hardware_alarm_irq_handler+0x86>
10001232:	4b17      	ldr	r3, [pc, #92]	; (10001290 <hardware_alarm_irq_handler+0xb0>)
10001234:	58d2      	ldr	r2, [r2, r3]
10001236:	4643      	mov	r3, r8
10001238:	439e      	bics	r6, r3
1000123a:	4653      	mov	r3, sl
1000123c:	701e      	strb	r6, [r3, #0]
1000123e:	f3bf 8f5f 	dmb	sy
10001242:	2300      	movs	r3, #0
10001244:	602b      	str	r3, [r5, #0]
10001246:	f38c 8810 	msr	PRIMASK, ip
1000124a:	2a00      	cmp	r2, #0
1000124c:	d006      	beq.n	1000125c <hardware_alarm_irq_handler+0x7c>
1000124e:	4790      	blx	r2
10001250:	e004      	b.n	1000125c <hardware_alarm_irq_handler+0x7c>
10001252:	f3bf 8f5f 	dmb	sy
10001256:	602f      	str	r7, [r5, #0]
10001258:	f38c 8810 	msr	PRIMASK, ip
1000125c:	bc1c      	pop	{r2, r3, r4}
1000125e:	4690      	mov	r8, r2
10001260:	4699      	mov	r9, r3
10001262:	46a2      	mov	sl, r4
10001264:	bdf0      	pop	{r4, r5, r6, r7, pc}
10001266:	4a0b      	ldr	r2, [pc, #44]	; (10001294 <hardware_alarm_irq_handler+0xb4>)
10001268:	009b      	lsls	r3, r3, #2
1000126a:	4690      	mov	r8, r2
1000126c:	4443      	add	r3, r8
1000126e:	681a      	ldr	r2, [r3, #0]
10001270:	601a      	str	r2, [r3, #0]
10001272:	f3bf 8f5f 	dmb	sy
10001276:	2300      	movs	r3, #0
10001278:	602b      	str	r3, [r5, #0]
1000127a:	f38c 8810 	msr	PRIMASK, ip
1000127e:	e7ed      	b.n	1000125c <hardware_alarm_irq_handler+0x7c>
10001280:	d0000128 	.word	0xd0000128
10001284:	40054000 	.word	0x40054000
10001288:	20000a55 	.word	0x20000a55
1000128c:	20000a38 	.word	0x20000a38
10001290:	20000588 	.word	0x20000588
10001294:	40053fd0 	.word	0x40053fd0

10001298 <hardware_alarm_claim>:
10001298:	b510      	push	{r4, lr}
1000129a:	0001      	movs	r1, r0
1000129c:	4a02      	ldr	r2, [pc, #8]	; (100012a8 <hardware_alarm_claim+0x10>)
1000129e:	4803      	ldr	r0, [pc, #12]	; (100012ac <hardware_alarm_claim+0x14>)
100012a0:	f7ff fade 	bl	10000860 <hw_claim_or_assert>
100012a4:	bd10      	pop	{r4, pc}
100012a6:	46c0      	nop			; (mov r8, r8)
100012a8:	100056fc 	.word	0x100056fc
100012ac:	20000a52 	.word	0x20000a52

100012b0 <time_us_64>:
100012b0:	4b03      	ldr	r3, [pc, #12]	; (100012c0 <time_us_64+0x10>)
100012b2:	6a59      	ldr	r1, [r3, #36]	; 0x24
100012b4:	000a      	movs	r2, r1
100012b6:	6a98      	ldr	r0, [r3, #40]	; 0x28
100012b8:	6a59      	ldr	r1, [r3, #36]	; 0x24
100012ba:	428a      	cmp	r2, r1
100012bc:	d1fa      	bne.n	100012b4 <time_us_64+0x4>
100012be:	4770      	bx	lr
100012c0:	40054000 	.word	0x40054000

100012c4 <busy_wait_us>:
100012c4:	b570      	push	{r4, r5, r6, lr}
100012c6:	0004      	movs	r4, r0
100012c8:	000d      	movs	r5, r1
100012ca:	4a12      	ldr	r2, [pc, #72]	; (10001314 <busy_wait_us+0x50>)
100012cc:	6a53      	ldr	r3, [r2, #36]	; 0x24
100012ce:	0019      	movs	r1, r3
100012d0:	6a96      	ldr	r6, [r2, #40]	; 0x28
100012d2:	6a53      	ldr	r3, [r2, #36]	; 0x24
100012d4:	428b      	cmp	r3, r1
100012d6:	d1fa      	bne.n	100012ce <busy_wait_us+0xa>
100012d8:	0030      	movs	r0, r6
100012da:	0019      	movs	r1, r3
100012dc:	1824      	adds	r4, r4, r0
100012de:	414d      	adcs	r5, r1
100012e0:	42ab      	cmp	r3, r5
100012e2:	d811      	bhi.n	10001308 <busy_wait_us+0x44>
100012e4:	d00e      	beq.n	10001304 <busy_wait_us+0x40>
100012e6:	002b      	movs	r3, r5
100012e8:	490a      	ldr	r1, [pc, #40]	; (10001314 <busy_wait_us+0x50>)
100012ea:	6a4a      	ldr	r2, [r1, #36]	; 0x24
100012ec:	429a      	cmp	r2, r3
100012ee:	d3fc      	bcc.n	100012ea <busy_wait_us+0x26>
100012f0:	d107      	bne.n	10001302 <busy_wait_us+0x3e>
100012f2:	4a08      	ldr	r2, [pc, #32]	; (10001314 <busy_wait_us+0x50>)
100012f4:	e002      	b.n	100012fc <busy_wait_us+0x38>
100012f6:	6a51      	ldr	r1, [r2, #36]	; 0x24
100012f8:	4299      	cmp	r1, r3
100012fa:	d102      	bne.n	10001302 <busy_wait_us+0x3e>
100012fc:	6a91      	ldr	r1, [r2, #40]	; 0x28
100012fe:	42a1      	cmp	r1, r4
10001300:	d3f9      	bcc.n	100012f6 <busy_wait_us+0x32>
10001302:	bd70      	pop	{r4, r5, r6, pc}
10001304:	42a6      	cmp	r6, r4
10001306:	d9ee      	bls.n	100012e6 <busy_wait_us+0x22>
10001308:	2301      	movs	r3, #1
1000130a:	2401      	movs	r4, #1
1000130c:	4264      	negs	r4, r4
1000130e:	17e5      	asrs	r5, r4, #31
10001310:	425b      	negs	r3, r3
10001312:	e7e9      	b.n	100012e8 <busy_wait_us+0x24>
10001314:	40054000 	.word	0x40054000

10001318 <hardware_alarm_set_callback>:
10001318:	b570      	push	{r4, r5, r6, lr}
1000131a:	0004      	movs	r4, r0
1000131c:	000d      	movs	r5, r1
1000131e:	f3ef 8610 	mrs	r6, PRIMASK
10001322:	b672      	cpsid	i
10001324:	4a1a      	ldr	r2, [pc, #104]	; (10001390 <hardware_alarm_set_callback+0x78>)
10001326:	6813      	ldr	r3, [r2, #0]
10001328:	2b00      	cmp	r3, #0
1000132a:	d0fc      	beq.n	10001326 <hardware_alarm_set_callback+0xe>
1000132c:	f3bf 8f5f 	dmb	sy
10001330:	2d00      	cmp	r5, #0
10001332:	d01b      	beq.n	1000136c <hardware_alarm_set_callback+0x54>
10001334:	0020      	movs	r0, r4
10001336:	f000 fcf9 	bl	10001d2c <irq_get_vtable_handler>
1000133a:	4916      	ldr	r1, [pc, #88]	; (10001394 <hardware_alarm_set_callback+0x7c>)
1000133c:	4281      	cmp	r1, r0
1000133e:	d00a      	beq.n	10001356 <hardware_alarm_set_callback+0x3e>
10001340:	0020      	movs	r0, r4
10001342:	f000 fcfb 	bl	10001d3c <irq_set_exclusive_handler>
10001346:	2101      	movs	r1, #1
10001348:	0020      	movs	r0, r4
1000134a:	f000 fcdd 	bl	10001d08 <irq_set_enabled>
1000134e:	2301      	movs	r3, #1
10001350:	40a3      	lsls	r3, r4
10001352:	4a11      	ldr	r2, [pc, #68]	; (10001398 <hardware_alarm_set_callback+0x80>)
10001354:	6013      	str	r3, [r2, #0]
10001356:	4b11      	ldr	r3, [pc, #68]	; (1000139c <hardware_alarm_set_callback+0x84>)
10001358:	00a4      	lsls	r4, r4, #2
1000135a:	50e5      	str	r5, [r4, r3]
1000135c:	f3bf 8f5f 	dmb	sy
10001360:	2200      	movs	r2, #0
10001362:	4b0b      	ldr	r3, [pc, #44]	; (10001390 <hardware_alarm_set_callback+0x78>)
10001364:	601a      	str	r2, [r3, #0]
10001366:	f386 8810 	msr	PRIMASK, r6
1000136a:	bd70      	pop	{r4, r5, r6, pc}
1000136c:	4b0b      	ldr	r3, [pc, #44]	; (1000139c <hardware_alarm_set_callback+0x84>)
1000136e:	00a2      	lsls	r2, r4, #2
10001370:	50d5      	str	r5, [r2, r3]
10001372:	2201      	movs	r2, #1
10001374:	40a2      	lsls	r2, r4
10001376:	490a      	ldr	r1, [pc, #40]	; (100013a0 <hardware_alarm_set_callback+0x88>)
10001378:	0020      	movs	r0, r4
1000137a:	780b      	ldrb	r3, [r1, #0]
1000137c:	4393      	bics	r3, r2
1000137e:	700b      	strb	r3, [r1, #0]
10001380:	4904      	ldr	r1, [pc, #16]	; (10001394 <hardware_alarm_set_callback+0x7c>)
10001382:	f000 fd05 	bl	10001d90 <irq_remove_handler>
10001386:	2100      	movs	r1, #0
10001388:	0020      	movs	r0, r4
1000138a:	f000 fcbd 	bl	10001d08 <irq_set_enabled>
1000138e:	e7e5      	b.n	1000135c <hardware_alarm_set_callback+0x44>
10001390:	d0000128 	.word	0xd0000128
10001394:	100011e1 	.word	0x100011e1
10001398:	40056038 	.word	0x40056038
1000139c:	20000588 	.word	0x20000588
100013a0:	20000a55 	.word	0x20000a55

100013a4 <hardware_alarm_set_target>:
100013a4:	b5f0      	push	{r4, r5, r6, r7, lr}
100013a6:	464f      	mov	r7, r9
100013a8:	46d6      	mov	lr, sl
100013aa:	4646      	mov	r6, r8
100013ac:	b5c0      	push	{r6, r7, lr}
100013ae:	0007      	movs	r7, r0
100013b0:	4c30      	ldr	r4, [pc, #192]	; (10001474 <hardware_alarm_set_target+0xd0>)
100013b2:	6a61      	ldr	r1, [r4, #36]	; 0x24
100013b4:	000d      	movs	r5, r1
100013b6:	6aa6      	ldr	r6, [r4, #40]	; 0x28
100013b8:	6a61      	ldr	r1, [r4, #36]	; 0x24
100013ba:	42a9      	cmp	r1, r5
100013bc:	d1fa      	bne.n	100013b4 <hardware_alarm_set_target+0x10>
100013be:	428b      	cmp	r3, r1
100013c0:	d808      	bhi.n	100013d4 <hardware_alarm_set_target+0x30>
100013c2:	d005      	beq.n	100013d0 <hardware_alarm_set_target+0x2c>
100013c4:	2001      	movs	r0, #1
100013c6:	bc1c      	pop	{r2, r3, r4}
100013c8:	4690      	mov	r8, r2
100013ca:	4699      	mov	r9, r3
100013cc:	46a2      	mov	sl, r4
100013ce:	bdf0      	pop	{r4, r5, r6, r7, pc}
100013d0:	42b2      	cmp	r2, r6
100013d2:	d9f7      	bls.n	100013c4 <hardware_alarm_set_target+0x20>
100013d4:	f3ef 8910 	mrs	r9, PRIMASK
100013d8:	b672      	cpsid	i
100013da:	4827      	ldr	r0, [pc, #156]	; (10001478 <hardware_alarm_set_target+0xd4>)
100013dc:	6801      	ldr	r1, [r0, #0]
100013de:	2900      	cmp	r1, #0
100013e0:	d0fc      	beq.n	100013dc <hardware_alarm_set_target+0x38>
100013e2:	f3bf 8f5f 	dmb	sy
100013e6:	2501      	movs	r5, #1
100013e8:	4924      	ldr	r1, [pc, #144]	; (1000147c <hardware_alarm_set_target+0xd8>)
100013ea:	40bd      	lsls	r5, r7
100013ec:	468c      	mov	ip, r1
100013ee:	7809      	ldrb	r1, [r1, #0]
100013f0:	4c20      	ldr	r4, [pc, #128]	; (10001474 <hardware_alarm_set_target+0xd0>)
100013f2:	000e      	movs	r6, r1
100013f4:	432e      	orrs	r6, r5
100013f6:	4688      	mov	r8, r1
100013f8:	b2f1      	uxtb	r1, r6
100013fa:	468a      	mov	sl, r1
100013fc:	4661      	mov	r1, ip
100013fe:	4650      	mov	r0, sl
10001400:	7008      	strb	r0, [r1, #0]
10001402:	1d39      	adds	r1, r7, #4
10001404:	481e      	ldr	r0, [pc, #120]	; (10001480 <hardware_alarm_set_target+0xdc>)
10001406:	0089      	lsls	r1, r1, #2
10001408:	6365      	str	r5, [r4, #52]	; 0x34
1000140a:	510a      	str	r2, [r1, r4]
1000140c:	00b9      	lsls	r1, r7, #2
1000140e:	500b      	str	r3, [r1, r0]
10001410:	6a21      	ldr	r1, [r4, #32]
10001412:	2000      	movs	r0, #0
10001414:	4229      	tst	r1, r5
10001416:	d019      	beq.n	1000144c <hardware_alarm_set_target+0xa8>
10001418:	6a61      	ldr	r1, [r4, #36]	; 0x24
1000141a:	0008      	movs	r0, r1
1000141c:	6aa6      	ldr	r6, [r4, #40]	; 0x28
1000141e:	6a61      	ldr	r1, [r4, #36]	; 0x24
10001420:	4281      	cmp	r1, r0
10001422:	d1fa      	bne.n	1000141a <hardware_alarm_set_target+0x76>
10001424:	428b      	cmp	r3, r1
10001426:	d819      	bhi.n	1000145c <hardware_alarm_set_target+0xb8>
10001428:	d101      	bne.n	1000142e <hardware_alarm_set_target+0x8a>
1000142a:	42b2      	cmp	r2, r6
1000142c:	d816      	bhi.n	1000145c <hardware_alarm_set_target+0xb8>
1000142e:	45c2      	cmp	sl, r8
10001430:	d01d      	beq.n	1000146e <hardware_alarm_set_target+0xca>
10001432:	4b10      	ldr	r3, [pc, #64]	; (10001474 <hardware_alarm_set_target+0xd0>)
10001434:	201f      	movs	r0, #31
10001436:	621d      	str	r5, [r3, #32]
10001438:	635d      	str	r5, [r3, #52]	; 0x34
1000143a:	2301      	movs	r3, #1
1000143c:	4007      	ands	r7, r0
1000143e:	40bb      	lsls	r3, r7
10001440:	4a10      	ldr	r2, [pc, #64]	; (10001484 <hardware_alarm_set_target+0xe0>)
10001442:	381e      	subs	r0, #30
10001444:	6013      	str	r3, [r2, #0]
10001446:	4663      	mov	r3, ip
10001448:	4642      	mov	r2, r8
1000144a:	701a      	strb	r2, [r3, #0]
1000144c:	f3bf 8f5f 	dmb	sy
10001450:	2200      	movs	r2, #0
10001452:	4b09      	ldr	r3, [pc, #36]	; (10001478 <hardware_alarm_set_target+0xd4>)
10001454:	601a      	str	r2, [r3, #0]
10001456:	f389 8810 	msr	PRIMASK, r9
1000145a:	e7b4      	b.n	100013c6 <hardware_alarm_set_target+0x22>
1000145c:	2000      	movs	r0, #0
1000145e:	f3bf 8f5f 	dmb	sy
10001462:	2200      	movs	r2, #0
10001464:	4b04      	ldr	r3, [pc, #16]	; (10001478 <hardware_alarm_set_target+0xd4>)
10001466:	601a      	str	r2, [r3, #0]
10001468:	f389 8810 	msr	PRIMASK, r9
1000146c:	e7ab      	b.n	100013c6 <hardware_alarm_set_target+0x22>
1000146e:	2001      	movs	r0, #1
10001470:	e7ec      	b.n	1000144c <hardware_alarm_set_target+0xa8>
10001472:	46c0      	nop			; (mov r8, r8)
10001474:	40054000 	.word	0x40054000
10001478:	d0000128 	.word	0xd0000128
1000147c:	20000a55 	.word	0x20000a55
10001480:	20000a38 	.word	0x20000a38
10001484:	e000e280 	.word	0xe000e280

10001488 <hardware_alarm_cancel>:
10001488:	b510      	push	{r4, lr}
1000148a:	f3ef 8410 	mrs	r4, PRIMASK
1000148e:	b672      	cpsid	i
10001490:	490a      	ldr	r1, [pc, #40]	; (100014bc <hardware_alarm_cancel+0x34>)
10001492:	680b      	ldr	r3, [r1, #0]
10001494:	2b00      	cmp	r3, #0
10001496:	d0fc      	beq.n	10001492 <hardware_alarm_cancel+0xa>
10001498:	f3bf 8f5f 	dmb	sy
1000149c:	2301      	movs	r3, #1
1000149e:	4083      	lsls	r3, r0
100014a0:	4a07      	ldr	r2, [pc, #28]	; (100014c0 <hardware_alarm_cancel+0x38>)
100014a2:	4808      	ldr	r0, [pc, #32]	; (100014c4 <hardware_alarm_cancel+0x3c>)
100014a4:	6213      	str	r3, [r2, #32]
100014a6:	7802      	ldrb	r2, [r0, #0]
100014a8:	439a      	bics	r2, r3
100014aa:	7002      	strb	r2, [r0, #0]
100014ac:	f3bf 8f5f 	dmb	sy
100014b0:	2300      	movs	r3, #0
100014b2:	600b      	str	r3, [r1, #0]
100014b4:	f384 8810 	msr	PRIMASK, r4
100014b8:	bd10      	pop	{r4, pc}
100014ba:	46c0      	nop			; (mov r8, r8)
100014bc:	d0000128 	.word	0xd0000128
100014c0:	40054000 	.word	0x40054000
100014c4:	20000a55 	.word	0x20000a55

100014c8 <lock_init>:
100014c8:	4b02      	ldr	r3, [pc, #8]	; (100014d4 <lock_init+0xc>)
100014ca:	469c      	mov	ip, r3
100014cc:	4461      	add	r1, ip
100014ce:	0089      	lsls	r1, r1, #2
100014d0:	6001      	str	r1, [r0, #0]
100014d2:	4770      	bx	lr
100014d4:	34000040 	.word	0x34000040

100014d8 <mutex_init>:
100014d8:	b510      	push	{r4, lr}
100014da:	0004      	movs	r4, r0
100014dc:	f7ff fa4e 	bl	1000097c <next_striped_spin_lock_num>
100014e0:	0001      	movs	r1, r0
100014e2:	0020      	movs	r0, r4
100014e4:	f7ff fff0 	bl	100014c8 <lock_init>
100014e8:	23ff      	movs	r3, #255	; 0xff
100014ea:	7123      	strb	r3, [r4, #4]
100014ec:	f3bf 8f5f 	dmb	sy
100014f0:	bd10      	pop	{r4, pc}
100014f2:	46c0      	nop			; (mov r8, r8)

100014f4 <recursive_mutex_init>:
100014f4:	b510      	push	{r4, lr}
100014f6:	0004      	movs	r4, r0
100014f8:	f7ff fa40 	bl	1000097c <next_striped_spin_lock_num>
100014fc:	0001      	movs	r1, r0
100014fe:	0020      	movs	r0, r4
10001500:	f7ff ffe2 	bl	100014c8 <lock_init>
10001504:	23ff      	movs	r3, #255	; 0xff
10001506:	80a3      	strh	r3, [r4, #4]
10001508:	f3bf 8f5f 	dmb	sy
1000150c:	bd10      	pop	{r4, pc}
1000150e:	46c0      	nop			; (mov r8, r8)

10001510 <critical_section_init>:
10001510:	b510      	push	{r4, lr}
10001512:	0004      	movs	r4, r0
10001514:	2001      	movs	r0, #1
10001516:	f7ff fa3d 	bl	10000994 <spin_lock_claim_unused>
1000151a:	4b03      	ldr	r3, [pc, #12]	; (10001528 <critical_section_init+0x18>)
1000151c:	18c3      	adds	r3, r0, r3
1000151e:	009b      	lsls	r3, r3, #2
10001520:	6023      	str	r3, [r4, #0]
10001522:	f3bf 8f5f 	dmb	sy
10001526:	bd10      	pop	{r4, pc}
10001528:	34000040 	.word	0x34000040

1000152c <ph_merge_nodes>:
1000152c:	b570      	push	{r4, r5, r6, lr}
1000152e:	0005      	movs	r5, r0
10001530:	000e      	movs	r6, r1
10001532:	0014      	movs	r4, r2
10001534:	2900      	cmp	r1, #0
10001536:	d024      	beq.n	10001582 <ph_merge_nodes+0x56>
10001538:	2a00      	cmp	r2, #0
1000153a:	d024      	beq.n	10001586 <ph_merge_nodes+0x5a>
1000153c:	6880      	ldr	r0, [r0, #8]
1000153e:	686b      	ldr	r3, [r5, #4]
10001540:	4798      	blx	r3
10001542:	6829      	ldr	r1, [r5, #0]
10001544:	2800      	cmp	r0, #0
10001546:	d00e      	beq.n	10001566 <ph_merge_nodes+0x3a>
10001548:	0063      	lsls	r3, r4, #1
1000154a:	191b      	adds	r3, r3, r4
1000154c:	0072      	lsls	r2, r6, #1
1000154e:	3b03      	subs	r3, #3
10001550:	1992      	adds	r2, r2, r6
10001552:	18cb      	adds	r3, r1, r3
10001554:	3a03      	subs	r2, #3
10001556:	709e      	strb	r6, [r3, #2]
10001558:	1888      	adds	r0, r1, r2
1000155a:	5c8a      	ldrb	r2, [r1, r2]
1000155c:	2a00      	cmp	r2, #0
1000155e:	d114      	bne.n	1000158a <ph_merge_nodes+0x5e>
10001560:	7004      	strb	r4, [r0, #0]
10001562:	0030      	movs	r0, r6
10001564:	e00e      	b.n	10001584 <ph_merge_nodes+0x58>
10001566:	0073      	lsls	r3, r6, #1
10001568:	199b      	adds	r3, r3, r6
1000156a:	0062      	lsls	r2, r4, #1
1000156c:	3b03      	subs	r3, #3
1000156e:	1912      	adds	r2, r2, r4
10001570:	18cb      	adds	r3, r1, r3
10001572:	3a03      	subs	r2, #3
10001574:	709c      	strb	r4, [r3, #2]
10001576:	1888      	adds	r0, r1, r2
10001578:	5c8a      	ldrb	r2, [r1, r2]
1000157a:	2a00      	cmp	r2, #0
1000157c:	d000      	beq.n	10001580 <ph_merge_nodes+0x54>
1000157e:	705a      	strb	r2, [r3, #1]
10001580:	7006      	strb	r6, [r0, #0]
10001582:	0020      	movs	r0, r4
10001584:	bd70      	pop	{r4, r5, r6, pc}
10001586:	0008      	movs	r0, r1
10001588:	e7fc      	b.n	10001584 <ph_merge_nodes+0x58>
1000158a:	705a      	strb	r2, [r3, #1]
1000158c:	7004      	strb	r4, [r0, #0]
1000158e:	0030      	movs	r0, r6
10001590:	e7f8      	b.n	10001584 <ph_merge_nodes+0x58>
10001592:	46c0      	nop			; (mov r8, r8)

10001594 <ph_post_alloc_init>:
10001594:	b530      	push	{r4, r5, lr}
10001596:	6083      	str	r3, [r0, #8]
10001598:	2300      	movs	r3, #0
1000159a:	b2cc      	uxtb	r4, r1
1000159c:	7343      	strb	r3, [r0, #13]
1000159e:	3301      	adds	r3, #1
100015a0:	7304      	strb	r4, [r0, #12]
100015a2:	6042      	str	r2, [r0, #4]
100015a4:	7383      	strb	r3, [r0, #14]
100015a6:	73c4      	strb	r4, [r0, #15]
100015a8:	000d      	movs	r5, r1
100015aa:	6800      	ldr	r0, [r0, #0]
100015ac:	2c01      	cmp	r4, #1
100015ae:	d906      	bls.n	100015be <ph_post_alloc_init+0x2a>
100015b0:	1c42      	adds	r2, r0, #1
100015b2:	3301      	adds	r3, #1
100015b4:	b2db      	uxtb	r3, r3
100015b6:	7013      	strb	r3, [r2, #0]
100015b8:	3203      	adds	r2, #3
100015ba:	429c      	cmp	r4, r3
100015bc:	d1f9      	bne.n	100015b2 <ph_post_alloc_init+0x1e>
100015be:	21ff      	movs	r1, #255	; 0xff
100015c0:	4029      	ands	r1, r5
100015c2:	004b      	lsls	r3, r1, #1
100015c4:	1859      	adds	r1, r3, r1
100015c6:	2300      	movs	r3, #0
100015c8:	1840      	adds	r0, r0, r1
100015ca:	3803      	subs	r0, #3
100015cc:	7043      	strb	r3, [r0, #1]
100015ce:	bd30      	pop	{r4, r5, pc}

100015d0 <ph_merge_two_pass>:
100015d0:	b5f8      	push	{r3, r4, r5, r6, r7, lr}
100015d2:	46ce      	mov	lr, r9
100015d4:	4647      	mov	r7, r8
100015d6:	0006      	movs	r6, r0
100015d8:	000c      	movs	r4, r1
100015da:	b580      	push	{r7, lr}
100015dc:	2900      	cmp	r1, #0
100015de:	d007      	beq.n	100015f0 <ph_merge_two_pass+0x20>
100015e0:	004d      	lsls	r5, r1, #1
100015e2:	6803      	ldr	r3, [r0, #0]
100015e4:	186d      	adds	r5, r5, r1
100015e6:	3d03      	subs	r5, #3
100015e8:	195a      	adds	r2, r3, r5
100015ea:	7857      	ldrb	r7, [r2, #1]
100015ec:	2f00      	cmp	r7, #0
100015ee:	d104      	bne.n	100015fa <ph_merge_two_pass+0x2a>
100015f0:	0020      	movs	r0, r4
100015f2:	bc0c      	pop	{r2, r3}
100015f4:	4690      	mov	r8, r2
100015f6:	4699      	mov	r9, r3
100015f8:	bdf8      	pop	{r3, r4, r5, r6, r7, pc}
100015fa:	0079      	lsls	r1, r7, #1
100015fc:	19c9      	adds	r1, r1, r7
100015fe:	3903      	subs	r1, #3
10001600:	4688      	mov	r8, r1
10001602:	4443      	add	r3, r8
10001604:	7859      	ldrb	r1, [r3, #1]
10001606:	4689      	mov	r9, r1
10001608:	2100      	movs	r1, #0
1000160a:	7059      	strb	r1, [r3, #1]
1000160c:	7051      	strb	r1, [r2, #1]
1000160e:	6873      	ldr	r3, [r6, #4]
10001610:	003a      	movs	r2, r7
10001612:	0021      	movs	r1, r4
10001614:	6880      	ldr	r0, [r0, #8]
10001616:	4798      	blx	r3
10001618:	6833      	ldr	r3, [r6, #0]
1000161a:	2800      	cmp	r0, #0
1000161c:	d014      	beq.n	10001648 <ph_merge_two_pass+0x78>
1000161e:	4642      	mov	r2, r8
10001620:	189a      	adds	r2, r3, r2
10001622:	7094      	strb	r4, [r2, #2]
10001624:	1959      	adds	r1, r3, r5
10001626:	5d5b      	ldrb	r3, [r3, r5]
10001628:	2b00      	cmp	r3, #0
1000162a:	d000      	beq.n	1000162e <ph_merge_two_pass+0x5e>
1000162c:	7053      	strb	r3, [r2, #1]
1000162e:	700f      	strb	r7, [r1, #0]
10001630:	0027      	movs	r7, r4
10001632:	4649      	mov	r1, r9
10001634:	0030      	movs	r0, r6
10001636:	f7ff ffcb 	bl	100015d0 <ph_merge_two_pass>
1000163a:	0039      	movs	r1, r7
1000163c:	0002      	movs	r2, r0
1000163e:	0030      	movs	r0, r6
10001640:	f7ff ff74 	bl	1000152c <ph_merge_nodes>
10001644:	0004      	movs	r4, r0
10001646:	e7d3      	b.n	100015f0 <ph_merge_two_pass+0x20>
10001648:	4642      	mov	r2, r8
1000164a:	4641      	mov	r1, r8
1000164c:	195d      	adds	r5, r3, r5
1000164e:	70af      	strb	r7, [r5, #2]
10001650:	189a      	adds	r2, r3, r2
10001652:	5c5b      	ldrb	r3, [r3, r1]
10001654:	2b00      	cmp	r3, #0
10001656:	d000      	beq.n	1000165a <ph_merge_two_pass+0x8a>
10001658:	706b      	strb	r3, [r5, #1]
1000165a:	7014      	strb	r4, [r2, #0]
1000165c:	e7e9      	b.n	10001632 <ph_merge_two_pass+0x62>
1000165e:	46c0      	nop			; (mov r8, r8)

10001660 <ph_remove_any_head>:
10001660:	b5f0      	push	{r4, r5, r6, r7, lr}
10001662:	4657      	mov	r7, sl
10001664:	4645      	mov	r5, r8
10001666:	46de      	mov	lr, fp
10001668:	464e      	mov	r6, r9
1000166a:	b5e0      	push	{r5, r6, r7, lr}
1000166c:	000d      	movs	r5, r1
1000166e:	006b      	lsls	r3, r5, #1
10001670:	6801      	ldr	r1, [r0, #0]
10001672:	195b      	adds	r3, r3, r5
10001674:	1edf      	subs	r7, r3, #3
10001676:	0004      	movs	r4, r0
10001678:	5dc8      	ldrb	r0, [r1, r7]
1000167a:	b083      	sub	sp, #12
1000167c:	9201      	str	r2, [sp, #4]
1000167e:	19ca      	adds	r2, r1, r7
10001680:	2800      	cmp	r0, #0
10001682:	d04c      	beq.n	1000171e <ph_remove_any_head+0xbe>
10001684:	0043      	lsls	r3, r0, #1
10001686:	181b      	adds	r3, r3, r0
10001688:	3b03      	subs	r3, #3
1000168a:	18cb      	adds	r3, r1, r3
1000168c:	785e      	ldrb	r6, [r3, #1]
1000168e:	46b4      	mov	ip, r6
10001690:	2e00      	cmp	r6, #0
10001692:	d116      	bne.n	100016c2 <ph_remove_any_head+0x62>
10001694:	9e01      	ldr	r6, [sp, #4]
10001696:	2e00      	cmp	r6, #0
10001698:	d03e      	beq.n	10001718 <ph_remove_any_head+0xb8>
1000169a:	7be6      	ldrb	r6, [r4, #15]
1000169c:	2e00      	cmp	r6, #0
1000169e:	d004      	beq.n	100016aa <ph_remove_any_head+0x4a>
100016a0:	0073      	lsls	r3, r6, #1
100016a2:	199b      	adds	r3, r3, r6
100016a4:	18cb      	adds	r3, r1, r3
100016a6:	3b03      	subs	r3, #3
100016a8:	705d      	strb	r5, [r3, #1]
100016aa:	73e5      	strb	r5, [r4, #15]
100016ac:	2800      	cmp	r0, #0
100016ae:	d12f      	bne.n	10001710 <ph_remove_any_head+0xb0>
100016b0:	2300      	movs	r3, #0
100016b2:	7053      	strb	r3, [r2, #1]
100016b4:	b003      	add	sp, #12
100016b6:	bc3c      	pop	{r2, r3, r4, r5}
100016b8:	4690      	mov	r8, r2
100016ba:	4699      	mov	r9, r3
100016bc:	46a2      	mov	sl, r4
100016be:	46ab      	mov	fp, r5
100016c0:	bdf0      	pop	{r4, r5, r6, r7, pc}
100016c2:	0072      	lsls	r2, r6, #1
100016c4:	4462      	add	r2, ip
100016c6:	3a03      	subs	r2, #3
100016c8:	1889      	adds	r1, r1, r2
100016ca:	784a      	ldrb	r2, [r1, #1]
100016cc:	4690      	mov	r8, r2
100016ce:	2200      	movs	r2, #0
100016d0:	704a      	strb	r2, [r1, #1]
100016d2:	4691      	mov	r9, r2
100016d4:	705a      	strb	r2, [r3, #1]
100016d6:	0001      	movs	r1, r0
100016d8:	0032      	movs	r2, r6
100016da:	0020      	movs	r0, r4
100016dc:	f7ff ff26 	bl	1000152c <ph_merge_nodes>
100016e0:	4643      	mov	r3, r8
100016e2:	4682      	mov	sl, r0
100016e4:	2b00      	cmp	r3, #0
100016e6:	d007      	beq.n	100016f8 <ph_remove_any_head+0x98>
100016e8:	005b      	lsls	r3, r3, #1
100016ea:	6821      	ldr	r1, [r4, #0]
100016ec:	4443      	add	r3, r8
100016ee:	3b03      	subs	r3, #3
100016f0:	18cb      	adds	r3, r1, r3
100016f2:	785a      	ldrb	r2, [r3, #1]
100016f4:	2a00      	cmp	r2, #0
100016f6:	d116      	bne.n	10001726 <ph_remove_any_head+0xc6>
100016f8:	4642      	mov	r2, r8
100016fa:	4651      	mov	r1, sl
100016fc:	0020      	movs	r0, r4
100016fe:	f7ff ff15 	bl	1000152c <ph_merge_nodes>
10001702:	6821      	ldr	r1, [r4, #0]
10001704:	9b01      	ldr	r3, [sp, #4]
10001706:	19ca      	adds	r2, r1, r7
10001708:	2b00      	cmp	r3, #0
1000170a:	d1c6      	bne.n	1000169a <ph_remove_any_head+0x3a>
1000170c:	2800      	cmp	r0, #0
1000170e:	d0cf      	beq.n	100016b0 <ph_remove_any_head+0x50>
10001710:	0043      	lsls	r3, r0, #1
10001712:	181b      	adds	r3, r3, r0
10001714:	3b03      	subs	r3, #3
10001716:	18cb      	adds	r3, r1, r3
10001718:	2100      	movs	r1, #0
1000171a:	7099      	strb	r1, [r3, #2]
1000171c:	e7c8      	b.n	100016b0 <ph_remove_any_head+0x50>
1000171e:	9b01      	ldr	r3, [sp, #4]
10001720:	2b00      	cmp	r3, #0
10001722:	d1ba      	bne.n	1000169a <ph_remove_any_head+0x3a>
10001724:	e7c4      	b.n	100016b0 <ph_remove_any_head+0x50>
10001726:	0050      	lsls	r0, r2, #1
10001728:	1880      	adds	r0, r0, r2
1000172a:	3803      	subs	r0, #3
1000172c:	1809      	adds	r1, r1, r0
1000172e:	7848      	ldrb	r0, [r1, #1]
10001730:	4683      	mov	fp, r0
10001732:	4648      	mov	r0, r9
10001734:	7048      	strb	r0, [r1, #1]
10001736:	7058      	strb	r0, [r3, #1]
10001738:	4641      	mov	r1, r8
1000173a:	0020      	movs	r0, r4
1000173c:	f7ff fef6 	bl	1000152c <ph_merge_nodes>
10001740:	4659      	mov	r1, fp
10001742:	4680      	mov	r8, r0
10001744:	0020      	movs	r0, r4
10001746:	f7ff ff43 	bl	100015d0 <ph_merge_two_pass>
1000174a:	4641      	mov	r1, r8
1000174c:	0002      	movs	r2, r0
1000174e:	0020      	movs	r0, r4
10001750:	f7ff feec 	bl	1000152c <ph_merge_nodes>
10001754:	4680      	mov	r8, r0
10001756:	e7cf      	b.n	100016f8 <ph_remove_any_head+0x98>

10001758 <ph_remove_head>:
10001758:	b5f0      	push	{r4, r5, r6, r7, lr}
1000175a:	464e      	mov	r6, r9
1000175c:	4645      	mov	r5, r8
1000175e:	46de      	mov	lr, fp
10001760:	4657      	mov	r7, sl
10001762:	b5e0      	push	{r5, r6, r7, lr}
10001764:	7b46      	ldrb	r6, [r0, #13]
10001766:	0004      	movs	r4, r0
10001768:	0075      	lsls	r5, r6, #1
1000176a:	6800      	ldr	r0, [r0, #0]
1000176c:	19ad      	adds	r5, r5, r6
1000176e:	3d03      	subs	r5, #3
10001770:	b083      	sub	sp, #12
10001772:	9101      	str	r1, [sp, #4]
10001774:	5d41      	ldrb	r1, [r0, r5]
10001776:	1942      	adds	r2, r0, r5
10001778:	2900      	cmp	r1, #0
1000177a:	d04e      	beq.n	1000181a <ph_remove_head+0xc2>
1000177c:	004b      	lsls	r3, r1, #1
1000177e:	185b      	adds	r3, r3, r1
10001780:	3b03      	subs	r3, #3
10001782:	18c3      	adds	r3, r0, r3
10001784:	785f      	ldrb	r7, [r3, #1]
10001786:	46bc      	mov	ip, r7
10001788:	2f00      	cmp	r7, #0
1000178a:	d118      	bne.n	100017be <ph_remove_head+0x66>
1000178c:	9d01      	ldr	r5, [sp, #4]
1000178e:	2d00      	cmp	r5, #0
10001790:	d040      	beq.n	10001814 <ph_remove_head+0xbc>
10001792:	7be5      	ldrb	r5, [r4, #15]
10001794:	2d00      	cmp	r5, #0
10001796:	d004      	beq.n	100017a2 <ph_remove_head+0x4a>
10001798:	006b      	lsls	r3, r5, #1
1000179a:	195b      	adds	r3, r3, r5
1000179c:	18c3      	adds	r3, r0, r3
1000179e:	3b03      	subs	r3, #3
100017a0:	705e      	strb	r6, [r3, #1]
100017a2:	73e6      	strb	r6, [r4, #15]
100017a4:	2900      	cmp	r1, #0
100017a6:	d131      	bne.n	1000180c <ph_remove_head+0xb4>
100017a8:	2300      	movs	r3, #0
100017aa:	0030      	movs	r0, r6
100017ac:	7053      	strb	r3, [r2, #1]
100017ae:	7361      	strb	r1, [r4, #13]
100017b0:	b003      	add	sp, #12
100017b2:	bc3c      	pop	{r2, r3, r4, r5}
100017b4:	4690      	mov	r8, r2
100017b6:	4699      	mov	r9, r3
100017b8:	46a2      	mov	sl, r4
100017ba:	46ab      	mov	fp, r5
100017bc:	bdf0      	pop	{r4, r5, r6, r7, pc}
100017be:	007a      	lsls	r2, r7, #1
100017c0:	4462      	add	r2, ip
100017c2:	3a03      	subs	r2, #3
100017c4:	1880      	adds	r0, r0, r2
100017c6:	7842      	ldrb	r2, [r0, #1]
100017c8:	4693      	mov	fp, r2
100017ca:	2200      	movs	r2, #0
100017cc:	7042      	strb	r2, [r0, #1]
100017ce:	4691      	mov	r9, r2
100017d0:	705a      	strb	r2, [r3, #1]
100017d2:	0020      	movs	r0, r4
100017d4:	003a      	movs	r2, r7
100017d6:	f7ff fea9 	bl	1000152c <ph_merge_nodes>
100017da:	465b      	mov	r3, fp
100017dc:	4680      	mov	r8, r0
100017de:	2b00      	cmp	r3, #0
100017e0:	d007      	beq.n	100017f2 <ph_remove_head+0x9a>
100017e2:	005b      	lsls	r3, r3, #1
100017e4:	6821      	ldr	r1, [r4, #0]
100017e6:	445b      	add	r3, fp
100017e8:	3b03      	subs	r3, #3
100017ea:	18cb      	adds	r3, r1, r3
100017ec:	785a      	ldrb	r2, [r3, #1]
100017ee:	2a00      	cmp	r2, #0
100017f0:	d117      	bne.n	10001822 <ph_remove_head+0xca>
100017f2:	465a      	mov	r2, fp
100017f4:	4641      	mov	r1, r8
100017f6:	0020      	movs	r0, r4
100017f8:	f7ff fe98 	bl	1000152c <ph_merge_nodes>
100017fc:	9b01      	ldr	r3, [sp, #4]
100017fe:	0001      	movs	r1, r0
10001800:	6820      	ldr	r0, [r4, #0]
10001802:	1942      	adds	r2, r0, r5
10001804:	2b00      	cmp	r3, #0
10001806:	d1c4      	bne.n	10001792 <ph_remove_head+0x3a>
10001808:	2900      	cmp	r1, #0
1000180a:	d0cd      	beq.n	100017a8 <ph_remove_head+0x50>
1000180c:	004b      	lsls	r3, r1, #1
1000180e:	185b      	adds	r3, r3, r1
10001810:	3b03      	subs	r3, #3
10001812:	18c3      	adds	r3, r0, r3
10001814:	2000      	movs	r0, #0
10001816:	7098      	strb	r0, [r3, #2]
10001818:	e7c6      	b.n	100017a8 <ph_remove_head+0x50>
1000181a:	9b01      	ldr	r3, [sp, #4]
1000181c:	2b00      	cmp	r3, #0
1000181e:	d1b8      	bne.n	10001792 <ph_remove_head+0x3a>
10001820:	e7c2      	b.n	100017a8 <ph_remove_head+0x50>
10001822:	0050      	lsls	r0, r2, #1
10001824:	1880      	adds	r0, r0, r2
10001826:	3803      	subs	r0, #3
10001828:	1809      	adds	r1, r1, r0
1000182a:	7848      	ldrb	r0, [r1, #1]
1000182c:	4682      	mov	sl, r0
1000182e:	4648      	mov	r0, r9
10001830:	7048      	strb	r0, [r1, #1]
10001832:	7058      	strb	r0, [r3, #1]
10001834:	4659      	mov	r1, fp
10001836:	0020      	movs	r0, r4
10001838:	f7ff fe78 	bl	1000152c <ph_merge_nodes>
1000183c:	4653      	mov	r3, sl
1000183e:	4683      	mov	fp, r0
10001840:	2b00      	cmp	r3, #0
10001842:	d007      	beq.n	10001854 <ph_remove_head+0xfc>
10001844:	005b      	lsls	r3, r3, #1
10001846:	6821      	ldr	r1, [r4, #0]
10001848:	4453      	add	r3, sl
1000184a:	3b03      	subs	r3, #3
1000184c:	18cb      	adds	r3, r1, r3
1000184e:	785a      	ldrb	r2, [r3, #1]
10001850:	2a00      	cmp	r2, #0
10001852:	d106      	bne.n	10001862 <ph_remove_head+0x10a>
10001854:	4659      	mov	r1, fp
10001856:	4652      	mov	r2, sl
10001858:	0020      	movs	r0, r4
1000185a:	f7ff fe67 	bl	1000152c <ph_merge_nodes>
1000185e:	4683      	mov	fp, r0
10001860:	e7c7      	b.n	100017f2 <ph_remove_head+0x9a>
10001862:	0050      	lsls	r0, r2, #1
10001864:	1880      	adds	r0, r0, r2
10001866:	3803      	subs	r0, #3
10001868:	1809      	adds	r1, r1, r0
1000186a:	4648      	mov	r0, r9
1000186c:	784f      	ldrb	r7, [r1, #1]
1000186e:	7048      	strb	r0, [r1, #1]
10001870:	7058      	strb	r0, [r3, #1]
10001872:	4651      	mov	r1, sl
10001874:	0020      	movs	r0, r4
10001876:	f7ff fe59 	bl	1000152c <ph_merge_nodes>
1000187a:	0039      	movs	r1, r7
1000187c:	4681      	mov	r9, r0
1000187e:	0020      	movs	r0, r4
10001880:	f7ff fea6 	bl	100015d0 <ph_merge_two_pass>
10001884:	4649      	mov	r1, r9
10001886:	0002      	movs	r2, r0
10001888:	0020      	movs	r0, r4
1000188a:	f7ff fe4f 	bl	1000152c <ph_merge_nodes>
1000188e:	4682      	mov	sl, r0
10001890:	e7e0      	b.n	10001854 <ph_remove_head+0xfc>
10001892:	46c0      	nop			; (mov r8, r8)

10001894 <ph_remove_and_free_node>:
10001894:	b570      	push	{r4, r5, r6, lr}
10001896:	0004      	movs	r4, r0
10001898:	2900      	cmp	r1, #0
1000189a:	d02c      	beq.n	100018f6 <ph_remove_and_free_node+0x62>
1000189c:	7b43      	ldrb	r3, [r0, #13]
1000189e:	428b      	cmp	r3, r1
100018a0:	d02e      	beq.n	10001900 <ph_remove_and_free_node+0x6c>
100018a2:	6805      	ldr	r5, [r0, #0]
100018a4:	0048      	lsls	r0, r1, #1
100018a6:	1840      	adds	r0, r0, r1
100018a8:	3803      	subs	r0, #3
100018aa:	1828      	adds	r0, r5, r0
100018ac:	7882      	ldrb	r2, [r0, #2]
100018ae:	2a00      	cmp	r2, #0
100018b0:	d021      	beq.n	100018f6 <ph_remove_and_free_node+0x62>
100018b2:	0053      	lsls	r3, r2, #1
100018b4:	189b      	adds	r3, r3, r2
100018b6:	3b03      	subs	r3, #3
100018b8:	5cea      	ldrb	r2, [r5, r3]
100018ba:	18ee      	adds	r6, r5, r3
100018bc:	428a      	cmp	r2, r1
100018be:	d102      	bne.n	100018c6 <ph_remove_and_free_node+0x32>
100018c0:	e01b      	b.n	100018fa <ph_remove_and_free_node+0x66>
100018c2:	2a00      	cmp	r2, #0
100018c4:	d008      	beq.n	100018d8 <ph_remove_and_free_node+0x44>
100018c6:	0053      	lsls	r3, r2, #1
100018c8:	189b      	adds	r3, r3, r2
100018ca:	3b03      	subs	r3, #3
100018cc:	18eb      	adds	r3, r5, r3
100018ce:	785a      	ldrb	r2, [r3, #1]
100018d0:	428a      	cmp	r2, r1
100018d2:	d1f6      	bne.n	100018c2 <ph_remove_and_free_node+0x2e>
100018d4:	7842      	ldrb	r2, [r0, #1]
100018d6:	705a      	strb	r2, [r3, #1]
100018d8:	2300      	movs	r3, #0
100018da:	2201      	movs	r2, #1
100018dc:	7083      	strb	r3, [r0, #2]
100018de:	7043      	strb	r3, [r0, #1]
100018e0:	0020      	movs	r0, r4
100018e2:	f7ff febd 	bl	10001660 <ph_remove_any_head>
100018e6:	7b61      	ldrb	r1, [r4, #13]
100018e8:	0002      	movs	r2, r0
100018ea:	0020      	movs	r0, r4
100018ec:	f7ff fe1e 	bl	1000152c <ph_merge_nodes>
100018f0:	7360      	strb	r0, [r4, #13]
100018f2:	2001      	movs	r0, #1
100018f4:	e000      	b.n	100018f8 <ph_remove_and_free_node+0x64>
100018f6:	2000      	movs	r0, #0
100018f8:	bd70      	pop	{r4, r5, r6, pc}
100018fa:	7843      	ldrb	r3, [r0, #1]
100018fc:	7033      	strb	r3, [r6, #0]
100018fe:	e7eb      	b.n	100018d8 <ph_remove_and_free_node+0x44>
10001900:	2201      	movs	r2, #1
10001902:	0019      	movs	r1, r3
10001904:	f7ff feac 	bl	10001660 <ph_remove_any_head>
10001908:	7360      	strb	r0, [r4, #13]
1000190a:	2001      	movs	r0, #1
1000190c:	e7f4      	b.n	100018f8 <ph_remove_and_free_node+0x64>
1000190e:	46c0      	nop			; (mov r8, r8)

10001910 <runtime_init>:
10001910:	4b2c      	ldr	r3, [pc, #176]	; (100019c4 <runtime_init+0xb4>)
10001912:	4a2d      	ldr	r2, [pc, #180]	; (100019c8 <runtime_init+0xb8>)
10001914:	b570      	push	{r4, r5, r6, lr}
10001916:	601a      	str	r2, [r3, #0]
10001918:	4a2c      	ldr	r2, [pc, #176]	; (100019cc <runtime_init+0xbc>)
1000191a:	4b2d      	ldr	r3, [pc, #180]	; (100019d0 <runtime_init+0xc0>)
1000191c:	492d      	ldr	r1, [pc, #180]	; (100019d4 <runtime_init+0xc4>)
1000191e:	601a      	str	r2, [r3, #0]
10001920:	0010      	movs	r0, r2
10001922:	688b      	ldr	r3, [r1, #8]
10001924:	4398      	bics	r0, r3
10001926:	d1fb      	bne.n	10001920 <runtime_init+0x10>
10001928:	4c2b      	ldr	r4, [pc, #172]	; (100019d8 <runtime_init+0xc8>)
1000192a:	4b2c      	ldr	r3, [pc, #176]	; (100019dc <runtime_init+0xcc>)
1000192c:	429c      	cmp	r4, r3
1000192e:	d209      	bcs.n	10001944 <runtime_init+0x34>
10001930:	3b01      	subs	r3, #1
10001932:	1b1d      	subs	r5, r3, r4
10001934:	08ad      	lsrs	r5, r5, #2
10001936:	3501      	adds	r5, #1
10001938:	00ad      	lsls	r5, r5, #2
1000193a:	192d      	adds	r5, r5, r4
1000193c:	cc08      	ldmia	r4!, {r3}
1000193e:	4798      	blx	r3
10001940:	42ac      	cmp	r4, r5
10001942:	d1fb      	bne.n	1000193c <runtime_init+0x2c>
10001944:	f000 f87c 	bl	10001a40 <clocks_init>
10001948:	4a25      	ldr	r2, [pc, #148]	; (100019e0 <runtime_init+0xd0>)
1000194a:	4b21      	ldr	r3, [pc, #132]	; (100019d0 <runtime_init+0xc0>)
1000194c:	601a      	str	r2, [r3, #0]
1000194e:	4a21      	ldr	r2, [pc, #132]	; (100019d4 <runtime_init+0xc4>)
10001950:	6893      	ldr	r3, [r2, #8]
10001952:	01db      	lsls	r3, r3, #7
10001954:	3380      	adds	r3, #128	; 0x80
10001956:	d1fb      	bne.n	10001950 <runtime_init+0x40>
10001958:	2240      	movs	r2, #64	; 0x40
1000195a:	4b22      	ldr	r3, [pc, #136]	; (100019e4 <runtime_init+0xd4>)
1000195c:	4c22      	ldr	r4, [pc, #136]	; (100019e8 <runtime_init+0xd8>)
1000195e:	4d23      	ldr	r5, [pc, #140]	; (100019ec <runtime_init+0xdc>)
10001960:	679a      	str	r2, [r3, #120]	; 0x78
10001962:	675a      	str	r2, [r3, #116]	; 0x74
10001964:	671a      	str	r2, [r3, #112]	; 0x70
10001966:	66da      	str	r2, [r3, #108]	; 0x6c
10001968:	42ac      	cmp	r4, r5
1000196a:	d208      	bcs.n	1000197e <runtime_init+0x6e>
1000196c:	6823      	ldr	r3, [r4, #0]
1000196e:	0020      	movs	r0, r4
10001970:	2b00      	cmp	r3, #0
10001972:	d021      	beq.n	100019b8 <runtime_init+0xa8>
10001974:	3408      	adds	r4, #8
10001976:	f7ff fdbd 	bl	100014f4 <recursive_mutex_init>
1000197a:	42ac      	cmp	r4, r5
1000197c:	d3f6      	bcc.n	1000196c <runtime_init+0x5c>
1000197e:	4c1c      	ldr	r4, [pc, #112]	; (100019f0 <runtime_init+0xe0>)
10001980:	4d1c      	ldr	r5, [pc, #112]	; (100019f4 <runtime_init+0xe4>)
10001982:	68a1      	ldr	r1, [r4, #8]
10001984:	22c0      	movs	r2, #192	; 0xc0
10001986:	0028      	movs	r0, r5
10001988:	f000 ff36 	bl	100027f8 <__wrap___aeabi_memcpy>
1000198c:	60a5      	str	r5, [r4, #8]
1000198e:	f7fe ffe7 	bl	10000960 <spin_locks_reset>
10001992:	f000 fb35 	bl	10002000 <irq_init_priorities>
10001996:	f7ff faad 	bl	10000ef4 <alarm_pool_init_default>
1000199a:	4c17      	ldr	r4, [pc, #92]	; (100019f8 <runtime_init+0xe8>)
1000199c:	4b17      	ldr	r3, [pc, #92]	; (100019fc <runtime_init+0xec>)
1000199e:	429c      	cmp	r4, r3
100019a0:	d209      	bcs.n	100019b6 <runtime_init+0xa6>
100019a2:	3b01      	subs	r3, #1
100019a4:	1b1d      	subs	r5, r3, r4
100019a6:	08ad      	lsrs	r5, r5, #2
100019a8:	3501      	adds	r5, #1
100019aa:	00ad      	lsls	r5, r5, #2
100019ac:	192d      	adds	r5, r5, r4
100019ae:	cc08      	ldmia	r4!, {r3}
100019b0:	4798      	blx	r3
100019b2:	42a5      	cmp	r5, r4
100019b4:	d1fb      	bne.n	100019ae <runtime_init+0x9e>
100019b6:	bd70      	pop	{r4, r5, r6, pc}
100019b8:	3408      	adds	r4, #8
100019ba:	f7ff fd8d 	bl	100014d8 <mutex_init>
100019be:	42ac      	cmp	r4, r5
100019c0:	d3d4      	bcc.n	1000196c <runtime_init+0x5c>
100019c2:	e7dc      	b.n	1000197e <runtime_init+0x6e>
100019c4:	4000e000 	.word	0x4000e000
100019c8:	fefbcdbf 	.word	0xfefbcdbf
100019cc:	003c7ffe 	.word	0x003c7ffe
100019d0:	4000f000 	.word	0x4000f000
100019d4:	4000c000 	.word	0x4000c000
100019d8:	20000348 	.word	0x20000348
100019dc:	20000358 	.word	0x20000358
100019e0:	01ffffff 	.word	0x01ffffff
100019e4:	4001f000 	.word	0x4001f000
100019e8:	20000340 	.word	0x20000340
100019ec:	20000348 	.word	0x20000348
100019f0:	e000ed00 	.word	0xe000ed00
100019f4:	20000000 	.word	0x20000000
100019f8:	20000358 	.word	0x20000358
100019fc:	20000360 	.word	0x20000360

10001a00 <exit>:
10001a00:	be00      	bkpt	0x0000
10001a02:	e7fd      	b.n	10001a00 <exit>

10001a04 <panic>:
10001a04:	b40f      	push	{r0, r1, r2, r3}
10001a06:	b500      	push	{lr}
10001a08:	4808      	ldr	r0, [pc, #32]	; (10001a2c <panic+0x28>)
10001a0a:	b083      	sub	sp, #12
10001a0c:	f001 f81e 	bl	10002a4c <__wrap_puts>
10001a10:	9b04      	ldr	r3, [sp, #16]
10001a12:	2b00      	cmp	r3, #0
10001a14:	d007      	beq.n	10001a26 <panic+0x22>
10001a16:	a905      	add	r1, sp, #20
10001a18:	0018      	movs	r0, r3
10001a1a:	9101      	str	r1, [sp, #4]
10001a1c:	f000 fb78 	bl	10002110 <weak_raw_vprintf>
10001a20:	4803      	ldr	r0, [pc, #12]	; (10001a30 <panic+0x2c>)
10001a22:	f001 f813 	bl	10002a4c <__wrap_puts>
10001a26:	be00      	bkpt	0x0000
10001a28:	e7fd      	b.n	10001a26 <panic+0x22>
10001a2a:	46c0      	nop			; (mov r8, r8)
10001a2c:	10005720 	.word	0x10005720
10001a30:	10005730 	.word	0x10005730

10001a34 <hard_assertion_failure>:
10001a34:	b510      	push	{r4, lr}
10001a36:	4801      	ldr	r0, [pc, #4]	; (10001a3c <hard_assertion_failure+0x8>)
10001a38:	f7ff ffe4 	bl	10001a04 <panic>
10001a3c:	10005734 	.word	0x10005734

10001a40 <clocks_init>:
10001a40:	b530      	push	{r4, r5, lr}
10001a42:	200c      	movs	r0, #12
10001a44:	b083      	sub	sp, #12
10001a46:	f000 fb3f 	bl	100020c8 <watchdog_start_tick>
10001a4a:	f7fe ff7b 	bl	10000944 <running_on_fpga>
10001a4e:	2800      	cmp	r0, #0
10001a50:	d00e      	beq.n	10001a70 <clocks_init+0x30>
10001a52:	4b94      	ldr	r3, [pc, #592]	; (10001ca4 <clocks_init+0x264>)
10001a54:	4a94      	ldr	r2, [pc, #592]	; (10001ca8 <clocks_init+0x268>)
10001a56:	601a      	str	r2, [r3, #0]
10001a58:	605a      	str	r2, [r3, #4]
10001a5a:	609a      	str	r2, [r3, #8]
10001a5c:	60da      	str	r2, [r3, #12]
10001a5e:	611a      	str	r2, [r3, #16]
10001a60:	615a      	str	r2, [r3, #20]
10001a62:	619a      	str	r2, [r3, #24]
10001a64:	61da      	str	r2, [r3, #28]
10001a66:	621a      	str	r2, [r3, #32]
10001a68:	4a90      	ldr	r2, [pc, #576]	; (10001cac <clocks_init+0x26c>)
10001a6a:	625a      	str	r2, [r3, #36]	; 0x24
10001a6c:	b003      	add	sp, #12
10001a6e:	bd30      	pop	{r4, r5, pc}
10001a70:	4c8f      	ldr	r4, [pc, #572]	; (10001cb0 <clocks_init+0x270>)
10001a72:	67a0      	str	r0, [r4, #120]	; 0x78
10001a74:	f000 fb30 	bl	100020d8 <xosc_init>
10001a78:	2201      	movs	r2, #1
10001a7a:	4b8e      	ldr	r3, [pc, #568]	; (10001cb4 <clocks_init+0x274>)
10001a7c:	601a      	str	r2, [r3, #0]
10001a7e:	6c63      	ldr	r3, [r4, #68]	; 0x44
10001a80:	2b01      	cmp	r3, #1
10001a82:	d1fc      	bne.n	10001a7e <clocks_init+0x3e>
10001a84:	2203      	movs	r2, #3
10001a86:	4b8c      	ldr	r3, [pc, #560]	; (10001cb8 <clocks_init+0x278>)
10001a88:	601a      	str	r2, [r3, #0]
10001a8a:	4a89      	ldr	r2, [pc, #548]	; (10001cb0 <clocks_init+0x270>)
10001a8c:	6b93      	ldr	r3, [r2, #56]	; 0x38
10001a8e:	2b01      	cmp	r3, #1
10001a90:	d1fc      	bne.n	10001a8c <clocks_init+0x4c>
10001a92:	2402      	movs	r4, #2
10001a94:	2101      	movs	r1, #1
10001a96:	4a89      	ldr	r2, [pc, #548]	; (10001cbc <clocks_init+0x27c>)
10001a98:	4889      	ldr	r0, [pc, #548]	; (10001cc0 <clocks_init+0x280>)
10001a9a:	3305      	adds	r3, #5
10001a9c:	9400      	str	r4, [sp, #0]
10001a9e:	f000 fac1 	bl	10002024 <pll_init>
10001aa2:	2305      	movs	r3, #5
10001aa4:	4a87      	ldr	r2, [pc, #540]	; (10001cc4 <clocks_init+0x284>)
10001aa6:	2101      	movs	r1, #1
10001aa8:	4887      	ldr	r0, [pc, #540]	; (10001cc8 <clocks_init+0x288>)
10001aaa:	9400      	str	r4, [sp, #0]
10001aac:	f000 faba 	bl	10002024 <pll_init>
10001ab0:	4b86      	ldr	r3, [pc, #536]	; (10001ccc <clocks_init+0x28c>)
10001ab2:	685a      	ldr	r2, [r3, #4]
10001ab4:	2aff      	cmp	r2, #255	; 0xff
10001ab6:	d802      	bhi.n	10001abe <clocks_init+0x7e>
10001ab8:	2280      	movs	r2, #128	; 0x80
10001aba:	0052      	lsls	r2, r2, #1
10001abc:	605a      	str	r2, [r3, #4]
10001abe:	2280      	movs	r2, #128	; 0x80
10001ac0:	4c78      	ldr	r4, [pc, #480]	; (10001ca4 <clocks_init+0x264>)
10001ac2:	4b7d      	ldr	r3, [pc, #500]	; (10001cb8 <clocks_init+0x278>)
10001ac4:	6921      	ldr	r1, [r4, #16]
10001ac6:	0112      	lsls	r2, r2, #4
10001ac8:	4d80      	ldr	r5, [pc, #512]	; (10001ccc <clocks_init+0x28c>)
10001aca:	601a      	str	r2, [r3, #0]
10001acc:	2900      	cmp	r1, #0
10001ace:	d005      	beq.n	10001adc <clocks_init+0x9c>
10001ad0:	6960      	ldr	r0, [r4, #20]
10001ad2:	f000 fb6b 	bl	100021ac <__wrap___aeabi_uidiv>
10001ad6:	3001      	adds	r0, #1
10001ad8:	3801      	subs	r0, #1
10001ada:	d1fd      	bne.n	10001ad8 <clocks_init+0x98>
10001adc:	21e0      	movs	r1, #224	; 0xe0
10001ade:	4b7b      	ldr	r3, [pc, #492]	; (10001ccc <clocks_init+0x28c>)
10001ae0:	2002      	movs	r0, #2
10001ae2:	681a      	ldr	r2, [r3, #0]
10001ae4:	4011      	ands	r1, r2
10001ae6:	2280      	movs	r2, #128	; 0x80
10001ae8:	0152      	lsls	r2, r2, #5
10001aea:	432a      	orrs	r2, r5
10001aec:	6011      	str	r1, [r2, #0]
10001aee:	6819      	ldr	r1, [r3, #0]
10001af0:	4048      	eors	r0, r1
10001af2:	2103      	movs	r1, #3
10001af4:	4001      	ands	r1, r0
10001af6:	6011      	str	r1, [r2, #0]
10001af8:	2104      	movs	r1, #4
10001afa:	689a      	ldr	r2, [r3, #8]
10001afc:	4211      	tst	r1, r2
10001afe:	d0fc      	beq.n	10001afa <clocks_init+0xba>
10001b00:	2280      	movs	r2, #128	; 0x80
10001b02:	2180      	movs	r1, #128	; 0x80
10001b04:	0192      	lsls	r2, r2, #6
10001b06:	432a      	orrs	r2, r5
10001b08:	0109      	lsls	r1, r1, #4
10001b0a:	6011      	str	r1, [r2, #0]
10001b0c:	2280      	movs	r2, #128	; 0x80
10001b0e:	0052      	lsls	r2, r2, #1
10001b10:	605a      	str	r2, [r3, #4]
10001b12:	4b6f      	ldr	r3, [pc, #444]	; (10001cd0 <clocks_init+0x290>)
10001b14:	6123      	str	r3, [r4, #16]
10001b16:	4b6f      	ldr	r3, [pc, #444]	; (10001cd4 <clocks_init+0x294>)
10001b18:	6859      	ldr	r1, [r3, #4]
10001b1a:	29ff      	cmp	r1, #255	; 0xff
10001b1c:	d800      	bhi.n	10001b20 <clocks_init+0xe0>
10001b1e:	605a      	str	r2, [r3, #4]
10001b20:	2203      	movs	r2, #3
10001b22:	486c      	ldr	r0, [pc, #432]	; (10001cd4 <clocks_init+0x294>)
10001b24:	4b63      	ldr	r3, [pc, #396]	; (10001cb4 <clocks_init+0x274>)
10001b26:	2101      	movs	r1, #1
10001b28:	601a      	str	r2, [r3, #0]
10001b2a:	0002      	movs	r2, r0
10001b2c:	6893      	ldr	r3, [r2, #8]
10001b2e:	4219      	tst	r1, r3
10001b30:	d0fc      	beq.n	10001b2c <clocks_init+0xec>
10001b32:	25e0      	movs	r5, #224	; 0xe0
10001b34:	6813      	ldr	r3, [r2, #0]
10001b36:	401d      	ands	r5, r3
10001b38:	2380      	movs	r3, #128	; 0x80
10001b3a:	015b      	lsls	r3, r3, #5
10001b3c:	4303      	orrs	r3, r0
10001b3e:	601d      	str	r5, [r3, #0]
10001b40:	6812      	ldr	r2, [r2, #0]
10001b42:	404a      	eors	r2, r1
10001b44:	2103      	movs	r1, #3
10001b46:	4011      	ands	r1, r2
10001b48:	6019      	str	r1, [r3, #0]
10001b4a:	2102      	movs	r1, #2
10001b4c:	4a61      	ldr	r2, [pc, #388]	; (10001cd4 <clocks_init+0x294>)
10001b4e:	6893      	ldr	r3, [r2, #8]
10001b50:	4219      	tst	r1, r3
10001b52:	d0fc      	beq.n	10001b4e <clocks_init+0x10e>
10001b54:	2380      	movs	r3, #128	; 0x80
10001b56:	2180      	movs	r1, #128	; 0x80
10001b58:	019b      	lsls	r3, r3, #6
10001b5a:	4303      	orrs	r3, r0
10001b5c:	0109      	lsls	r1, r1, #4
10001b5e:	6019      	str	r1, [r3, #0]
10001b60:	2180      	movs	r1, #128	; 0x80
10001b62:	4b5d      	ldr	r3, [pc, #372]	; (10001cd8 <clocks_init+0x298>)
10001b64:	0049      	lsls	r1, r1, #1
10001b66:	6051      	str	r1, [r2, #4]
10001b68:	6163      	str	r3, [r4, #20]
10001b6a:	4b5c      	ldr	r3, [pc, #368]	; (10001cdc <clocks_init+0x29c>)
10001b6c:	685a      	ldr	r2, [r3, #4]
10001b6e:	2aff      	cmp	r2, #255	; 0xff
10001b70:	d800      	bhi.n	10001b74 <clocks_init+0x134>
10001b72:	6059      	str	r1, [r3, #4]
10001b74:	2280      	movs	r2, #128	; 0x80
10001b76:	4b5a      	ldr	r3, [pc, #360]	; (10001ce0 <clocks_init+0x2a0>)
10001b78:	69e1      	ldr	r1, [r4, #28]
10001b7a:	0112      	lsls	r2, r2, #4
10001b7c:	4d57      	ldr	r5, [pc, #348]	; (10001cdc <clocks_init+0x29c>)
10001b7e:	601a      	str	r2, [r3, #0]
10001b80:	2900      	cmp	r1, #0
10001b82:	d005      	beq.n	10001b90 <clocks_init+0x150>
10001b84:	6960      	ldr	r0, [r4, #20]
10001b86:	f000 fb11 	bl	100021ac <__wrap___aeabi_uidiv>
10001b8a:	3001      	adds	r0, #1
10001b8c:	3801      	subs	r0, #1
10001b8e:	d1fd      	bne.n	10001b8c <clocks_init+0x14c>
10001b90:	22e0      	movs	r2, #224	; 0xe0
10001b92:	4952      	ldr	r1, [pc, #328]	; (10001cdc <clocks_init+0x29c>)
10001b94:	680b      	ldr	r3, [r1, #0]
10001b96:	401a      	ands	r2, r3
10001b98:	2380      	movs	r3, #128	; 0x80
10001b9a:	015b      	lsls	r3, r3, #5
10001b9c:	432b      	orrs	r3, r5
10001b9e:	601a      	str	r2, [r3, #0]
10001ba0:	2380      	movs	r3, #128	; 0x80
10001ba2:	2280      	movs	r2, #128	; 0x80
10001ba4:	019b      	lsls	r3, r3, #6
10001ba6:	432b      	orrs	r3, r5
10001ba8:	0112      	lsls	r2, r2, #4
10001baa:	601a      	str	r2, [r3, #0]
10001bac:	2280      	movs	r2, #128	; 0x80
10001bae:	4b3e      	ldr	r3, [pc, #248]	; (10001ca8 <clocks_init+0x268>)
10001bb0:	0052      	lsls	r2, r2, #1
10001bb2:	604a      	str	r2, [r1, #4]
10001bb4:	61e3      	str	r3, [r4, #28]
10001bb6:	4b4b      	ldr	r3, [pc, #300]	; (10001ce4 <clocks_init+0x2a4>)
10001bb8:	6859      	ldr	r1, [r3, #4]
10001bba:	29ff      	cmp	r1, #255	; 0xff
10001bbc:	d800      	bhi.n	10001bc0 <clocks_init+0x180>
10001bbe:	605a      	str	r2, [r3, #4]
10001bc0:	2280      	movs	r2, #128	; 0x80
10001bc2:	4b49      	ldr	r3, [pc, #292]	; (10001ce8 <clocks_init+0x2a8>)
10001bc4:	6a21      	ldr	r1, [r4, #32]
10001bc6:	0112      	lsls	r2, r2, #4
10001bc8:	4d46      	ldr	r5, [pc, #280]	; (10001ce4 <clocks_init+0x2a4>)
10001bca:	601a      	str	r2, [r3, #0]
10001bcc:	2900      	cmp	r1, #0
10001bce:	d005      	beq.n	10001bdc <clocks_init+0x19c>
10001bd0:	6960      	ldr	r0, [r4, #20]
10001bd2:	f000 faeb 	bl	100021ac <__wrap___aeabi_uidiv>
10001bd6:	3001      	adds	r0, #1
10001bd8:	3801      	subs	r0, #1
10001bda:	d1fd      	bne.n	10001bd8 <clocks_init+0x198>
10001bdc:	22e0      	movs	r2, #224	; 0xe0
10001bde:	4941      	ldr	r1, [pc, #260]	; (10001ce4 <clocks_init+0x2a4>)
10001be0:	680b      	ldr	r3, [r1, #0]
10001be2:	401a      	ands	r2, r3
10001be4:	2380      	movs	r3, #128	; 0x80
10001be6:	015b      	lsls	r3, r3, #5
10001be8:	432b      	orrs	r3, r5
10001bea:	601a      	str	r2, [r3, #0]
10001bec:	2380      	movs	r3, #128	; 0x80
10001bee:	2280      	movs	r2, #128	; 0x80
10001bf0:	019b      	lsls	r3, r3, #6
10001bf2:	432b      	orrs	r3, r5
10001bf4:	0112      	lsls	r2, r2, #4
10001bf6:	601a      	str	r2, [r3, #0]
10001bf8:	2380      	movs	r3, #128	; 0x80
10001bfa:	2280      	movs	r2, #128	; 0x80
10001bfc:	005b      	lsls	r3, r3, #1
10001bfe:	604b      	str	r3, [r1, #4]
10001c00:	4b29      	ldr	r3, [pc, #164]	; (10001ca8 <clocks_init+0x268>)
10001c02:	02d2      	lsls	r2, r2, #11
10001c04:	6223      	str	r3, [r4, #32]
10001c06:	4b39      	ldr	r3, [pc, #228]	; (10001cec <clocks_init+0x2ac>)
10001c08:	6859      	ldr	r1, [r3, #4]
10001c0a:	4291      	cmp	r1, r2
10001c0c:	d200      	bcs.n	10001c10 <clocks_init+0x1d0>
10001c0e:	605a      	str	r2, [r3, #4]
10001c10:	2280      	movs	r2, #128	; 0x80
10001c12:	4b37      	ldr	r3, [pc, #220]	; (10001cf0 <clocks_init+0x2b0>)
10001c14:	6a61      	ldr	r1, [r4, #36]	; 0x24
10001c16:	0112      	lsls	r2, r2, #4
10001c18:	4d34      	ldr	r5, [pc, #208]	; (10001cec <clocks_init+0x2ac>)
10001c1a:	601a      	str	r2, [r3, #0]
10001c1c:	2900      	cmp	r1, #0
10001c1e:	d005      	beq.n	10001c2c <clocks_init+0x1ec>
10001c20:	6960      	ldr	r0, [r4, #20]
10001c22:	f000 fac3 	bl	100021ac <__wrap___aeabi_uidiv>
10001c26:	3001      	adds	r0, #1
10001c28:	3801      	subs	r0, #1
10001c2a:	d1fd      	bne.n	10001c28 <clocks_init+0x1e8>
10001c2c:	22e0      	movs	r2, #224	; 0xe0
10001c2e:	492f      	ldr	r1, [pc, #188]	; (10001cec <clocks_init+0x2ac>)
10001c30:	680b      	ldr	r3, [r1, #0]
10001c32:	401a      	ands	r2, r3
10001c34:	2380      	movs	r3, #128	; 0x80
10001c36:	015b      	lsls	r3, r3, #5
10001c38:	432b      	orrs	r3, r5
10001c3a:	601a      	str	r2, [r3, #0]
10001c3c:	2380      	movs	r3, #128	; 0x80
10001c3e:	2280      	movs	r2, #128	; 0x80
10001c40:	019b      	lsls	r3, r3, #6
10001c42:	432b      	orrs	r3, r5
10001c44:	0112      	lsls	r2, r2, #4
10001c46:	601a      	str	r2, [r3, #0]
10001c48:	2380      	movs	r3, #128	; 0x80
10001c4a:	02db      	lsls	r3, r3, #11
10001c4c:	604b      	str	r3, [r1, #4]
10001c4e:	4b17      	ldr	r3, [pc, #92]	; (10001cac <clocks_init+0x26c>)
10001c50:	6263      	str	r3, [r4, #36]	; 0x24
10001c52:	4b28      	ldr	r3, [pc, #160]	; (10001cf4 <clocks_init+0x2b4>)
10001c54:	685a      	ldr	r2, [r3, #4]
10001c56:	2aff      	cmp	r2, #255	; 0xff
10001c58:	d802      	bhi.n	10001c60 <clocks_init+0x220>
10001c5a:	2280      	movs	r2, #128	; 0x80
10001c5c:	0052      	lsls	r2, r2, #1
10001c5e:	605a      	str	r2, [r3, #4]
10001c60:	2280      	movs	r2, #128	; 0x80
10001c62:	4b25      	ldr	r3, [pc, #148]	; (10001cf8 <clocks_init+0x2b8>)
10001c64:	69a1      	ldr	r1, [r4, #24]
10001c66:	0112      	lsls	r2, r2, #4
10001c68:	4d22      	ldr	r5, [pc, #136]	; (10001cf4 <clocks_init+0x2b4>)
10001c6a:	601a      	str	r2, [r3, #0]
10001c6c:	2900      	cmp	r1, #0
10001c6e:	d005      	beq.n	10001c7c <clocks_init+0x23c>
10001c70:	6960      	ldr	r0, [r4, #20]
10001c72:	f000 fa9b 	bl	100021ac <__wrap___aeabi_uidiv>
10001c76:	3001      	adds	r0, #1
10001c78:	3801      	subs	r0, #1
10001c7a:	d1fd      	bne.n	10001c78 <clocks_init+0x238>
10001c7c:	22e0      	movs	r2, #224	; 0xe0
10001c7e:	491d      	ldr	r1, [pc, #116]	; (10001cf4 <clocks_init+0x2b4>)
10001c80:	680b      	ldr	r3, [r1, #0]
10001c82:	401a      	ands	r2, r3
10001c84:	2380      	movs	r3, #128	; 0x80
10001c86:	015b      	lsls	r3, r3, #5
10001c88:	432b      	orrs	r3, r5
10001c8a:	601a      	str	r2, [r3, #0]
10001c8c:	2380      	movs	r3, #128	; 0x80
10001c8e:	2280      	movs	r2, #128	; 0x80
10001c90:	019b      	lsls	r3, r3, #6
10001c92:	432b      	orrs	r3, r5
10001c94:	0112      	lsls	r2, r2, #4
10001c96:	601a      	str	r2, [r3, #0]
10001c98:	2380      	movs	r3, #128	; 0x80
10001c9a:	005b      	lsls	r3, r3, #1
10001c9c:	604b      	str	r3, [r1, #4]
10001c9e:	4b0e      	ldr	r3, [pc, #56]	; (10001cd8 <clocks_init+0x298>)
10001ca0:	61a3      	str	r3, [r4, #24]
10001ca2:	e6e3      	b.n	10001a6c <clocks_init+0x2c>
10001ca4:	2000059c 	.word	0x2000059c
10001ca8:	02dc6c00 	.word	0x02dc6c00
10001cac:	0000b71b 	.word	0x0000b71b
10001cb0:	40008000 	.word	0x40008000
10001cb4:	4000b03c 	.word	0x4000b03c
10001cb8:	4000b030 	.word	0x4000b030
10001cbc:	59682f00 	.word	0x59682f00
10001cc0:	40028000 	.word	0x40028000
10001cc4:	1c9c3800 	.word	0x1c9c3800
10001cc8:	4002c000 	.word	0x4002c000
10001ccc:	40008030 	.word	0x40008030
10001cd0:	00b71b00 	.word	0x00b71b00
10001cd4:	4000803c 	.word	0x4000803c
10001cd8:	07735940 	.word	0x07735940
10001cdc:	40008054 	.word	0x40008054
10001ce0:	4000b054 	.word	0x4000b054
10001ce4:	40008060 	.word	0x40008060
10001ce8:	4000b060 	.word	0x4000b060
10001cec:	4000806c 	.word	0x4000806c
10001cf0:	4000b06c 	.word	0x4000b06c
10001cf4:	40008048 	.word	0x40008048
10001cf8:	4000b048 	.word	0x4000b048

10001cfc <clock_get_hz>:
10001cfc:	4b01      	ldr	r3, [pc, #4]	; (10001d04 <clock_get_hz+0x8>)
10001cfe:	0080      	lsls	r0, r0, #2
10001d00:	58c0      	ldr	r0, [r0, r3]
10001d02:	4770      	bx	lr
10001d04:	2000059c 	.word	0x2000059c

10001d08 <irq_set_enabled>:
10001d08:	2301      	movs	r3, #1
10001d0a:	4083      	lsls	r3, r0
10001d0c:	2900      	cmp	r1, #0
10001d0e:	d004      	beq.n	10001d1a <irq_set_enabled+0x12>
10001d10:	4a03      	ldr	r2, [pc, #12]	; (10001d20 <irq_set_enabled+0x18>)
10001d12:	6013      	str	r3, [r2, #0]
10001d14:	4a03      	ldr	r2, [pc, #12]	; (10001d24 <irq_set_enabled+0x1c>)
10001d16:	6013      	str	r3, [r2, #0]
10001d18:	4770      	bx	lr
10001d1a:	4a03      	ldr	r2, [pc, #12]	; (10001d28 <irq_set_enabled+0x20>)
10001d1c:	6013      	str	r3, [r2, #0]
10001d1e:	e7fb      	b.n	10001d18 <irq_set_enabled+0x10>
10001d20:	e000e280 	.word	0xe000e280
10001d24:	e000e100 	.word	0xe000e100
10001d28:	e000e180 	.word	0xe000e180

10001d2c <irq_get_vtable_handler>:
10001d2c:	4b02      	ldr	r3, [pc, #8]	; (10001d38 <irq_get_vtable_handler+0xc>)
10001d2e:	3010      	adds	r0, #16
10001d30:	689b      	ldr	r3, [r3, #8]
10001d32:	0080      	lsls	r0, r0, #2
10001d34:	58c0      	ldr	r0, [r0, r3]
10001d36:	4770      	bx	lr
10001d38:	e000ed00 	.word	0xe000ed00

10001d3c <irq_set_exclusive_handler>:
10001d3c:	b570      	push	{r4, r5, r6, lr}
10001d3e:	000d      	movs	r5, r1
10001d40:	f3ef 8610 	mrs	r6, PRIMASK
10001d44:	b672      	cpsid	i
10001d46:	4a0f      	ldr	r2, [pc, #60]	; (10001d84 <irq_set_exclusive_handler+0x48>)
10001d48:	6813      	ldr	r3, [r2, #0]
10001d4a:	2b00      	cmp	r3, #0
10001d4c:	d0fc      	beq.n	10001d48 <irq_set_exclusive_handler+0xc>
10001d4e:	f3bf 8f5f 	dmb	sy
10001d52:	4b0d      	ldr	r3, [pc, #52]	; (10001d88 <irq_set_exclusive_handler+0x4c>)
10001d54:	3010      	adds	r0, #16
10001d56:	689b      	ldr	r3, [r3, #8]
10001d58:	0084      	lsls	r4, r0, #2
10001d5a:	591b      	ldr	r3, [r3, r4]
10001d5c:	4a0b      	ldr	r2, [pc, #44]	; (10001d8c <irq_set_exclusive_handler+0x50>)
10001d5e:	4293      	cmp	r3, r2
10001d60:	d003      	beq.n	10001d6a <irq_set_exclusive_handler+0x2e>
10001d62:	429d      	cmp	r5, r3
10001d64:	d001      	beq.n	10001d6a <irq_set_exclusive_handler+0x2e>
10001d66:	f7ff fe65 	bl	10001a34 <hard_assertion_failure>
10001d6a:	4b07      	ldr	r3, [pc, #28]	; (10001d88 <irq_set_exclusive_handler+0x4c>)
10001d6c:	689b      	ldr	r3, [r3, #8]
10001d6e:	511d      	str	r5, [r3, r4]
10001d70:	f3bf 8f5f 	dmb	sy
10001d74:	f3bf 8f5f 	dmb	sy
10001d78:	2200      	movs	r2, #0
10001d7a:	4b02      	ldr	r3, [pc, #8]	; (10001d84 <irq_set_exclusive_handler+0x48>)
10001d7c:	601a      	str	r2, [r3, #0]
10001d7e:	f386 8810 	msr	PRIMASK, r6
10001d82:	bd70      	pop	{r4, r5, r6, pc}
10001d84:	d0000124 	.word	0xd0000124
10001d88:	e000ed00 	.word	0xe000ed00
10001d8c:	100001cd 	.word	0x100001cd

10001d90 <irq_remove_handler>:
10001d90:	b5f0      	push	{r4, r5, r6, r7, lr}
10001d92:	46de      	mov	lr, fp
10001d94:	4657      	mov	r7, sl
10001d96:	464e      	mov	r6, r9
10001d98:	4645      	mov	r5, r8
10001d9a:	b5e0      	push	{r5, r6, r7, lr}
10001d9c:	000c      	movs	r4, r1
10001d9e:	b083      	sub	sp, #12
10001da0:	f3ef 8a10 	mrs	sl, PRIMASK
10001da4:	b672      	cpsid	i
10001da6:	4a5b      	ldr	r2, [pc, #364]	; (10001f14 <irq_remove_handler+0x184>)
10001da8:	6813      	ldr	r3, [r2, #0]
10001daa:	2b00      	cmp	r3, #0
10001dac:	d0fc      	beq.n	10001da8 <irq_remove_handler+0x18>
10001dae:	f3bf 8f5f 	dmb	sy
10001db2:	2210      	movs	r2, #16
10001db4:	4691      	mov	r9, r2
10001db6:	4481      	add	r9, r0
10001db8:	464a      	mov	r2, r9
10001dba:	4b57      	ldr	r3, [pc, #348]	; (10001f18 <irq_remove_handler+0x188>)
10001dbc:	0096      	lsls	r6, r2, #2
10001dbe:	689b      	ldr	r3, [r3, #8]
10001dc0:	599d      	ldr	r5, [r3, r6]
10001dc2:	4b56      	ldr	r3, [pc, #344]	; (10001f1c <irq_remove_handler+0x18c>)
10001dc4:	4698      	mov	r8, r3
10001dc6:	429d      	cmp	r5, r3
10001dc8:	d005      	beq.n	10001dd6 <irq_remove_handler+0x46>
10001dca:	42a5      	cmp	r5, r4
10001dcc:	d016      	beq.n	10001dfc <irq_remove_handler+0x6c>
10001dce:	4f54      	ldr	r7, [pc, #336]	; (10001f20 <irq_remove_handler+0x190>)
10001dd0:	1beb      	subs	r3, r5, r7
10001dd2:	2b2f      	cmp	r3, #47	; 0x2f
10001dd4:	d914      	bls.n	10001e00 <irq_remove_handler+0x70>
10001dd6:	4b50      	ldr	r3, [pc, #320]	; (10001f18 <irq_remove_handler+0x188>)
10001dd8:	689b      	ldr	r3, [r3, #8]
10001dda:	519d      	str	r5, [r3, r6]
10001ddc:	f3bf 8f5f 	dmb	sy
10001de0:	f3bf 8f5f 	dmb	sy
10001de4:	2200      	movs	r2, #0
10001de6:	4b4b      	ldr	r3, [pc, #300]	; (10001f14 <irq_remove_handler+0x184>)
10001de8:	601a      	str	r2, [r3, #0]
10001dea:	f38a 8810 	msr	PRIMASK, sl
10001dee:	b003      	add	sp, #12
10001df0:	bc3c      	pop	{r2, r3, r4, r5}
10001df2:	4690      	mov	r8, r2
10001df4:	4699      	mov	r9, r3
10001df6:	46a2      	mov	sl, r4
10001df8:	46ab      	mov	fp, r5
10001dfa:	bdf0      	pop	{r4, r5, r6, r7, pc}
10001dfc:	001d      	movs	r5, r3
10001dfe:	e7ea      	b.n	10001dd6 <irq_remove_handler+0x46>
10001e00:	2301      	movs	r3, #1
10001e02:	4083      	lsls	r3, r0
10001e04:	469b      	mov	fp, r3
10001e06:	465a      	mov	r2, fp
10001e08:	4b46      	ldr	r3, [pc, #280]	; (10001f24 <irq_remove_handler+0x194>)
10001e0a:	681b      	ldr	r3, [r3, #0]
10001e0c:	401a      	ands	r2, r3
10001e0e:	9200      	str	r2, [sp, #0]
10001e10:	465a      	mov	r2, fp
10001e12:	4b45      	ldr	r3, [pc, #276]	; (10001f28 <irq_remove_handler+0x198>)
10001e14:	601a      	str	r2, [r3, #0]
10001e16:	f3bf 8f5f 	dmb	sy
10001e1a:	f7fe fa24 	bl	10000266 <__get_current_exception>
10001e1e:	9001      	str	r0, [sp, #4]
10001e20:	2800      	cmp	r0, #0
10001e22:	d003      	beq.n	10001e2c <irq_remove_handler+0x9c>
10001e24:	4581      	cmp	r9, r0
10001e26:	d001      	beq.n	10001e2c <irq_remove_handler+0x9c>
10001e28:	f7ff fe04 	bl	10001a34 <hard_assertion_failure>
10001e2c:	2301      	movs	r3, #1
10001e2e:	002a      	movs	r2, r5
10001e30:	439a      	bics	r2, r3
10001e32:	0013      	movs	r3, r2
10001e34:	493d      	ldr	r1, [pc, #244]	; (10001f2c <irq_remove_handler+0x19c>)
10001e36:	1bdb      	subs	r3, r3, r7
10001e38:	415b      	adcs	r3, r3
10001e3a:	4359      	muls	r1, r3
10001e3c:	0d09      	lsrs	r1, r1, #20
10001e3e:	6893      	ldr	r3, [r2, #8]
10001e40:	429c      	cmp	r4, r3
10001e42:	d108      	bne.n	10001e56 <irq_remove_handler+0xc6>
10001e44:	e05b      	b.n	10001efe <irq_remove_handler+0x16e>
10001e46:	0043      	lsls	r3, r0, #1
10001e48:	181b      	adds	r3, r3, r0
10001e4a:	009b      	lsls	r3, r3, #2
10001e4c:	18fb      	adds	r3, r7, r3
10001e4e:	6898      	ldr	r0, [r3, #8]
10001e50:	42a0      	cmp	r0, r4
10001e52:	d011      	beq.n	10001e78 <irq_remove_handler+0xe8>
10001e54:	001a      	movs	r2, r3
10001e56:	2006      	movs	r0, #6
10001e58:	5610      	ldrsb	r0, [r2, r0]
10001e5a:	2800      	cmp	r0, #0
10001e5c:	daf3      	bge.n	10001e46 <irq_remove_handler+0xb6>
10001e5e:	9b00      	ldr	r3, [sp, #0]
10001e60:	2b00      	cmp	r3, #0
10001e62:	d005      	beq.n	10001e70 <irq_remove_handler+0xe0>
10001e64:	465a      	mov	r2, fp
10001e66:	4b32      	ldr	r3, [pc, #200]	; (10001f30 <irq_remove_handler+0x1a0>)
10001e68:	601a      	str	r2, [r3, #0]
10001e6a:	4b2e      	ldr	r3, [pc, #184]	; (10001f24 <irq_remove_handler+0x194>)
10001e6c:	601a      	str	r2, [r3, #0]
10001e6e:	e7b2      	b.n	10001dd6 <irq_remove_handler+0x46>
10001e70:	465a      	mov	r2, fp
10001e72:	4b2d      	ldr	r3, [pc, #180]	; (10001f28 <irq_remove_handler+0x198>)
10001e74:	601a      	str	r2, [r3, #0]
10001e76:	e7ae      	b.n	10001dd6 <irq_remove_handler+0x46>
10001e78:	2006      	movs	r0, #6
10001e7a:	5618      	ldrsb	r0, [r3, r0]
10001e7c:	2800      	cmp	r0, #0
10001e7e:	db22      	blt.n	10001ec6 <irq_remove_handler+0x136>
10001e80:	0042      	lsls	r2, r0, #1
10001e82:	1811      	adds	r1, r2, r0
10001e84:	0089      	lsls	r1, r1, #2
10001e86:	187c      	adds	r4, r7, r1
10001e88:	4688      	mov	r8, r1
10001e8a:	68a1      	ldr	r1, [r4, #8]
10001e8c:	6099      	str	r1, [r3, #8]
10001e8e:	79e1      	ldrb	r1, [r4, #7]
10001e90:	71d9      	strb	r1, [r3, #7]
10001e92:	2106      	movs	r1, #6
10001e94:	5661      	ldrsb	r1, [r4, r1]
10001e96:	7199      	strb	r1, [r3, #6]
10001e98:	79a1      	ldrb	r1, [r4, #6]
10001e9a:	297f      	cmp	r1, #127	; 0x7f
10001e9c:	d81f      	bhi.n	10001ede <irq_remove_handler+0x14e>
10001e9e:	88a4      	ldrh	r4, [r4, #4]
10001ea0:	1af9      	subs	r1, r7, r3
10001ea2:	0564      	lsls	r4, r4, #21
10001ea4:	1524      	asrs	r4, r4, #20
10001ea6:	4444      	add	r4, r8
10001ea8:	1909      	adds	r1, r1, r4
10001eaa:	24e0      	movs	r4, #224	; 0xe0
10001eac:	0509      	lsls	r1, r1, #20
10001eae:	0d49      	lsrs	r1, r1, #21
10001eb0:	0224      	lsls	r4, r4, #8
10001eb2:	4321      	orrs	r1, r4
10001eb4:	8099      	strh	r1, [r3, #4]
10001eb6:	1812      	adds	r2, r2, r0
10001eb8:	4b1e      	ldr	r3, [pc, #120]	; (10001f34 <irq_remove_handler+0x1a4>)
10001eba:	0092      	lsls	r2, r2, #2
10001ebc:	18bf      	adds	r7, r7, r2
10001ebe:	781a      	ldrb	r2, [r3, #0]
10001ec0:	7018      	strb	r0, [r3, #0]
10001ec2:	71ba      	strb	r2, [r7, #6]
10001ec4:	e7cb      	b.n	10001e5e <irq_remove_handler+0xce>
10001ec6:	9801      	ldr	r0, [sp, #4]
10001ec8:	2800      	cmp	r0, #0
10001eca:	d10b      	bne.n	10001ee4 <irq_remove_handler+0x154>
10001ecc:	30ff      	adds	r0, #255	; 0xff
10001ece:	7190      	strb	r0, [r2, #6]
10001ed0:	4819      	ldr	r0, [pc, #100]	; (10001f38 <irq_remove_handler+0x1a8>)
10001ed2:	8090      	strh	r0, [r2, #4]
10001ed4:	4a17      	ldr	r2, [pc, #92]	; (10001f34 <irq_remove_handler+0x1a4>)
10001ed6:	7810      	ldrb	r0, [r2, #0]
10001ed8:	7011      	strb	r1, [r2, #0]
10001eda:	7198      	strb	r0, [r3, #6]
10001edc:	e7bf      	b.n	10001e5e <irq_remove_handler+0xce>
10001ede:	21bd      	movs	r1, #189	; 0xbd
10001ee0:	0209      	lsls	r1, r1, #8
10001ee2:	e7e7      	b.n	10001eb4 <irq_remove_handler+0x124>
10001ee4:	4a15      	ldr	r2, [pc, #84]	; (10001f3c <irq_remove_handler+0x1ac>)
10001ee6:	4916      	ldr	r1, [pc, #88]	; (10001f40 <irq_remove_handler+0x1b0>)
10001ee8:	1ad2      	subs	r2, r2, r3
10001eea:	3a08      	subs	r2, #8
10001eec:	0250      	lsls	r0, r2, #9
10001eee:	0d40      	lsrs	r0, r0, #21
10001ef0:	4301      	orrs	r1, r0
10001ef2:	8099      	strh	r1, [r3, #4]
10001ef4:	4913      	ldr	r1, [pc, #76]	; (10001f44 <irq_remove_handler+0x1b4>)
10001ef6:	0852      	lsrs	r2, r2, #1
10001ef8:	430a      	orrs	r2, r1
10001efa:	80da      	strh	r2, [r3, #6]
10001efc:	e7af      	b.n	10001e5e <irq_remove_handler+0xce>
10001efe:	2006      	movs	r0, #6
10001f00:	5610      	ldrsb	r0, [r2, r0]
10001f02:	0013      	movs	r3, r2
10001f04:	2800      	cmp	r0, #0
10001f06:	dabb      	bge.n	10001e80 <irq_remove_handler+0xf0>
10001f08:	9a01      	ldr	r2, [sp, #4]
10001f0a:	2a00      	cmp	r2, #0
10001f0c:	d1ea      	bne.n	10001ee4 <irq_remove_handler+0x154>
10001f0e:	4645      	mov	r5, r8
10001f10:	e7e0      	b.n	10001ed4 <irq_remove_handler+0x144>
10001f12:	46c0      	nop			; (mov r8, r8)
10001f14:	d0000124 	.word	0xd0000124
10001f18:	e000ed00 	.word	0xe000ed00
10001f1c:	100001cd 	.word	0x100001cd
10001f20:	20000294 	.word	0x20000294
10001f24:	e000e100 	.word	0xe000e100
10001f28:	e000e180 	.word	0xe000e180
10001f2c:	0000aaaa 	.word	0x0000aaaa
10001f30:	e000e280 	.word	0xe000e280
10001f34:	20000a53 	.word	0x20000a53
10001f38:	ffffbd00 	.word	0xffffbd00
10001f3c:	200002ce 	.word	0x200002ce
10001f40:	fffff000 	.word	0xfffff000
10001f44:	fffff800 	.word	0xfffff800

10001f48 <irq_add_tail_to_free_list>:
10001f48:	b5f8      	push	{r3, r4, r5, r6, r7, lr}
10001f4a:	2501      	movs	r5, #1
10001f4c:	0004      	movs	r4, r0
10001f4e:	4305      	orrs	r5, r0
10001f50:	f7fe f989 	bl	10000266 <__get_current_exception>
10001f54:	0003      	movs	r3, r0
10001f56:	f3ef 8610 	mrs	r6, PRIMASK
10001f5a:	b672      	cpsid	i
10001f5c:	4921      	ldr	r1, [pc, #132]	; (10001fe4 <irq_add_tail_to_free_list+0x9c>)
10001f5e:	680a      	ldr	r2, [r1, #0]
10001f60:	2a00      	cmp	r2, #0
10001f62:	d0fc      	beq.n	10001f5e <irq_add_tail_to_free_list+0x16>
10001f64:	f3bf 8f5f 	dmb	sy
10001f68:	4a1f      	ldr	r2, [pc, #124]	; (10001fe8 <irq_add_tail_to_free_list+0xa0>)
10001f6a:	0020      	movs	r0, r4
10001f6c:	491f      	ldr	r1, [pc, #124]	; (10001fec <irq_add_tail_to_free_list+0xa4>)
10001f6e:	1a80      	subs	r0, r0, r2
10001f70:	4140      	adcs	r0, r0
10001f72:	4341      	muls	r1, r0
10001f74:	0d09      	lsrs	r1, r1, #20
10001f76:	481e      	ldr	r0, [pc, #120]	; (10001ff0 <irq_add_tail_to_free_list+0xa8>)
10001f78:	009b      	lsls	r3, r3, #2
10001f7a:	6887      	ldr	r7, [r0, #8]
10001f7c:	b249      	sxtb	r1, r1
10001f7e:	58ff      	ldr	r7, [r7, r3]
10001f80:	42af      	cmp	r7, r5
10001f82:	d01c      	beq.n	10001fbe <irq_add_tail_to_free_list+0x76>
10001f84:	2306      	movs	r3, #6
10001f86:	56d3      	ldrsb	r3, [r2, r3]
10001f88:	428b      	cmp	r3, r1
10001f8a:	d01c      	beq.n	10001fc6 <irq_add_tail_to_free_list+0x7e>
10001f8c:	2312      	movs	r3, #18
10001f8e:	56d3      	ldrsb	r3, [r2, r3]
10001f90:	428b      	cmp	r3, r1
10001f92:	d022      	beq.n	10001fda <irq_add_tail_to_free_list+0x92>
10001f94:	231e      	movs	r3, #30
10001f96:	56d3      	ldrsb	r3, [r2, r3]
10001f98:	428b      	cmp	r3, r1
10001f9a:	d020      	beq.n	10001fde <irq_add_tail_to_free_list+0x96>
10001f9c:	232a      	movs	r3, #42	; 0x2a
10001f9e:	56d3      	ldrsb	r3, [r2, r3]
10001fa0:	2003      	movs	r0, #3
10001fa2:	428b      	cmp	r3, r1
10001fa4:	d010      	beq.n	10001fc8 <irq_add_tail_to_free_list+0x80>
10001fa6:	4b13      	ldr	r3, [pc, #76]	; (10001ff4 <irq_add_tail_to_free_list+0xac>)
10001fa8:	781a      	ldrb	r2, [r3, #0]
10001faa:	7019      	strb	r1, [r3, #0]
10001fac:	71a2      	strb	r2, [r4, #6]
10001fae:	f3bf 8f5f 	dmb	sy
10001fb2:	2200      	movs	r2, #0
10001fb4:	4b0b      	ldr	r3, [pc, #44]	; (10001fe4 <irq_add_tail_to_free_list+0x9c>)
10001fb6:	601a      	str	r2, [r3, #0]
10001fb8:	f386 8810 	msr	PRIMASK, r6
10001fbc:	bdf8      	pop	{r3, r4, r5, r6, r7, pc}
10001fbe:	6882      	ldr	r2, [r0, #8]
10001fc0:	480d      	ldr	r0, [pc, #52]	; (10001ff8 <irq_add_tail_to_free_list+0xb0>)
10001fc2:	50d0      	str	r0, [r2, r3]
10001fc4:	e7ef      	b.n	10001fa6 <irq_add_tail_to_free_list+0x5e>
10001fc6:	2000      	movs	r0, #0
10001fc8:	0043      	lsls	r3, r0, #1
10001fca:	181b      	adds	r3, r3, r0
10001fcc:	009b      	lsls	r3, r3, #2
10001fce:	18d2      	adds	r2, r2, r3
10001fd0:	23ff      	movs	r3, #255	; 0xff
10001fd2:	7193      	strb	r3, [r2, #6]
10001fd4:	4b09      	ldr	r3, [pc, #36]	; (10001ffc <irq_add_tail_to_free_list+0xb4>)
10001fd6:	8093      	strh	r3, [r2, #4]
10001fd8:	e7e5      	b.n	10001fa6 <irq_add_tail_to_free_list+0x5e>
10001fda:	2001      	movs	r0, #1
10001fdc:	e7f4      	b.n	10001fc8 <irq_add_tail_to_free_list+0x80>
10001fde:	2002      	movs	r0, #2
10001fe0:	e7f2      	b.n	10001fc8 <irq_add_tail_to_free_list+0x80>
10001fe2:	46c0      	nop			; (mov r8, r8)
10001fe4:	d0000124 	.word	0xd0000124
10001fe8:	20000294 	.word	0x20000294
10001fec:	0000aaaa 	.word	0x0000aaaa
10001ff0:	e000ed00 	.word	0xe000ed00
10001ff4:	20000a53 	.word	0x20000a53
10001ff8:	100001cd 	.word	0x100001cd
10001ffc:	ffffbd00 	.word	0xffffbd00

10002000 <irq_init_priorities>:
10002000:	4b05      	ldr	r3, [pc, #20]	; (10002018 <irq_init_priorities+0x18>)
10002002:	4a06      	ldr	r2, [pc, #24]	; (1000201c <irq_init_priorities+0x1c>)
10002004:	6013      	str	r3, [r2, #0]
10002006:	4a06      	ldr	r2, [pc, #24]	; (10002020 <irq_init_priorities+0x20>)
10002008:	6013      	str	r3, [r2, #0]
1000200a:	6053      	str	r3, [r2, #4]
1000200c:	6093      	str	r3, [r2, #8]
1000200e:	60d3      	str	r3, [r2, #12]
10002010:	6113      	str	r3, [r2, #16]
10002012:	6153      	str	r3, [r2, #20]
10002014:	6193      	str	r3, [r2, #24]
10002016:	4770      	bx	lr
10002018:	80808080 	.word	0x80808080
1000201c:	e000e400 	.word	0xe000e400
10002020:	e000e404 	.word	0xe000e404

10002024 <pll_init>:
10002024:	b5f8      	push	{r3, r4, r5, r6, r7, lr}
10002026:	0004      	movs	r4, r0
10002028:	200c      	movs	r0, #12
1000202a:	0017      	movs	r7, r2
1000202c:	001d      	movs	r5, r3
1000202e:	000e      	movs	r6, r1
10002030:	f000 f8bc 	bl	100021ac <__wrap___aeabi_uidiv>
10002034:	0141      	lsls	r1, r0, #5
10002036:	1a09      	subs	r1, r1, r0
10002038:	018b      	lsls	r3, r1, #6
1000203a:	1a59      	subs	r1, r3, r1
1000203c:	00c9      	lsls	r1, r1, #3
1000203e:	1809      	adds	r1, r1, r0
10002040:	0189      	lsls	r1, r1, #6
10002042:	0038      	movs	r0, r7
10002044:	f000 f8b2 	bl	100021ac <__wrap___aeabi_uidiv>
10002048:	9a06      	ldr	r2, [sp, #24]
1000204a:	042b      	lsls	r3, r5, #16
1000204c:	0312      	lsls	r2, r2, #12
1000204e:	4313      	orrs	r3, r2
10002050:	6822      	ldr	r2, [r4, #0]
10002052:	2a00      	cmp	r2, #0
10002054:	db21      	blt.n	1000209a <pll_init+0x76>
10002056:	4a18      	ldr	r2, [pc, #96]	; (100020b8 <pll_init+0x94>)
10002058:	18a2      	adds	r2, r4, r2
1000205a:	4251      	negs	r1, r2
1000205c:	414a      	adcs	r2, r1
1000205e:	2180      	movs	r1, #128	; 0x80
10002060:	0149      	lsls	r1, r1, #5
10002062:	468c      	mov	ip, r1
10002064:	4252      	negs	r2, r2
10002066:	400a      	ands	r2, r1
10002068:	4914      	ldr	r1, [pc, #80]	; (100020bc <pll_init+0x98>)
1000206a:	4462      	add	r2, ip
1000206c:	600a      	str	r2, [r1, #0]
1000206e:	4914      	ldr	r1, [pc, #80]	; (100020c0 <pll_init+0x9c>)
10002070:	600a      	str	r2, [r1, #0]
10002072:	4914      	ldr	r1, [pc, #80]	; (100020c4 <pll_init+0xa0>)
10002074:	0017      	movs	r7, r2
10002076:	688d      	ldr	r5, [r1, #8]
10002078:	43af      	bics	r7, r5
1000207a:	d1fb      	bne.n	10002074 <pll_init+0x50>
1000207c:	21c0      	movs	r1, #192	; 0xc0
1000207e:	1d22      	adds	r2, r4, #4
10002080:	0189      	lsls	r1, r1, #6
10002082:	4311      	orrs	r1, r2
10002084:	2221      	movs	r2, #33	; 0x21
10002086:	6026      	str	r6, [r4, #0]
10002088:	60a0      	str	r0, [r4, #8]
1000208a:	600a      	str	r2, [r1, #0]
1000208c:	6822      	ldr	r2, [r4, #0]
1000208e:	2a00      	cmp	r2, #0
10002090:	dafc      	bge.n	1000208c <pll_init+0x68>
10002092:	60e3      	str	r3, [r4, #12]
10002094:	2308      	movs	r3, #8
10002096:	600b      	str	r3, [r1, #0]
10002098:	bdf8      	pop	{r3, r4, r5, r6, r7, pc}
1000209a:	223f      	movs	r2, #63	; 0x3f
1000209c:	6821      	ldr	r1, [r4, #0]
1000209e:	400a      	ands	r2, r1
100020a0:	42b2      	cmp	r2, r6
100020a2:	d1d8      	bne.n	10002056 <pll_init+0x32>
100020a4:	68a2      	ldr	r2, [r4, #8]
100020a6:	0512      	lsls	r2, r2, #20
100020a8:	0d12      	lsrs	r2, r2, #20
100020aa:	4282      	cmp	r2, r0
100020ac:	d1d3      	bne.n	10002056 <pll_init+0x32>
100020ae:	68e2      	ldr	r2, [r4, #12]
100020b0:	2b00      	cmp	r3, #0
100020b2:	d1d0      	bne.n	10002056 <pll_init+0x32>
100020b4:	e7f0      	b.n	10002098 <pll_init+0x74>
100020b6:	46c0      	nop			; (mov r8, r8)
100020b8:	bffd4000 	.word	0xbffd4000
100020bc:	4000e000 	.word	0x4000e000
100020c0:	4000f000 	.word	0x4000f000
100020c4:	4000c000 	.word	0x4000c000

100020c8 <watchdog_start_tick>:
100020c8:	2380      	movs	r3, #128	; 0x80
100020ca:	4a02      	ldr	r2, [pc, #8]	; (100020d4 <watchdog_start_tick+0xc>)
100020cc:	009b      	lsls	r3, r3, #2
100020ce:	4303      	orrs	r3, r0
100020d0:	62d3      	str	r3, [r2, #44]	; 0x2c
100020d2:	4770      	bx	lr
100020d4:	40058000 	.word	0x40058000

100020d8 <xosc_init>:
100020d8:	23aa      	movs	r3, #170	; 0xaa
100020da:	4a06      	ldr	r2, [pc, #24]	; (100020f4 <xosc_init+0x1c>)
100020dc:	011b      	lsls	r3, r3, #4
100020de:	6013      	str	r3, [r2, #0]
100020e0:	232f      	movs	r3, #47	; 0x2f
100020e2:	4905      	ldr	r1, [pc, #20]	; (100020f8 <xosc_init+0x20>)
100020e4:	60d3      	str	r3, [r2, #12]
100020e6:	4b05      	ldr	r3, [pc, #20]	; (100020fc <xosc_init+0x24>)
100020e8:	6019      	str	r1, [r3, #0]
100020ea:	6853      	ldr	r3, [r2, #4]
100020ec:	2b00      	cmp	r3, #0
100020ee:	dafc      	bge.n	100020ea <xosc_init+0x12>
100020f0:	4770      	bx	lr
100020f2:	46c0      	nop			; (mov r8, r8)
100020f4:	40024000 	.word	0x40024000
100020f8:	00fab000 	.word	0x00fab000
100020fc:	40026000 	.word	0x40026000

10002100 <_out_char>:
10002100:	b510      	push	{r4, lr}
10002102:	2800      	cmp	r0, #0
10002104:	d100      	bne.n	10002108 <_out_char+0x8>
10002106:	bd10      	pop	{r4, pc}
10002108:	f000 fc4e 	bl	100029a8 <__wrap_putchar>
1000210c:	e7fb      	b.n	10002106 <_out_char+0x6>
1000210e:	46c0      	nop			; (mov r8, r8)

10002110 <weak_raw_vprintf>:
10002110:	b510      	push	{r4, lr}
10002112:	4a09      	ldr	r2, [pc, #36]	; (10002138 <weak_raw_vprintf+0x28>)
10002114:	0003      	movs	r3, r0
10002116:	6814      	ldr	r4, [r2, #0]
10002118:	b084      	sub	sp, #16
1000211a:	2c00      	cmp	r4, #0
1000211c:	d008      	beq.n	10002130 <weak_raw_vprintf+0x20>
1000211e:	2201      	movs	r2, #1
10002120:	9100      	str	r1, [sp, #0]
10002122:	4806      	ldr	r0, [pc, #24]	; (1000213c <weak_raw_vprintf+0x2c>)
10002124:	4252      	negs	r2, r2
10002126:	a903      	add	r1, sp, #12
10002128:	47a0      	blx	r4
1000212a:	2001      	movs	r0, #1
1000212c:	b004      	add	sp, #16
1000212e:	bd10      	pop	{r4, pc}
10002130:	f000 fc8c 	bl	10002a4c <__wrap_puts>
10002134:	2000      	movs	r0, #0
10002136:	e7f9      	b.n	1000212c <weak_raw_vprintf+0x1c>
10002138:	20000a10 	.word	0x20000a10
1000213c:	10002101 	.word	0x10002101

10002140 <__aeabi_bits_init>:
10002140:	4801      	ldr	r0, [pc, #4]	; (10002148 <__aeabi_bits_init+0x8>)
10002142:	2104      	movs	r1, #4
10002144:	4b01      	ldr	r3, [pc, #4]	; (1000214c <__aeabi_bits_init+0xc>)
10002146:	4718      	bx	r3
10002148:	200002e0 	.word	0x200002e0
1000214c:	10002171 	.word	0x10002171

10002150 <rom_func_lookup>:
10002150:	2314      	movs	r3, #20
10002152:	b510      	push	{r4, lr}
10002154:	0001      	movs	r1, r0
10002156:	8818      	ldrh	r0, [r3, #0]
10002158:	3304      	adds	r3, #4
1000215a:	881b      	ldrh	r3, [r3, #0]
1000215c:	4798      	blx	r3
1000215e:	bd10      	pop	{r4, pc}

10002160 <rom_data_lookup>:
10002160:	2316      	movs	r3, #22
10002162:	b510      	push	{r4, lr}
10002164:	0001      	movs	r1, r0
10002166:	8818      	ldrh	r0, [r3, #0]
10002168:	3302      	adds	r3, #2
1000216a:	881b      	ldrh	r3, [r3, #0]
1000216c:	4798      	blx	r3
1000216e:	bd10      	pop	{r4, pc}

10002170 <rom_funcs_lookup>:
10002170:	b5f0      	push	{r4, r5, r6, r7, lr}
10002172:	46c6      	mov	lr, r8
10002174:	b500      	push	{lr}
10002176:	2900      	cmp	r1, #0
10002178:	d016      	beq.n	100021a8 <rom_funcs_lookup+0x38>
1000217a:	2314      	movs	r3, #20
1000217c:	0004      	movs	r4, r0
1000217e:	2501      	movs	r5, #1
10002180:	4698      	mov	r8, r3
10002182:	2718      	movs	r7, #24
10002184:	0089      	lsls	r1, r1, #2
10002186:	1846      	adds	r6, r0, r1
10002188:	4643      	mov	r3, r8
1000218a:	6821      	ldr	r1, [r4, #0]
1000218c:	8818      	ldrh	r0, [r3, #0]
1000218e:	883b      	ldrh	r3, [r7, #0]
10002190:	4798      	blx	r3
10002192:	c401      	stmia	r4!, {r0}
10002194:	1e43      	subs	r3, r0, #1
10002196:	4198      	sbcs	r0, r3
10002198:	4240      	negs	r0, r0
1000219a:	4005      	ands	r5, r0
1000219c:	42a6      	cmp	r6, r4
1000219e:	d1f3      	bne.n	10002188 <rom_funcs_lookup+0x18>
100021a0:	0028      	movs	r0, r5
100021a2:	bc04      	pop	{r2}
100021a4:	4690      	mov	r8, r2
100021a6:	bdf0      	pop	{r4, r5, r6, r7, pc}
100021a8:	2501      	movs	r5, #1
100021aa:	e7f9      	b.n	100021a0 <rom_funcs_lookup+0x30>

100021ac <__wrap___aeabi_uidiv>:
100021ac:	4a11      	ldr	r2, [pc, #68]	; (100021f4 <divmod_u32u32_savestate+0x18>)
100021ae:	6f93      	ldr	r3, [r2, #120]	; 0x78
100021b0:	089b      	lsrs	r3, r3, #2
100021b2:	d213      	bcs.n	100021dc <divmod_u32u32_savestate>

100021b4 <divmod_u32u32_unsafe>:
100021b4:	6610      	str	r0, [r2, #96]	; 0x60
100021b6:	6651      	str	r1, [r2, #100]	; 0x64
100021b8:	2900      	cmp	r1, #0
100021ba:	d005      	beq.n	100021c8 <divmod_u32u32_unsafe+0x14>
100021bc:	e7ff      	b.n	100021be <divmod_u32u32_unsafe+0xa>
100021be:	e7ff      	b.n	100021c0 <divmod_u32u32_unsafe+0xc>
100021c0:	e7ff      	b.n	100021c2 <divmod_u32u32_unsafe+0xe>
100021c2:	6f51      	ldr	r1, [r2, #116]	; 0x74
100021c4:	6f10      	ldr	r0, [r2, #112]	; 0x70
100021c6:	4770      	bx	lr
100021c8:	b504      	push	{r2, lr}
100021ca:	2800      	cmp	r0, #0
100021cc:	d001      	beq.n	100021d2 <divmod_u32u32_unsafe+0x1e>
100021ce:	2000      	movs	r0, #0
100021d0:	43c0      	mvns	r0, r0
100021d2:	f003 f98d 	bl	100054f0 <____aeabi_idiv0_veneer>
100021d6:	2100      	movs	r1, #0
100021d8:	bd04      	pop	{r2, pc}
100021da:	46c0      	nop			; (mov r8, r8)

100021dc <divmod_u32u32_savestate>:
100021dc:	b5f0      	push	{r4, r5, r6, r7, lr}
100021de:	6e14      	ldr	r4, [r2, #96]	; 0x60
100021e0:	6e55      	ldr	r5, [r2, #100]	; 0x64
100021e2:	6f57      	ldr	r7, [r2, #116]	; 0x74
100021e4:	6f16      	ldr	r6, [r2, #112]	; 0x70
100021e6:	f7ff ffe5 	bl	100021b4 <divmod_u32u32_unsafe>
100021ea:	6614      	str	r4, [r2, #96]	; 0x60
100021ec:	6655      	str	r5, [r2, #100]	; 0x64
100021ee:	6757      	str	r7, [r2, #116]	; 0x74
100021f0:	6716      	str	r6, [r2, #112]	; 0x70
100021f2:	bdf0      	pop	{r4, r5, r6, r7, pc}
100021f4:	d0000000 	.word	0xd0000000

100021f8 <__wrap___aeabi_ldivmod>:
100021f8:	4694      	mov	ip, r2
100021fa:	4a4e      	ldr	r2, [pc, #312]	; (10002334 <udiv0+0x1a>)
100021fc:	6f92      	ldr	r2, [r2, #120]	; 0x78
100021fe:	0892      	lsrs	r2, r2, #2
10002200:	4662      	mov	r2, ip
10002202:	d201      	bcs.n	10002208 <divmod_s64s64_savestate>
10002204:	e030      	b.n	10002268 <divmod_s64s64_unsafe>
10002206:	46c0      	nop			; (mov r8, r8)

10002208 <divmod_s64s64_savestate>:
10002208:	b5f0      	push	{r4, r5, r6, r7, lr}
1000220a:	4e4a      	ldr	r6, [pc, #296]	; (10002334 <udiv0+0x1a>)
1000220c:	6fb5      	ldr	r5, [r6, #120]	; 0x78
1000220e:	086d      	lsrs	r5, r5, #1
10002210:	d3fc      	bcc.n	1000220c <divmod_s64s64_savestate+0x4>
10002212:	6e34      	ldr	r4, [r6, #96]	; 0x60
10002214:	6e75      	ldr	r5, [r6, #100]	; 0x64
10002216:	6f77      	ldr	r7, [r6, #116]	; 0x74
10002218:	6f36      	ldr	r6, [r6, #112]	; 0x70
1000221a:	f000 f825 	bl	10002268 <divmod_s64s64_unsafe>
1000221e:	4694      	mov	ip, r2
10002220:	4a44      	ldr	r2, [pc, #272]	; (10002334 <udiv0+0x1a>)
10002222:	6614      	str	r4, [r2, #96]	; 0x60
10002224:	6655      	str	r5, [r2, #100]	; 0x64
10002226:	6757      	str	r7, [r2, #116]	; 0x74
10002228:	6716      	str	r6, [r2, #112]	; 0x70
1000222a:	4662      	mov	r2, ip
1000222c:	bdf0      	pop	{r4, r5, r6, r7, pc}
1000222e:	46c0      	nop			; (mov r8, r8)

10002230 <__wrap___aeabi_uldivmod>:
10002230:	4694      	mov	ip, r2
10002232:	4a40      	ldr	r2, [pc, #256]	; (10002334 <udiv0+0x1a>)
10002234:	6f92      	ldr	r2, [r2, #120]	; 0x78
10002236:	0892      	lsrs	r2, r2, #2
10002238:	4662      	mov	r2, ip
1000223a:	d201      	bcs.n	10002240 <divmod_u64u64_savestate>
1000223c:	e058      	b.n	100022f0 <divmod_u64u64_unsafe>
1000223e:	46c0      	nop			; (mov r8, r8)

10002240 <divmod_u64u64_savestate>:
10002240:	b5f0      	push	{r4, r5, r6, r7, lr}
10002242:	4e3c      	ldr	r6, [pc, #240]	; (10002334 <udiv0+0x1a>)
10002244:	6fb5      	ldr	r5, [r6, #120]	; 0x78
10002246:	086d      	lsrs	r5, r5, #1
10002248:	d3fc      	bcc.n	10002244 <divmod_u64u64_savestate+0x4>
1000224a:	6e34      	ldr	r4, [r6, #96]	; 0x60
1000224c:	6e75      	ldr	r5, [r6, #100]	; 0x64
1000224e:	6f77      	ldr	r7, [r6, #116]	; 0x74
10002250:	6f36      	ldr	r6, [r6, #112]	; 0x70
10002252:	f000 f84d 	bl	100022f0 <divmod_u64u64_unsafe>
10002256:	4694      	mov	ip, r2
10002258:	4a36      	ldr	r2, [pc, #216]	; (10002334 <udiv0+0x1a>)
1000225a:	6614      	str	r4, [r2, #96]	; 0x60
1000225c:	6655      	str	r5, [r2, #100]	; 0x64
1000225e:	6757      	str	r7, [r2, #116]	; 0x74
10002260:	6716      	str	r6, [r2, #112]	; 0x70
10002262:	4662      	mov	r2, ip
10002264:	bdf0      	pop	{r4, r5, r6, r7, pc}
10002266:	46c0      	nop			; (mov r8, r8)

10002268 <divmod_s64s64_unsafe>:
10002268:	2b00      	cmp	r3, #0
1000226a:	db24      	blt.n	100022b6 <l41_1+0x26>
1000226c:	d011      	beq.n	10002292 <l41_1+0x2>
1000226e:	2900      	cmp	r1, #0
10002270:	da3e      	bge.n	100022f0 <divmod_u64u64_unsafe>
10002272:	b500      	push	{lr}
10002274:	43c9      	mvns	r1, r1
10002276:	4240      	negs	r0, r0
10002278:	d100      	bne.n	1000227c <l39_1>
1000227a:	3101      	adds	r1, #1

1000227c <l39_1>:
1000227c:	f000 f838 	bl	100022f0 <divmod_u64u64_unsafe>
10002280:	43c9      	mvns	r1, r1
10002282:	4240      	negs	r0, r0
10002284:	d100      	bne.n	10002288 <l40_1>
10002286:	3101      	adds	r1, #1

10002288 <l40_1>:
10002288:	43db      	mvns	r3, r3
1000228a:	4252      	negs	r2, r2
1000228c:	d100      	bne.n	10002290 <l41_1>
1000228e:	3301      	adds	r3, #1

10002290 <l41_1>:
10002290:	bd00      	pop	{pc}
10002292:	2a00      	cmp	r2, #0
10002294:	d1eb      	bne.n	1000226e <divmod_s64s64_unsafe+0x6>
10002296:	2800      	cmp	r0, #0
10002298:	d101      	bne.n	1000229e <l41_1+0xe>
1000229a:	2900      	cmp	r1, #0
1000229c:	d005      	beq.n	100022aa <l41_1+0x1a>
1000229e:	2000      	movs	r0, #0
100022a0:	0fc9      	lsrs	r1, r1, #31
100022a2:	07c9      	lsls	r1, r1, #31
100022a4:	d101      	bne.n	100022aa <l41_1+0x1a>
100022a6:	43c0      	mvns	r0, r0
100022a8:	0841      	lsrs	r1, r0, #1
100022aa:	b500      	push	{lr}
100022ac:	f003 f918 	bl	100054e0 <____aeabi_ldiv0_veneer>
100022b0:	2200      	movs	r2, #0
100022b2:	2300      	movs	r3, #0
100022b4:	bd00      	pop	{pc}
100022b6:	b500      	push	{lr}
100022b8:	2900      	cmp	r1, #0
100022ba:	db0a      	blt.n	100022d2 <l43_1+0x2>
100022bc:	43db      	mvns	r3, r3
100022be:	4252      	negs	r2, r2
100022c0:	d100      	bne.n	100022c4 <l42_1>
100022c2:	3301      	adds	r3, #1

100022c4 <l42_1>:
100022c4:	f000 f814 	bl	100022f0 <divmod_u64u64_unsafe>
100022c8:	43c9      	mvns	r1, r1
100022ca:	4240      	negs	r0, r0
100022cc:	d100      	bne.n	100022d0 <l43_1>
100022ce:	3101      	adds	r1, #1

100022d0 <l43_1>:
100022d0:	bd00      	pop	{pc}
100022d2:	43c9      	mvns	r1, r1
100022d4:	4240      	negs	r0, r0
100022d6:	d100      	bne.n	100022da <l44_1>
100022d8:	3101      	adds	r1, #1

100022da <l44_1>:
100022da:	43db      	mvns	r3, r3
100022dc:	4252      	negs	r2, r2
100022de:	d100      	bne.n	100022e2 <l45_1>
100022e0:	3301      	adds	r3, #1

100022e2 <l45_1>:
100022e2:	f000 f805 	bl	100022f0 <divmod_u64u64_unsafe>
100022e6:	43db      	mvns	r3, r3
100022e8:	4252      	negs	r2, r2
100022ea:	d100      	bne.n	100022ee <l46_1>
100022ec:	3301      	adds	r3, #1

100022ee <l46_1>:
100022ee:	bd00      	pop	{pc}

100022f0 <divmod_u64u64_unsafe>:
100022f0:	2900      	cmp	r1, #0
100022f2:	d123      	bne.n	1000233c <y64>
100022f4:	2b00      	cmp	r3, #0
100022f6:	d118      	bne.n	1000232a <udiv0+0x10>
100022f8:	2a00      	cmp	r2, #0
100022fa:	d00c      	beq.n	10002316 <divmod_u64u64_unsafe+0x26>
100022fc:	46bc      	mov	ip, r7
100022fe:	4f0d      	ldr	r7, [pc, #52]	; (10002334 <udiv0+0x1a>)
10002300:	6638      	str	r0, [r7, #96]	; 0x60
10002302:	667a      	str	r2, [r7, #100]	; 0x64
10002304:	2100      	movs	r1, #0
10002306:	2300      	movs	r3, #0
10002308:	e7ff      	b.n	1000230a <divmod_u64u64_unsafe+0x1a>
1000230a:	e7ff      	b.n	1000230c <divmod_u64u64_unsafe+0x1c>
1000230c:	e7ff      	b.n	1000230e <divmod_u64u64_unsafe+0x1e>
1000230e:	6f7a      	ldr	r2, [r7, #116]	; 0x74
10002310:	6f38      	ldr	r0, [r7, #112]	; 0x70
10002312:	4667      	mov	r7, ip
10002314:	4770      	bx	lr
10002316:	2800      	cmp	r0, #0
10002318:	d001      	beq.n	1000231e <udiv0+0x4>

1000231a <udiv0>:
1000231a:	4807      	ldr	r0, [pc, #28]	; (10002338 <udiv0+0x1e>)
1000231c:	0001      	movs	r1, r0
1000231e:	b500      	push	{lr}
10002320:	f003 f8de 	bl	100054e0 <____aeabi_ldiv0_veneer>
10002324:	2200      	movs	r2, #0
10002326:	2300      	movs	r3, #0
10002328:	bd00      	pop	{pc}
1000232a:	0002      	movs	r2, r0
1000232c:	000b      	movs	r3, r1
1000232e:	2000      	movs	r0, #0
10002330:	2100      	movs	r1, #0
10002332:	4770      	bx	lr
10002334:	d0000000 	.word	0xd0000000
10002338:	ffffffff 	.word	0xffffffff

1000233c <y64>:
1000233c:	2b00      	cmp	r3, #0
1000233e:	d000      	beq.n	10002342 <y64+0x6>
10002340:	e0bf      	b.n	100024c2 <y64_x48>
10002342:	0c13      	lsrs	r3, r2, #16
10002344:	d128      	bne.n	10002398 <y64_x32>
10002346:	2a00      	cmp	r2, #0
10002348:	d0e7      	beq.n	1000231a <udiv0>
1000234a:	b480      	push	{r7}
1000234c:	4f11      	ldr	r7, [pc, #68]	; (10002394 <y64+0x58>)
1000234e:	6639      	str	r1, [r7, #96]	; 0x60
10002350:	667a      	str	r2, [r7, #100]	; 0x64
10002352:	e7ff      	b.n	10002354 <y64+0x18>
10002354:	e7ff      	b.n	10002356 <y64+0x1a>
10002356:	b430      	push	{r4, r5}
10002358:	0c04      	lsrs	r4, r0, #16
1000235a:	6f7b      	ldr	r3, [r7, #116]	; 0x74
1000235c:	6f39      	ldr	r1, [r7, #112]	; 0x70
1000235e:	041b      	lsls	r3, r3, #16
10002360:	4323      	orrs	r3, r4
10002362:	663b      	str	r3, [r7, #96]	; 0x60
10002364:	667a      	str	r2, [r7, #100]	; 0x64
10002366:	e7ff      	b.n	10002368 <y64+0x2c>
10002368:	e7ff      	b.n	1000236a <y64+0x2e>
1000236a:	e7ff      	b.n	1000236c <y64+0x30>
1000236c:	46c0      	nop			; (mov r8, r8)
1000236e:	b284      	uxth	r4, r0
10002370:	6f7b      	ldr	r3, [r7, #116]	; 0x74
10002372:	6f3d      	ldr	r5, [r7, #112]	; 0x70
10002374:	041b      	lsls	r3, r3, #16
10002376:	4323      	orrs	r3, r4
10002378:	663b      	str	r3, [r7, #96]	; 0x60
1000237a:	667a      	str	r2, [r7, #100]	; 0x64
1000237c:	e7ff      	b.n	1000237e <y64+0x42>
1000237e:	e7ff      	b.n	10002380 <y64+0x44>
10002380:	46c0      	nop			; (mov r8, r8)
10002382:	2300      	movs	r3, #0
10002384:	042c      	lsls	r4, r5, #16
10002386:	0c2d      	lsrs	r5, r5, #16
10002388:	6f7a      	ldr	r2, [r7, #116]	; 0x74
1000238a:	6f38      	ldr	r0, [r7, #112]	; 0x70
1000238c:	1900      	adds	r0, r0, r4
1000238e:	4169      	adcs	r1, r5
10002390:	bcb0      	pop	{r4, r5, r7}
10002392:	4770      	bx	lr
10002394:	d0000000 	.word	0xd0000000

10002398 <y64_x32>:
10002398:	b5f0      	push	{r4, r5, r6, r7, lr}
1000239a:	4694      	mov	ip, r2
1000239c:	2500      	movs	r5, #0
1000239e:	0e14      	lsrs	r4, r2, #24
100023a0:	d101      	bne.n	100023a6 <y64_x32+0xe>
100023a2:	0212      	lsls	r2, r2, #8
100023a4:	3508      	adds	r5, #8
100023a6:	0f14      	lsrs	r4, r2, #28
100023a8:	d101      	bne.n	100023ae <y64_x32+0x16>
100023aa:	0112      	lsls	r2, r2, #4
100023ac:	3504      	adds	r5, #4
100023ae:	0f94      	lsrs	r4, r2, #30
100023b0:	d101      	bne.n	100023b6 <y64_x32+0x1e>
100023b2:	0092      	lsls	r2, r2, #2
100023b4:	3502      	adds	r5, #2
100023b6:	0fd4      	lsrs	r4, r2, #31
100023b8:	d101      	bne.n	100023be <y64_x32+0x26>
100023ba:	0052      	lsls	r2, r2, #1
100023bc:	3501      	adds	r5, #1
100023be:	0bd4      	lsrs	r4, r2, #15
100023c0:	3401      	adds	r4, #1
100023c2:	4f25      	ldr	r7, [pc, #148]	; (10002458 <y64_x32+0xc0>)
100023c4:	667c      	str	r4, [r7, #100]	; 0x64
100023c6:	4c25      	ldr	r4, [pc, #148]	; (1000245c <y64_x32+0xc4>)
100023c8:	663c      	str	r4, [r7, #96]	; 0x60
100023ca:	0c0e      	lsrs	r6, r1, #16
100023cc:	b293      	uxth	r3, r2
100023ce:	e7ff      	b.n	100023d0 <y64_x32+0x38>
100023d0:	e7ff      	b.n	100023d2 <y64_x32+0x3a>
100023d2:	e7ff      	b.n	100023d4 <y64_x32+0x3c>
100023d4:	6f3c      	ldr	r4, [r7, #112]	; 0x70
100023d6:	4366      	muls	r6, r4
100023d8:	0c36      	lsrs	r6, r6, #16
100023da:	0377      	lsls	r7, r6, #13
100023dc:	46be      	mov	lr, r7
100023de:	4373      	muls	r3, r6
100023e0:	0bdf      	lsrs	r7, r3, #15
100023e2:	045b      	lsls	r3, r3, #17
100023e4:	1ac0      	subs	r0, r0, r3
100023e6:	41b9      	sbcs	r1, r7
100023e8:	0c13      	lsrs	r3, r2, #16
100023ea:	4373      	muls	r3, r6
100023ec:	18db      	adds	r3, r3, r3
100023ee:	1ac9      	subs	r1, r1, r3
100023f0:	08ce      	lsrs	r6, r1, #3
100023f2:	4366      	muls	r6, r4
100023f4:	0c36      	lsrs	r6, r6, #16
100023f6:	44b6      	add	lr, r6
100023f8:	b293      	uxth	r3, r2
100023fa:	4373      	muls	r3, r6
100023fc:	0f1f      	lsrs	r7, r3, #28
100023fe:	011b      	lsls	r3, r3, #4
10002400:	1ac0      	subs	r0, r0, r3
10002402:	41b9      	sbcs	r1, r7
10002404:	0c13      	lsrs	r3, r2, #16
10002406:	4373      	muls	r3, r6
10002408:	0b1f      	lsrs	r7, r3, #12
1000240a:	051b      	lsls	r3, r3, #20
1000240c:	1ac0      	subs	r0, r0, r3
1000240e:	41b9      	sbcs	r1, r7
10002410:	0d86      	lsrs	r6, r0, #22
10002412:	028f      	lsls	r7, r1, #10
10002414:	433e      	orrs	r6, r7
10002416:	4366      	muls	r6, r4
10002418:	0c36      	lsrs	r6, r6, #16
1000241a:	2d09      	cmp	r5, #9
1000241c:	db24      	blt.n	10002468 <last0>
1000241e:	0a52      	lsrs	r2, r2, #9
10002420:	4372      	muls	r2, r6
10002422:	1a80      	subs	r0, r0, r2
10002424:	0377      	lsls	r7, r6, #13
10002426:	0a46      	lsrs	r6, r0, #9
10002428:	4366      	muls	r6, r4
1000242a:	0c36      	lsrs	r6, r6, #16
1000242c:	2316      	movs	r3, #22
1000242e:	1b5b      	subs	r3, r3, r5
10002430:	40de      	lsrs	r6, r3
10002432:	40df      	lsrs	r7, r3
10002434:	19bf      	adds	r7, r7, r6
10002436:	4664      	mov	r4, ip
10002438:	4366      	muls	r6, r4
1000243a:	1b82      	subs	r2, r0, r6
1000243c:	4670      	mov	r0, lr
1000243e:	3504      	adds	r5, #4
10002440:	3306      	adds	r3, #6
10002442:	0001      	movs	r1, r0
10002444:	40d9      	lsrs	r1, r3
10002446:	40a8      	lsls	r0, r5
10002448:	19c0      	adds	r0, r0, r7
1000244a:	d300      	bcc.n	1000244e <y64_x32+0xb6>
1000244c:	3101      	adds	r1, #1
1000244e:	42a2      	cmp	r2, r4
10002450:	d206      	bcs.n	10002460 <y64_x32+0xc8>
10002452:	2300      	movs	r3, #0
10002454:	bdf0      	pop	{r4, r5, r6, r7, pc}
10002456:	0000      	.short	0x0000
10002458:	d0000000 	.word	0xd0000000
1000245c:	ffffffff 	.word	0xffffffff
10002460:	1b12      	subs	r2, r2, r4
10002462:	3001      	adds	r0, #1
10002464:	d3f3      	bcc.n	1000244e <y64_x32+0xb6>
10002466:	e7f1      	b.n	1000244c <y64_x32+0xb4>

10002468 <last0>:
10002468:	2709      	movs	r7, #9
1000246a:	1b7f      	subs	r7, r7, r5
1000246c:	40fe      	lsrs	r6, r7
1000246e:	4664      	mov	r4, ip
10002470:	b2a2      	uxth	r2, r4
10002472:	4372      	muls	r2, r6
10002474:	1a80      	subs	r0, r0, r2
10002476:	d200      	bcs.n	1000247a <last0+0x12>
10002478:	3901      	subs	r1, #1
1000247a:	0c22      	lsrs	r2, r4, #16
1000247c:	4372      	muls	r2, r6
1000247e:	0c13      	lsrs	r3, r2, #16
10002480:	0412      	lsls	r2, r2, #16
10002482:	1a82      	subs	r2, r0, r2
10002484:	4199      	sbcs	r1, r3
10002486:	000b      	movs	r3, r1
10002488:	4670      	mov	r0, lr
1000248a:	3504      	adds	r5, #4
1000248c:	3713      	adds	r7, #19
1000248e:	0001      	movs	r1, r0
10002490:	40f9      	lsrs	r1, r7
10002492:	40a8      	lsls	r0, r5
10002494:	1980      	adds	r0, r0, r6
10002496:	d300      	bcc.n	1000249a <last0+0x32>
10002498:	3101      	adds	r1, #1
1000249a:	2b00      	cmp	r3, #0
1000249c:	d102      	bne.n	100024a4 <last0+0x3c>
1000249e:	42a2      	cmp	r2, r4
100024a0:	d20a      	bcs.n	100024b8 <last0+0x50>
100024a2:	bdf0      	pop	{r4, r5, r6, r7, pc}
100024a4:	3001      	adds	r0, #1
100024a6:	d300      	bcc.n	100024aa <last0+0x42>
100024a8:	3101      	adds	r1, #1
100024aa:	1b12      	subs	r2, r2, r4
100024ac:	d2fa      	bcs.n	100024a4 <last0+0x3c>
100024ae:	3b01      	subs	r3, #1
100024b0:	d1f8      	bne.n	100024a4 <last0+0x3c>
100024b2:	42a2      	cmp	r2, r4
100024b4:	d200      	bcs.n	100024b8 <last0+0x50>
100024b6:	bdf0      	pop	{r4, r5, r6, r7, pc}
100024b8:	3001      	adds	r0, #1
100024ba:	d300      	bcc.n	100024be <last0+0x56>
100024bc:	3101      	adds	r1, #1
100024be:	1b12      	subs	r2, r2, r4
100024c0:	e7f7      	b.n	100024b2 <last0+0x4a>

100024c2 <y64_x48>:
100024c2:	b5f0      	push	{r4, r5, r6, r7, lr}
100024c4:	0c1c      	lsrs	r4, r3, #16
100024c6:	d000      	beq.n	100024ca <y64_x48+0x8>
100024c8:	e080      	b.n	100025cc <y64_x64>
100024ca:	b40c      	push	{r2, r3}
100024cc:	2500      	movs	r5, #0
100024ce:	0a1c      	lsrs	r4, r3, #8
100024d0:	d104      	bne.n	100024dc <y64_x48+0x1a>
100024d2:	021b      	lsls	r3, r3, #8
100024d4:	0e16      	lsrs	r6, r2, #24
100024d6:	4333      	orrs	r3, r6
100024d8:	0212      	lsls	r2, r2, #8
100024da:	3508      	adds	r5, #8
100024dc:	0b1c      	lsrs	r4, r3, #12
100024de:	d104      	bne.n	100024ea <y64_x48+0x28>
100024e0:	011b      	lsls	r3, r3, #4
100024e2:	0f16      	lsrs	r6, r2, #28
100024e4:	4333      	orrs	r3, r6
100024e6:	0112      	lsls	r2, r2, #4
100024e8:	3504      	adds	r5, #4
100024ea:	0b9c      	lsrs	r4, r3, #14
100024ec:	d104      	bne.n	100024f8 <y64_x48+0x36>
100024ee:	009b      	lsls	r3, r3, #2
100024f0:	0f96      	lsrs	r6, r2, #30
100024f2:	4333      	orrs	r3, r6
100024f4:	0092      	lsls	r2, r2, #2
100024f6:	3502      	adds	r5, #2
100024f8:	0bdc      	lsrs	r4, r3, #15
100024fa:	d102      	bne.n	10002502 <y64_x48+0x40>
100024fc:	1892      	adds	r2, r2, r2
100024fe:	415b      	adcs	r3, r3
10002500:	3501      	adds	r5, #1
10002502:	001c      	movs	r4, r3
10002504:	1897      	adds	r7, r2, r2
10002506:	4164      	adcs	r4, r4
10002508:	3401      	adds	r4, #1
1000250a:	4f46      	ldr	r7, [pc, #280]	; (10002624 <y64_x64+0x58>)
1000250c:	667c      	str	r4, [r7, #100]	; 0x64
1000250e:	4c46      	ldr	r4, [pc, #280]	; (10002628 <y64_x64+0x5c>)
10002510:	663c      	str	r4, [r7, #96]	; 0x60
10002512:	0c0e      	lsrs	r6, r1, #16
10002514:	e7ff      	b.n	10002516 <y64_x48+0x54>
10002516:	e7ff      	b.n	10002518 <y64_x48+0x56>
10002518:	e7ff      	b.n	1000251a <y64_x48+0x58>
1000251a:	46c0      	nop			; (mov r8, r8)
1000251c:	6f3c      	ldr	r4, [r7, #112]	; 0x70
1000251e:	4366      	muls	r6, r4
10002520:	0c36      	lsrs	r6, r6, #16
10002522:	0377      	lsls	r7, r6, #13
10002524:	46be      	mov	lr, r7
10002526:	b297      	uxth	r7, r2
10002528:	4377      	muls	r7, r6
1000252a:	1bc0      	subs	r0, r0, r7
1000252c:	d200      	bcs.n	10002530 <y64_x48+0x6e>
1000252e:	3901      	subs	r1, #1
10002530:	1bc0      	subs	r0, r0, r7
10002532:	d200      	bcs.n	10002536 <y64_x48+0x74>
10002534:	3901      	subs	r1, #1
10002536:	b29f      	uxth	r7, r3
10002538:	4377      	muls	r7, r6
1000253a:	1bc9      	subs	r1, r1, r7
1000253c:	1bc9      	subs	r1, r1, r7
1000253e:	0c17      	lsrs	r7, r2, #16
10002540:	4377      	muls	r7, r6
10002542:	047e      	lsls	r6, r7, #17
10002544:	0bff      	lsrs	r7, r7, #15
10002546:	1b80      	subs	r0, r0, r6
10002548:	41b9      	sbcs	r1, r7
1000254a:	08ce      	lsrs	r6, r1, #3
1000254c:	4366      	muls	r6, r4
1000254e:	0c36      	lsrs	r6, r6, #16
10002550:	2d0c      	cmp	r5, #12
10002552:	db33      	blt.n	100025bc <last1>
10002554:	44b6      	add	lr, r6
10002556:	0b12      	lsrs	r2, r2, #12
10002558:	051f      	lsls	r7, r3, #20
1000255a:	433a      	orrs	r2, r7
1000255c:	0b1b      	lsrs	r3, r3, #12
1000255e:	b297      	uxth	r7, r2
10002560:	4377      	muls	r7, r6
10002562:	1bc0      	subs	r0, r0, r7
10002564:	d200      	bcs.n	10002568 <y64_x48+0xa6>
10002566:	3901      	subs	r1, #1
10002568:	b29f      	uxth	r7, r3
1000256a:	4377      	muls	r7, r6
1000256c:	1bc9      	subs	r1, r1, r7
1000256e:	0c17      	lsrs	r7, r2, #16
10002570:	4377      	muls	r7, r6
10002572:	043e      	lsls	r6, r7, #16
10002574:	0c3f      	lsrs	r7, r7, #16
10002576:	1b80      	subs	r0, r0, r6
10002578:	41b9      	sbcs	r1, r7
1000257a:	0d86      	lsrs	r6, r0, #22
1000257c:	028f      	lsls	r7, r1, #10
1000257e:	433e      	orrs	r6, r7
10002580:	4366      	muls	r6, r4
10002582:	2729      	movs	r7, #41	; 0x29
10002584:	1b7f      	subs	r7, r7, r5
10002586:	40fe      	lsrs	r6, r7
10002588:	3d0c      	subs	r5, #12
1000258a:	4677      	mov	r7, lr
1000258c:	40af      	lsls	r7, r5
1000258e:	19bf      	adds	r7, r7, r6
10002590:	bc30      	pop	{r4, r5}
10002592:	b2a2      	uxth	r2, r4
10002594:	b2ab      	uxth	r3, r5
10002596:	4372      	muls	r2, r6
10002598:	4373      	muls	r3, r6
1000259a:	1a80      	subs	r0, r0, r2
1000259c:	4199      	sbcs	r1, r3
1000259e:	0c22      	lsrs	r2, r4, #16
100025a0:	4372      	muls	r2, r6
100025a2:	0c13      	lsrs	r3, r2, #16
100025a4:	0412      	lsls	r2, r2, #16
100025a6:	1a80      	subs	r0, r0, r2
100025a8:	4199      	sbcs	r1, r3
100025aa:	0002      	movs	r2, r0
100025ac:	000b      	movs	r3, r1
100025ae:	3701      	adds	r7, #1
100025b0:	1b00      	subs	r0, r0, r4
100025b2:	41a9      	sbcs	r1, r5
100025b4:	d2f9      	bcs.n	100025aa <y64_x48+0xe8>
100025b6:	1e78      	subs	r0, r7, #1
100025b8:	2100      	movs	r1, #0
100025ba:	bdf0      	pop	{r4, r5, r6, r7, pc}

100025bc <last1>:
100025bc:	270c      	movs	r7, #12
100025be:	1b7f      	subs	r7, r7, r5
100025c0:	40fe      	lsrs	r6, r7
100025c2:	4677      	mov	r7, lr
100025c4:	0b7f      	lsrs	r7, r7, #13
100025c6:	40af      	lsls	r7, r5
100025c8:	19ff      	adds	r7, r7, r7
100025ca:	e7e0      	b.n	1000258e <y64_x48+0xcc>

100025cc <y64_x64>:
100025cc:	2400      	movs	r4, #0
100025ce:	1c5d      	adds	r5, r3, #1
100025d0:	d007      	beq.n	100025e2 <y64_x64+0x16>
100025d2:	4f14      	ldr	r7, [pc, #80]	; (10002624 <y64_x64+0x58>)
100025d4:	667d      	str	r5, [r7, #100]	; 0x64
100025d6:	6639      	str	r1, [r7, #96]	; 0x60
100025d8:	e7ff      	b.n	100025da <y64_x64+0xe>
100025da:	e7ff      	b.n	100025dc <y64_x64+0x10>
100025dc:	e7ff      	b.n	100025de <y64_x64+0x12>
100025de:	e7ff      	b.n	100025e0 <y64_x64+0x14>
100025e0:	6f3c      	ldr	r4, [r7, #112]	; 0x70
100025e2:	b295      	uxth	r5, r2
100025e4:	b29e      	uxth	r6, r3
100025e6:	4365      	muls	r5, r4
100025e8:	4366      	muls	r6, r4
100025ea:	1b40      	subs	r0, r0, r5
100025ec:	41b1      	sbcs	r1, r6
100025ee:	0c15      	lsrs	r5, r2, #16
100025f0:	0c1e      	lsrs	r6, r3, #16
100025f2:	4365      	muls	r5, r4
100025f4:	4366      	muls	r6, r4
100025f6:	0436      	lsls	r6, r6, #16
100025f8:	0c2f      	lsrs	r7, r5, #16
100025fa:	433e      	orrs	r6, r7
100025fc:	042d      	lsls	r5, r5, #16
100025fe:	1b40      	subs	r0, r0, r5
10002600:	41b1      	sbcs	r1, r6
10002602:	4299      	cmp	r1, r3
10002604:	d204      	bcs.n	10002610 <y64_x64+0x44>
10002606:	0002      	movs	r2, r0
10002608:	000b      	movs	r3, r1
1000260a:	0020      	movs	r0, r4
1000260c:	2100      	movs	r1, #0
1000260e:	bdf0      	pop	{r4, r5, r6, r7, pc}
10002610:	d101      	bne.n	10002616 <y64_x64+0x4a>
10002612:	4290      	cmp	r0, r2
10002614:	d3f7      	bcc.n	10002606 <y64_x64+0x3a>
10002616:	1a80      	subs	r0, r0, r2
10002618:	4199      	sbcs	r1, r3
1000261a:	3401      	adds	r4, #1
1000261c:	4299      	cmp	r1, r3
1000261e:	d3f2      	bcc.n	10002606 <y64_x64+0x3a>
10002620:	e7f6      	b.n	10002610 <y64_x64+0x44>
10002622:	0000      	.short	0x0000
10002624:	d0000000 	.word	0xd0000000
10002628:	ffffffff 	.word	0xffffffff

1000262c <__aeabi_double_init>:
1000262c:	2313      	movs	r3, #19
1000262e:	b570      	push	{r4, r5, r6, lr}
10002630:	781d      	ldrb	r5, [r3, #0]
10002632:	2d01      	cmp	r5, #1
10002634:	d015      	beq.n	10002662 <__aeabi_double_init+0x36>
10002636:	dd10      	ble.n	1000265a <__aeabi_double_init+0x2e>
10002638:	4827      	ldr	r0, [pc, #156]	; (100026d8 <__aeabi_double_init+0xac>)
1000263a:	f7ff fd91 	bl	10002160 <rom_data_lookup>
1000263e:	4c27      	ldr	r4, [pc, #156]	; (100026dc <__aeabi_double_init+0xb0>)
10002640:	0001      	movs	r1, r0
10002642:	2280      	movs	r2, #128	; 0x80
10002644:	0020      	movs	r0, r4
10002646:	f000 f8d7 	bl	100027f8 <__wrap___aeabi_memcpy>
1000264a:	2d02      	cmp	r5, #2
1000264c:	d006      	beq.n	1000265c <__aeabi_double_init+0x30>
1000264e:	4824      	ldr	r0, [pc, #144]	; (100026e0 <__aeabi_double_init+0xb4>)
10002650:	f7ff fd7e 	bl	10002150 <rom_func_lookup>
10002654:	4b23      	ldr	r3, [pc, #140]	; (100026e4 <__aeabi_double_init+0xb8>)
10002656:	6018      	str	r0, [r3, #0]
10002658:	bd70      	pop	{r4, r5, r6, pc}
1000265a:	4c20      	ldr	r4, [pc, #128]	; (100026dc <__aeabi_double_init+0xb0>)
1000265c:	4a22      	ldr	r2, [pc, #136]	; (100026e8 <__aeabi_double_init+0xbc>)
1000265e:	64a2      	str	r2, [r4, #72]	; 0x48
10002660:	e7f5      	b.n	1000264e <__aeabi_double_init+0x22>
10002662:	002e      	movs	r6, r5
10002664:	4c1d      	ldr	r4, [pc, #116]	; (100026dc <__aeabi_double_init+0xb0>)
10002666:	4a20      	ldr	r2, [pc, #128]	; (100026e8 <__aeabi_double_init+0xbc>)
10002668:	08a3      	lsrs	r3, r4, #2
1000266a:	425b      	negs	r3, r3
1000266c:	401e      	ands	r6, r3
1000266e:	421d      	tst	r5, r3
10002670:	d02f      	beq.n	100026d2 <__aeabi_double_init+0xa6>
10002672:	0033      	movs	r3, r6
10002674:	6022      	str	r2, [r4, #0]
10002676:	2020      	movs	r0, #32
10002678:	00b1      	lsls	r1, r6, #2
1000267a:	1861      	adds	r1, r4, r1
1000267c:	1b80      	subs	r0, r0, r6
1000267e:	600a      	str	r2, [r1, #0]
10002680:	604a      	str	r2, [r1, #4]
10002682:	608a      	str	r2, [r1, #8]
10002684:	60ca      	str	r2, [r1, #12]
10002686:	610a      	str	r2, [r1, #16]
10002688:	614a      	str	r2, [r1, #20]
1000268a:	618a      	str	r2, [r1, #24]
1000268c:	61ca      	str	r2, [r1, #28]
1000268e:	620a      	str	r2, [r1, #32]
10002690:	624a      	str	r2, [r1, #36]	; 0x24
10002692:	628a      	str	r2, [r1, #40]	; 0x28
10002694:	62ca      	str	r2, [r1, #44]	; 0x2c
10002696:	630a      	str	r2, [r1, #48]	; 0x30
10002698:	634a      	str	r2, [r1, #52]	; 0x34
1000269a:	638a      	str	r2, [r1, #56]	; 0x38
1000269c:	63ca      	str	r2, [r1, #60]	; 0x3c
1000269e:	640a      	str	r2, [r1, #64]	; 0x40
100026a0:	644a      	str	r2, [r1, #68]	; 0x44
100026a2:	648a      	str	r2, [r1, #72]	; 0x48
100026a4:	64ca      	str	r2, [r1, #76]	; 0x4c
100026a6:	650a      	str	r2, [r1, #80]	; 0x50
100026a8:	654a      	str	r2, [r1, #84]	; 0x54
100026aa:	658a      	str	r2, [r1, #88]	; 0x58
100026ac:	65ca      	str	r2, [r1, #92]	; 0x5c
100026ae:	660a      	str	r2, [r1, #96]	; 0x60
100026b0:	664a      	str	r2, [r1, #100]	; 0x64
100026b2:	668a      	str	r2, [r1, #104]	; 0x68
100026b4:	66ca      	str	r2, [r1, #108]	; 0x6c
100026b6:	670a      	str	r2, [r1, #112]	; 0x70
100026b8:	674a      	str	r2, [r1, #116]	; 0x74
100026ba:	0840      	lsrs	r0, r0, #1
100026bc:	2810      	cmp	r0, #16
100026be:	d103      	bne.n	100026c8 <__aeabi_double_init+0x9c>
100026c0:	678a      	str	r2, [r1, #120]	; 0x78
100026c2:	67ca      	str	r2, [r1, #124]	; 0x7c
100026c4:	64a2      	str	r2, [r4, #72]	; 0x48
100026c6:	e7c2      	b.n	1000264e <__aeabi_double_init+0x22>
100026c8:	331e      	adds	r3, #30
100026ca:	009b      	lsls	r3, r3, #2
100026cc:	50e2      	str	r2, [r4, r3]
100026ce:	64a2      	str	r2, [r4, #72]	; 0x48
100026d0:	e7bd      	b.n	1000264e <__aeabi_double_init+0x22>
100026d2:	2300      	movs	r3, #0
100026d4:	e7cf      	b.n	10002676 <__aeabi_double_init+0x4a>
100026d6:	46c0      	nop			; (mov r8, r8)
100026d8:	00004453 	.word	0x00004453
100026dc:	20001384 	.word	0x20001384
100026e0:	0000334c 	.word	0x0000334c
100026e4:	20000a2c 	.word	0x20000a2c
100026e8:	100026ed 	.word	0x100026ed

100026ec <double_table_shim_on_use_helper>:
100026ec:	b507      	push	{r0, r1, r2, lr}
100026ee:	4660      	mov	r0, ip
100026f0:	8801      	ldrh	r1, [r0, #0]
100026f2:	0a0a      	lsrs	r2, r1, #8
100026f4:	3002      	adds	r0, #2
100026f6:	2adf      	cmp	r2, #223	; 0xdf
100026f8:	d1fa      	bne.n	100026f0 <double_table_shim_on_use_helper+0x4>
100026fa:	b2c9      	uxtb	r1, r1
100026fc:	0882      	lsrs	r2, r0, #2
100026fe:	d304      	bcc.n	1000270a <double_table_shim_on_use_helper+0x1e>
10002700:	8802      	ldrh	r2, [r0, #0]
10002702:	8840      	ldrh	r0, [r0, #2]
10002704:	0400      	lsls	r0, r0, #16
10002706:	4310      	orrs	r0, r2
10002708:	e000      	b.n	1000270c <double_table_shim_on_use_helper+0x20>
1000270a:	6800      	ldr	r0, [r0, #0]
1000270c:	4a01      	ldr	r2, [pc, #4]	; (10002714 <double_table_shim_on_use_helper+0x28>)
1000270e:	5050      	str	r0, [r2, r1]
10002710:	9003      	str	r0, [sp, #12]
10002712:	bd07      	pop	{r0, r1, r2, pc}
10002714:	20001384 	.word	0x20001384

10002718 <__wrap___aeabi_lmul>:
10002718:	4351      	muls	r1, r2
1000271a:	4343      	muls	r3, r0
1000271c:	18c9      	adds	r1, r1, r3
1000271e:	468c      	mov	ip, r1
10002720:	0c11      	lsrs	r1, r2, #16
10002722:	b283      	uxth	r3, r0
10002724:	434b      	muls	r3, r1
10002726:	b410      	push	{r4}
10002728:	0c04      	lsrs	r4, r0, #16
1000272a:	4361      	muls	r1, r4
1000272c:	b292      	uxth	r2, r2
1000272e:	b280      	uxth	r0, r0
10002730:	4350      	muls	r0, r2
10002732:	4362      	muls	r2, r4
10002734:	041c      	lsls	r4, r3, #16
10002736:	0c1b      	lsrs	r3, r3, #16
10002738:	1900      	adds	r0, r0, r4
1000273a:	bc10      	pop	{r4}
1000273c:	4159      	adcs	r1, r3
1000273e:	0413      	lsls	r3, r2, #16
10002740:	0c12      	lsrs	r2, r2, #16
10002742:	18c0      	adds	r0, r0, r3
10002744:	4151      	adcs	r1, r2
10002746:	4461      	add	r1, ip
10002748:	4770      	bx	lr
	...

1000274c <__aeabi_float_init>:
1000274c:	2313      	movs	r3, #19
1000274e:	b510      	push	{r4, lr}
10002750:	4812      	ldr	r0, [pc, #72]	; (1000279c <__aeabi_float_init+0x50>)
10002752:	781c      	ldrb	r4, [r3, #0]
10002754:	f7ff fd04 	bl	10002160 <rom_data_lookup>
10002758:	0001      	movs	r1, r0
1000275a:	2c01      	cmp	r4, #1
1000275c:	d00a      	beq.n	10002774 <__aeabi_float_init+0x28>
1000275e:	dd03      	ble.n	10002768 <__aeabi_float_init+0x1c>
10002760:	2280      	movs	r2, #128	; 0x80
10002762:	480f      	ldr	r0, [pc, #60]	; (100027a0 <__aeabi_float_init+0x54>)
10002764:	f000 f848 	bl	100027f8 <__wrap___aeabi_memcpy>
10002768:	480e      	ldr	r0, [pc, #56]	; (100027a4 <__aeabi_float_init+0x58>)
1000276a:	f7ff fcf1 	bl	10002150 <rom_func_lookup>
1000276e:	4b0e      	ldr	r3, [pc, #56]	; (100027a8 <__aeabi_float_init+0x5c>)
10002770:	6018      	str	r0, [r3, #0]
10002772:	bd10      	pop	{r4, pc}
10002774:	4c0a      	ldr	r4, [pc, #40]	; (100027a0 <__aeabi_float_init+0x54>)
10002776:	2254      	movs	r2, #84	; 0x54
10002778:	0020      	movs	r0, r4
1000277a:	f000 f83d 	bl	100027f8 <__wrap___aeabi_memcpy>
1000277e:	4b0b      	ldr	r3, [pc, #44]	; (100027ac <__aeabi_float_init+0x60>)
10002780:	6563      	str	r3, [r4, #84]	; 0x54
10002782:	65a3      	str	r3, [r4, #88]	; 0x58
10002784:	65e3      	str	r3, [r4, #92]	; 0x5c
10002786:	6623      	str	r3, [r4, #96]	; 0x60
10002788:	6663      	str	r3, [r4, #100]	; 0x64
1000278a:	66a3      	str	r3, [r4, #104]	; 0x68
1000278c:	66e3      	str	r3, [r4, #108]	; 0x6c
1000278e:	6723      	str	r3, [r4, #112]	; 0x70
10002790:	6763      	str	r3, [r4, #116]	; 0x74
10002792:	67a3      	str	r3, [r4, #120]	; 0x78
10002794:	67e3      	str	r3, [r4, #124]	; 0x7c
10002796:	6223      	str	r3, [r4, #32]
10002798:	61e3      	str	r3, [r4, #28]
1000279a:	e7e5      	b.n	10002768 <__aeabi_float_init+0x1c>
1000279c:	00004653 	.word	0x00004653
100027a0:	20001484 	.word	0x20001484
100027a4:	0000334c 	.word	0x0000334c
100027a8:	20000a2c 	.word	0x20000a2c
100027ac:	100027b1 	.word	0x100027b1

100027b0 <float_table_shim_on_use_helper>:
100027b0:	b507      	push	{r0, r1, r2, lr}
100027b2:	4660      	mov	r0, ip
100027b4:	8801      	ldrh	r1, [r0, #0]
100027b6:	0a0a      	lsrs	r2, r1, #8
100027b8:	3002      	adds	r0, #2
100027ba:	2adf      	cmp	r2, #223	; 0xdf
100027bc:	d1fa      	bne.n	100027b4 <float_table_shim_on_use_helper+0x4>
100027be:	b2c9      	uxtb	r1, r1
100027c0:	0882      	lsrs	r2, r0, #2
100027c2:	d304      	bcc.n	100027ce <float_table_shim_on_use_helper+0x1e>
100027c4:	8802      	ldrh	r2, [r0, #0]
100027c6:	8840      	ldrh	r0, [r0, #2]
100027c8:	0400      	lsls	r0, r0, #16
100027ca:	4310      	orrs	r0, r2
100027cc:	e000      	b.n	100027d0 <float_table_shim_on_use_helper+0x20>
100027ce:	6800      	ldr	r0, [r0, #0]
100027d0:	4a01      	ldr	r2, [pc, #4]	; (100027d8 <float_table_shim_on_use_helper+0x28>)
100027d2:	5050      	str	r0, [r2, r1]
100027d4:	9003      	str	r0, [sp, #12]
100027d6:	bd07      	pop	{r0, r1, r2, pc}
100027d8:	20001484 	.word	0x20001484

100027dc <__aeabi_mem_init>:
100027dc:	4801      	ldr	r0, [pc, #4]	; (100027e4 <__aeabi_mem_init+0x8>)
100027de:	2104      	movs	r1, #4
100027e0:	4b01      	ldr	r3, [pc, #4]	; (100027e8 <__aeabi_mem_init+0xc>)
100027e2:	4718      	bx	r3
100027e4:	200002f0 	.word	0x200002f0
100027e8:	10002171 	.word	0x10002171

100027ec <__wrap_memset>:
100027ec:	4b01      	ldr	r3, [pc, #4]	; (100027f4 <__wrap_memset+0x8>)
100027ee:	681b      	ldr	r3, [r3, #0]
100027f0:	4718      	bx	r3
100027f2:	0000      	.short	0x0000
100027f4:	200002f0 	.word	0x200002f0

100027f8 <__wrap___aeabi_memcpy>:
100027f8:	4b01      	ldr	r3, [pc, #4]	; (10002800 <__wrap___aeabi_memcpy+0x8>)
100027fa:	685b      	ldr	r3, [r3, #4]
100027fc:	4718      	bx	r3
100027fe:	0000      	.short	0x0000
10002800:	200002f0 	.word	0x200002f0

10002804 <stdio_out_chars_no_crlf>:
10002804:	0003      	movs	r3, r0
10002806:	b510      	push	{r4, lr}
10002808:	0008      	movs	r0, r1
1000280a:	681b      	ldr	r3, [r3, #0]
1000280c:	0011      	movs	r1, r2
1000280e:	4798      	blx	r3
10002810:	bd10      	pop	{r4, pc}
10002812:	46c0      	nop			; (mov r8, r8)

10002814 <stdio_out_chars_crlf>:
10002814:	b5f8      	push	{r3, r4, r5, r6, r7, lr}
10002816:	4647      	mov	r7, r8
10002818:	46ce      	mov	lr, r9
1000281a:	b580      	push	{r7, lr}
1000281c:	7c43      	ldrb	r3, [r0, #17]
1000281e:	0007      	movs	r7, r0
10002820:	000d      	movs	r5, r1
10002822:	0016      	movs	r6, r2
10002824:	2b00      	cmp	r3, #0
10002826:	d037      	beq.n	10002898 <stdio_out_chars_crlf+0x84>
10002828:	2400      	movs	r4, #0
1000282a:	2000      	movs	r0, #0
1000282c:	2a00      	cmp	r2, #0
1000282e:	dd1e      	ble.n	1000286e <stdio_out_chars_crlf+0x5a>
10002830:	1e4b      	subs	r3, r1, #1
10002832:	4698      	mov	r8, r3
10002834:	4b1b      	ldr	r3, [pc, #108]	; (100028a4 <stdio_out_chars_crlf+0x90>)
10002836:	4699      	mov	r9, r3
10002838:	2c00      	cmp	r4, #0
1000283a:	d02b      	beq.n	10002894 <stdio_out_chars_crlf+0x80>
1000283c:	4643      	mov	r3, r8
1000283e:	5d1b      	ldrb	r3, [r3, r4]
10002840:	3b0d      	subs	r3, #13
10002842:	425a      	negs	r2, r3
10002844:	4153      	adcs	r3, r2
10002846:	b2db      	uxtb	r3, r3
10002848:	5d2a      	ldrb	r2, [r5, r4]
1000284a:	2a0a      	cmp	r2, #10
1000284c:	d013      	beq.n	10002876 <stdio_out_chars_crlf+0x62>
1000284e:	3401      	adds	r4, #1
10002850:	42a6      	cmp	r6, r4
10002852:	dcf1      	bgt.n	10002838 <stdio_out_chars_crlf+0x24>
10002854:	4286      	cmp	r6, r0
10002856:	dd03      	ble.n	10002860 <stdio_out_chars_crlf+0x4c>
10002858:	1a31      	subs	r1, r6, r0
1000285a:	683b      	ldr	r3, [r7, #0]
1000285c:	1828      	adds	r0, r5, r0
1000285e:	4798      	blx	r3
10002860:	19ad      	adds	r5, r5, r6
10002862:	3d01      	subs	r5, #1
10002864:	782b      	ldrb	r3, [r5, #0]
10002866:	3b0d      	subs	r3, #13
10002868:	425a      	negs	r2, r3
1000286a:	4153      	adcs	r3, r2
1000286c:	743b      	strb	r3, [r7, #16]
1000286e:	bc0c      	pop	{r2, r3}
10002870:	4690      	mov	r8, r2
10002872:	4699      	mov	r9, r3
10002874:	bdf8      	pop	{r3, r4, r5, r6, r7, pc}
10002876:	2b00      	cmp	r3, #0
10002878:	d1e9      	bne.n	1000284e <stdio_out_chars_crlf+0x3a>
1000287a:	42a0      	cmp	r0, r4
1000287c:	da03      	bge.n	10002886 <stdio_out_chars_crlf+0x72>
1000287e:	1a21      	subs	r1, r4, r0
10002880:	683b      	ldr	r3, [r7, #0]
10002882:	1828      	adds	r0, r5, r0
10002884:	4798      	blx	r3
10002886:	4648      	mov	r0, r9
10002888:	2102      	movs	r1, #2
1000288a:	683b      	ldr	r3, [r7, #0]
1000288c:	3401      	adds	r4, #1
1000288e:	4798      	blx	r3
10002890:	0020      	movs	r0, r4
10002892:	e7dd      	b.n	10002850 <stdio_out_chars_crlf+0x3c>
10002894:	7c3b      	ldrb	r3, [r7, #16]
10002896:	e7d7      	b.n	10002848 <stdio_out_chars_crlf+0x34>
10002898:	6803      	ldr	r3, [r0, #0]
1000289a:	0011      	movs	r1, r2
1000289c:	0028      	movs	r0, r5
1000289e:	4798      	blx	r3
100028a0:	e7e5      	b.n	1000286e <stdio_out_chars_crlf+0x5a>
100028a2:	46c0      	nop			; (mov r8, r8)
100028a4:	100057b4 	.word	0x100057b4

100028a8 <stdio_put_string>:
100028a8:	b5f0      	push	{r4, r5, r6, r7, lr}
100028aa:	4657      	mov	r7, sl
100028ac:	464e      	mov	r6, r9
100028ae:	4645      	mov	r5, r8
100028b0:	46de      	mov	lr, fp
100028b2:	001c      	movs	r4, r3
100028b4:	23d0      	movs	r3, #208	; 0xd0
100028b6:	b5e0      	push	{r5, r6, r7, lr}
100028b8:	061b      	lsls	r3, r3, #24
100028ba:	681f      	ldr	r7, [r3, #0]
100028bc:	4b35      	ldr	r3, [pc, #212]	; (10002994 <stdio_put_string+0xec>)
100028be:	b083      	sub	sp, #12
100028c0:	0006      	movs	r6, r0
100028c2:	000d      	movs	r5, r1
100028c4:	0018      	movs	r0, r3
100028c6:	a901      	add	r1, sp, #4
100028c8:	4691      	mov	r9, r2
100028ca:	469a      	mov	sl, r3
100028cc:	f002 fe18 	bl	10005500 <__mutex_try_enter_veneer>
100028d0:	4680      	mov	r8, r0
100028d2:	2800      	cmp	r0, #0
100028d4:	d108      	bne.n	100028e8 <stdio_put_string+0x40>
100028d6:	9b01      	ldr	r3, [sp, #4]
100028d8:	b27f      	sxtb	r7, r7
100028da:	429f      	cmp	r7, r3
100028dc:	d004      	beq.n	100028e8 <stdio_put_string+0x40>
100028de:	4650      	mov	r0, sl
100028e0:	f002 fe1e 	bl	10005520 <__mutex_enter_blocking_veneer>
100028e4:	2301      	movs	r3, #1
100028e6:	4698      	mov	r8, r3
100028e8:	1c6b      	adds	r3, r5, #1
100028ea:	d103      	bne.n	100028f4 <stdio_put_string+0x4c>
100028ec:	0030      	movs	r0, r6
100028ee:	f002 fdbd 	bl	1000546c <strlen>
100028f2:	0005      	movs	r5, r0
100028f4:	2c00      	cmp	r4, #0
100028f6:	d12a      	bne.n	1000294e <stdio_put_string+0xa6>
100028f8:	4f27      	ldr	r7, [pc, #156]	; (10002998 <stdio_put_string+0xf0>)
100028fa:	4b28      	ldr	r3, [pc, #160]	; (1000299c <stdio_put_string+0xf4>)
100028fc:	681c      	ldr	r4, [r3, #0]
100028fe:	2c00      	cmp	r4, #0
10002900:	d018      	beq.n	10002934 <stdio_put_string+0x8c>
10002902:	464b      	mov	r3, r9
10002904:	2b00      	cmp	r3, #0
10002906:	d124      	bne.n	10002952 <stdio_put_string+0xaa>
10002908:	4b25      	ldr	r3, [pc, #148]	; (100029a0 <stdio_put_string+0xf8>)
1000290a:	4699      	mov	r9, r3
1000290c:	e002      	b.n	10002914 <stdio_put_string+0x6c>
1000290e:	68e4      	ldr	r4, [r4, #12]
10002910:	2c00      	cmp	r4, #0
10002912:	d00f      	beq.n	10002934 <stdio_put_string+0x8c>
10002914:	6823      	ldr	r3, [r4, #0]
10002916:	2b00      	cmp	r3, #0
10002918:	d0f9      	beq.n	1000290e <stdio_put_string+0x66>
1000291a:	464b      	mov	r3, r9
1000291c:	681b      	ldr	r3, [r3, #0]
1000291e:	2b00      	cmp	r3, #0
10002920:	d001      	beq.n	10002926 <stdio_put_string+0x7e>
10002922:	42a3      	cmp	r3, r4
10002924:	d1f3      	bne.n	1000290e <stdio_put_string+0x66>
10002926:	0020      	movs	r0, r4
10002928:	002a      	movs	r2, r5
1000292a:	0031      	movs	r1, r6
1000292c:	47b8      	blx	r7
1000292e:	68e4      	ldr	r4, [r4, #12]
10002930:	2c00      	cmp	r4, #0
10002932:	d1ef      	bne.n	10002914 <stdio_put_string+0x6c>
10002934:	4643      	mov	r3, r8
10002936:	2b00      	cmp	r3, #0
10002938:	d128      	bne.n	1000298c <stdio_put_string+0xe4>
1000293a:	1e68      	subs	r0, r5, #1
1000293c:	4185      	sbcs	r5, r0
1000293e:	b2e8      	uxtb	r0, r5
10002940:	b003      	add	sp, #12
10002942:	bc3c      	pop	{r2, r3, r4, r5}
10002944:	4690      	mov	r8, r2
10002946:	4699      	mov	r9, r3
10002948:	46a2      	mov	sl, r4
1000294a:	46ab      	mov	fp, r5
1000294c:	bdf0      	pop	{r4, r5, r6, r7, pc}
1000294e:	4f15      	ldr	r7, [pc, #84]	; (100029a4 <stdio_put_string+0xfc>)
10002950:	e7d3      	b.n	100028fa <stdio_put_string+0x52>
10002952:	4b13      	ldr	r3, [pc, #76]	; (100029a0 <stdio_put_string+0xf8>)
10002954:	4699      	mov	r9, r3
10002956:	230a      	movs	r3, #10
10002958:	469b      	mov	fp, r3
1000295a:	e002      	b.n	10002962 <stdio_put_string+0xba>
1000295c:	68e4      	ldr	r4, [r4, #12]
1000295e:	2c00      	cmp	r4, #0
10002960:	d0e8      	beq.n	10002934 <stdio_put_string+0x8c>
10002962:	6823      	ldr	r3, [r4, #0]
10002964:	2b00      	cmp	r3, #0
10002966:	d0f9      	beq.n	1000295c <stdio_put_string+0xb4>
10002968:	464b      	mov	r3, r9
1000296a:	681b      	ldr	r3, [r3, #0]
1000296c:	2b00      	cmp	r3, #0
1000296e:	d001      	beq.n	10002974 <stdio_put_string+0xcc>
10002970:	42a3      	cmp	r3, r4
10002972:	d1f3      	bne.n	1000295c <stdio_put_string+0xb4>
10002974:	002a      	movs	r2, r5
10002976:	0031      	movs	r1, r6
10002978:	0020      	movs	r0, r4
1000297a:	47b8      	blx	r7
1000297c:	465a      	mov	r2, fp
1000297e:	466b      	mov	r3, sp
10002980:	0020      	movs	r0, r4
10002982:	711a      	strb	r2, [r3, #4]
10002984:	a901      	add	r1, sp, #4
10002986:	2201      	movs	r2, #1
10002988:	47b8      	blx	r7
1000298a:	e7e7      	b.n	1000295c <stdio_put_string+0xb4>
1000298c:	4650      	mov	r0, sl
1000298e:	f002 fd9f 	bl	100054d0 <__mutex_exit_veneer>
10002992:	e7d2      	b.n	1000293a <stdio_put_string+0x92>
10002994:	20000340 	.word	0x20000340
10002998:	10002815 	.word	0x10002815
1000299c:	20000604 	.word	0x20000604
100029a0:	20000608 	.word	0x20000608
100029a4:	10002805 	.word	0x10002805

100029a8 <__wrap_putchar>:
100029a8:	b5f0      	push	{r4, r5, r6, r7, lr}
100029aa:	4647      	mov	r7, r8
100029ac:	46ce      	mov	lr, r9
100029ae:	b580      	push	{r7, lr}
100029b0:	b083      	sub	sp, #12
100029b2:	466b      	mov	r3, sp
100029b4:	1cdf      	adds	r7, r3, #3
100029b6:	23d0      	movs	r3, #208	; 0xd0
100029b8:	7038      	strb	r0, [r7, #0]
100029ba:	061b      	lsls	r3, r3, #24
100029bc:	681c      	ldr	r4, [r3, #0]
100029be:	4b20      	ldr	r3, [pc, #128]	; (10002a40 <__wrap_putchar+0x98>)
100029c0:	0006      	movs	r6, r0
100029c2:	a901      	add	r1, sp, #4
100029c4:	0018      	movs	r0, r3
100029c6:	4698      	mov	r8, r3
100029c8:	f002 fd9a 	bl	10005500 <__mutex_try_enter_veneer>
100029cc:	1e05      	subs	r5, r0, #0
100029ce:	d022      	beq.n	10002a16 <__wrap_putchar+0x6e>
100029d0:	4b1c      	ldr	r3, [pc, #112]	; (10002a44 <__wrap_putchar+0x9c>)
100029d2:	681c      	ldr	r4, [r3, #0]
100029d4:	2c00      	cmp	r4, #0
100029d6:	d02a      	beq.n	10002a2e <__wrap_putchar+0x86>
100029d8:	4b1b      	ldr	r3, [pc, #108]	; (10002a48 <__wrap_putchar+0xa0>)
100029da:	4699      	mov	r9, r3
100029dc:	e002      	b.n	100029e4 <__wrap_putchar+0x3c>
100029de:	68e4      	ldr	r4, [r4, #12]
100029e0:	2c00      	cmp	r4, #0
100029e2:	d010      	beq.n	10002a06 <__wrap_putchar+0x5e>
100029e4:	6823      	ldr	r3, [r4, #0]
100029e6:	2b00      	cmp	r3, #0
100029e8:	d0f9      	beq.n	100029de <__wrap_putchar+0x36>
100029ea:	464b      	mov	r3, r9
100029ec:	681b      	ldr	r3, [r3, #0]
100029ee:	2b00      	cmp	r3, #0
100029f0:	d001      	beq.n	100029f6 <__wrap_putchar+0x4e>
100029f2:	42a3      	cmp	r3, r4
100029f4:	d1f3      	bne.n	100029de <__wrap_putchar+0x36>
100029f6:	0020      	movs	r0, r4
100029f8:	2201      	movs	r2, #1
100029fa:	0039      	movs	r1, r7
100029fc:	f7ff ff0a 	bl	10002814 <stdio_out_chars_crlf>
10002a00:	68e4      	ldr	r4, [r4, #12]
10002a02:	2c00      	cmp	r4, #0
10002a04:	d1ee      	bne.n	100029e4 <__wrap_putchar+0x3c>
10002a06:	2d00      	cmp	r5, #0
10002a08:	d111      	bne.n	10002a2e <__wrap_putchar+0x86>
10002a0a:	0030      	movs	r0, r6
10002a0c:	b003      	add	sp, #12
10002a0e:	bc0c      	pop	{r2, r3}
10002a10:	4690      	mov	r8, r2
10002a12:	4699      	mov	r9, r3
10002a14:	bdf0      	pop	{r4, r5, r6, r7, pc}
10002a16:	9b01      	ldr	r3, [sp, #4]
10002a18:	b264      	sxtb	r4, r4
10002a1a:	429c      	cmp	r4, r3
10002a1c:	d00b      	beq.n	10002a36 <__wrap_putchar+0x8e>
10002a1e:	4640      	mov	r0, r8
10002a20:	f002 fd7e 	bl	10005520 <__mutex_enter_blocking_veneer>
10002a24:	4b07      	ldr	r3, [pc, #28]	; (10002a44 <__wrap_putchar+0x9c>)
10002a26:	2501      	movs	r5, #1
10002a28:	681c      	ldr	r4, [r3, #0]
10002a2a:	2c00      	cmp	r4, #0
10002a2c:	d1d4      	bne.n	100029d8 <__wrap_putchar+0x30>
10002a2e:	4640      	mov	r0, r8
10002a30:	f002 fd4e 	bl	100054d0 <__mutex_exit_veneer>
10002a34:	e7e9      	b.n	10002a0a <__wrap_putchar+0x62>
10002a36:	4b03      	ldr	r3, [pc, #12]	; (10002a44 <__wrap_putchar+0x9c>)
10002a38:	681c      	ldr	r4, [r3, #0]
10002a3a:	2c00      	cmp	r4, #0
10002a3c:	d1cc      	bne.n	100029d8 <__wrap_putchar+0x30>
10002a3e:	e7e4      	b.n	10002a0a <__wrap_putchar+0x62>
10002a40:	20000340 	.word	0x20000340
10002a44:	20000604 	.word	0x20000604
10002a48:	20000608 	.word	0x20000608

10002a4c <__wrap_puts>:
10002a4c:	b570      	push	{r4, r5, r6, lr}
10002a4e:	0004      	movs	r4, r0
10002a50:	f002 fd0c 	bl	1000546c <strlen>
10002a54:	2300      	movs	r3, #0
10002a56:	0001      	movs	r1, r0
10002a58:	0005      	movs	r5, r0
10002a5a:	2201      	movs	r2, #1
10002a5c:	0020      	movs	r0, r4
10002a5e:	f7ff ff23 	bl	100028a8 <stdio_put_string>
10002a62:	4b08      	ldr	r3, [pc, #32]	; (10002a84 <__wrap_puts+0x38>)
10002a64:	681c      	ldr	r4, [r3, #0]
10002a66:	2c00      	cmp	r4, #0
10002a68:	d006      	beq.n	10002a78 <__wrap_puts+0x2c>
10002a6a:	6863      	ldr	r3, [r4, #4]
10002a6c:	2b00      	cmp	r3, #0
10002a6e:	d005      	beq.n	10002a7c <__wrap_puts+0x30>
10002a70:	4798      	blx	r3
10002a72:	68e4      	ldr	r4, [r4, #12]
10002a74:	2c00      	cmp	r4, #0
10002a76:	d1f8      	bne.n	10002a6a <__wrap_puts+0x1e>
10002a78:	0028      	movs	r0, r5
10002a7a:	bd70      	pop	{r4, r5, r6, pc}
10002a7c:	68e4      	ldr	r4, [r4, #12]
10002a7e:	2c00      	cmp	r4, #0
10002a80:	d1f3      	bne.n	10002a6a <__wrap_puts+0x1e>
10002a82:	e7f9      	b.n	10002a78 <__wrap_puts+0x2c>
10002a84:	20000604 	.word	0x20000604

10002a88 <stdio_set_driver_enabled>:
10002a88:	4a0d      	ldr	r2, [pc, #52]	; (10002ac0 <stdio_set_driver_enabled+0x38>)
10002a8a:	6813      	ldr	r3, [r2, #0]
10002a8c:	2b00      	cmp	r3, #0
10002a8e:	d013      	beq.n	10002ab8 <stdio_set_driver_enabled+0x30>
10002a90:	4283      	cmp	r3, r0
10002a92:	d102      	bne.n	10002a9a <stdio_set_driver_enabled+0x12>
10002a94:	e009      	b.n	10002aaa <stdio_set_driver_enabled+0x22>
10002a96:	4298      	cmp	r0, r3
10002a98:	d008      	beq.n	10002aac <stdio_set_driver_enabled+0x24>
10002a9a:	001a      	movs	r2, r3
10002a9c:	68db      	ldr	r3, [r3, #12]
10002a9e:	2b00      	cmp	r3, #0
10002aa0:	d1f9      	bne.n	10002a96 <stdio_set_driver_enabled+0xe>
10002aa2:	2900      	cmp	r1, #0
10002aa4:	d000      	beq.n	10002aa8 <stdio_set_driver_enabled+0x20>
10002aa6:	60d0      	str	r0, [r2, #12]
10002aa8:	4770      	bx	lr
10002aaa:	001a      	movs	r2, r3
10002aac:	2900      	cmp	r1, #0
10002aae:	d1fb      	bne.n	10002aa8 <stdio_set_driver_enabled+0x20>
10002ab0:	68db      	ldr	r3, [r3, #12]
10002ab2:	60d3      	str	r3, [r2, #12]
10002ab4:	60c1      	str	r1, [r0, #12]
10002ab6:	e7f7      	b.n	10002aa8 <stdio_set_driver_enabled+0x20>
10002ab8:	2900      	cmp	r1, #0
10002aba:	d0f5      	beq.n	10002aa8 <stdio_set_driver_enabled+0x20>
10002abc:	6010      	str	r0, [r2, #0]
10002abe:	e7f3      	b.n	10002aa8 <stdio_set_driver_enabled+0x20>
10002ac0:	20000604 	.word	0x20000604

10002ac4 <stdio_uart_out_chars>:
10002ac4:	b5f0      	push	{r4, r5, r6, r7, lr}
10002ac6:	1e0d      	subs	r5, r1, #0
10002ac8:	dd15      	ble.n	10002af6 <stdio_uart_out_chars+0x32>
10002aca:	4b0e      	ldr	r3, [pc, #56]	; (10002b04 <stdio_uart_out_chars+0x40>)
10002acc:	270d      	movs	r7, #13
10002ace:	681a      	ldr	r2, [r3, #0]
10002ad0:	4b0d      	ldr	r3, [pc, #52]	; (10002b08 <stdio_uart_out_chars+0x44>)
10002ad2:	1945      	adds	r5, r0, r5
10002ad4:	18d3      	adds	r3, r2, r3
10002ad6:	4259      	negs	r1, r3
10002ad8:	414b      	adcs	r3, r1
10002ada:	490c      	ldr	r1, [pc, #48]	; (10002b0c <stdio_uart_out_chars+0x48>)
10002adc:	005b      	lsls	r3, r3, #1
10002ade:	5e5e      	ldrsh	r6, [r3, r1]
10002ae0:	2120      	movs	r1, #32
10002ae2:	7804      	ldrb	r4, [r0, #0]
10002ae4:	42a6      	cmp	r6, r4
10002ae6:	d007      	beq.n	10002af8 <stdio_uart_out_chars+0x34>
10002ae8:	6993      	ldr	r3, [r2, #24]
10002aea:	4219      	tst	r1, r3
10002aec:	d1fc      	bne.n	10002ae8 <stdio_uart_out_chars+0x24>
10002aee:	3001      	adds	r0, #1
10002af0:	6014      	str	r4, [r2, #0]
10002af2:	42a8      	cmp	r0, r5
10002af4:	d1f5      	bne.n	10002ae2 <stdio_uart_out_chars+0x1e>
10002af6:	bdf0      	pop	{r4, r5, r6, r7, pc}
10002af8:	6993      	ldr	r3, [r2, #24]
10002afa:	4219      	tst	r1, r3
10002afc:	d1fc      	bne.n	10002af8 <stdio_uart_out_chars+0x34>
10002afe:	6017      	str	r7, [r2, #0]
10002b00:	e7f2      	b.n	10002ae8 <stdio_uart_out_chars+0x24>
10002b02:	46c0      	nop			; (mov r8, r8)
10002b04:	20000a4c 	.word	0x20000a4c
10002b08:	bffc8000 	.word	0xbffc8000
10002b0c:	20001380 	.word	0x20001380

10002b10 <stdio_uart_in_chars>:
10002b10:	b530      	push	{r4, r5, lr}
10002b12:	0005      	movs	r5, r0
10002b14:	2900      	cmp	r1, #0
10002b16:	dd12      	ble.n	10002b3e <stdio_uart_in_chars+0x2e>
10002b18:	2000      	movs	r0, #0
10002b1a:	2410      	movs	r4, #16
10002b1c:	4b09      	ldr	r3, [pc, #36]	; (10002b44 <stdio_uart_in_chars+0x34>)
10002b1e:	3d01      	subs	r5, #1
10002b20:	681a      	ldr	r2, [r3, #0]
10002b22:	6993      	ldr	r3, [r2, #24]
10002b24:	421c      	tst	r4, r3
10002b26:	d108      	bne.n	10002b3a <stdio_uart_in_chars+0x2a>
10002b28:	3001      	adds	r0, #1
10002b2a:	6993      	ldr	r3, [r2, #24]
10002b2c:	421c      	tst	r4, r3
10002b2e:	d1fc      	bne.n	10002b2a <stdio_uart_in_chars+0x1a>
10002b30:	6813      	ldr	r3, [r2, #0]
10002b32:	542b      	strb	r3, [r5, r0]
10002b34:	4281      	cmp	r1, r0
10002b36:	d1f4      	bne.n	10002b22 <stdio_uart_in_chars+0x12>
10002b38:	bd30      	pop	{r4, r5, pc}
10002b3a:	2800      	cmp	r0, #0
10002b3c:	d1fc      	bne.n	10002b38 <stdio_uart_in_chars+0x28>
10002b3e:	2003      	movs	r0, #3
10002b40:	4240      	negs	r0, r0
10002b42:	e7f9      	b.n	10002b38 <stdio_uart_in_chars+0x28>
10002b44:	20000a4c 	.word	0x20000a4c

10002b48 <stdio_uart_init_full>:
10002b48:	b570      	push	{r4, r5, r6, lr}
10002b4a:	001c      	movs	r4, r3
10002b4c:	4b0a      	ldr	r3, [pc, #40]	; (10002b78 <stdio_uart_init_full+0x30>)
10002b4e:	0015      	movs	r5, r2
10002b50:	6018      	str	r0, [r3, #0]
10002b52:	f7fd ff2f 	bl	100009b4 <uart_init>
10002b56:	2d00      	cmp	r5, #0
10002b58:	db03      	blt.n	10002b62 <stdio_uart_init_full+0x1a>
10002b5a:	2102      	movs	r1, #2
10002b5c:	0028      	movs	r0, r5
10002b5e:	f7fd fe03 	bl	10000768 <gpio_set_function>
10002b62:	2c00      	cmp	r4, #0
10002b64:	db03      	blt.n	10002b6e <stdio_uart_init_full+0x26>
10002b66:	2102      	movs	r1, #2
10002b68:	0020      	movs	r0, r4
10002b6a:	f7fd fdfd 	bl	10000768 <gpio_set_function>
10002b6e:	2101      	movs	r1, #1
10002b70:	4802      	ldr	r0, [pc, #8]	; (10002b7c <stdio_uart_init_full+0x34>)
10002b72:	f7ff ff89 	bl	10002a88 <stdio_set_driver_enabled>
10002b76:	bd70      	pop	{r4, r5, r6, pc}
10002b78:	20000a4c 	.word	0x20000a4c
10002b7c:	20000300 	.word	0x20000300

10002b80 <boot_double_tap_check>:
10002b80:	b510      	push	{r4, lr}
10002b82:	4c11      	ldr	r4, [pc, #68]	; (10002bc8 <boot_double_tap_check+0x48>)
10002b84:	4b11      	ldr	r3, [pc, #68]	; (10002bcc <boot_double_tap_check+0x4c>)
10002b86:	6822      	ldr	r2, [r4, #0]
10002b88:	429a      	cmp	r2, r3
10002b8a:	d110      	bne.n	10002bae <boot_double_tap_check+0x2e>
10002b8c:	4b10      	ldr	r3, [pc, #64]	; (10002bd0 <boot_double_tap_check+0x50>)
10002b8e:	6862      	ldr	r2, [r4, #4]
10002b90:	429a      	cmp	r2, r3
10002b92:	d10c      	bne.n	10002bae <boot_double_tap_check+0x2e>
10002b94:	4b0f      	ldr	r3, [pc, #60]	; (10002bd4 <boot_double_tap_check+0x54>)
10002b96:	68a2      	ldr	r2, [r4, #8]
10002b98:	429a      	cmp	r2, r3
10002b9a:	d108      	bne.n	10002bae <boot_double_tap_check+0x2e>
10002b9c:	2300      	movs	r3, #0
10002b9e:	480e      	ldr	r0, [pc, #56]	; (10002bd8 <boot_double_tap_check+0x58>)
10002ba0:	6023      	str	r3, [r4, #0]
10002ba2:	f7ff fad5 	bl	10002150 <rom_func_lookup>
10002ba6:	2100      	movs	r1, #0
10002ba8:	0003      	movs	r3, r0
10002baa:	2000      	movs	r0, #0
10002bac:	4798      	blx	r3
10002bae:	4b07      	ldr	r3, [pc, #28]	; (10002bcc <boot_double_tap_check+0x4c>)
10002bb0:	2100      	movs	r1, #0
10002bb2:	6023      	str	r3, [r4, #0]
10002bb4:	4b06      	ldr	r3, [pc, #24]	; (10002bd0 <boot_double_tap_check+0x50>)
10002bb6:	4809      	ldr	r0, [pc, #36]	; (10002bdc <boot_double_tap_check+0x5c>)
10002bb8:	6063      	str	r3, [r4, #4]
10002bba:	4b06      	ldr	r3, [pc, #24]	; (10002bd4 <boot_double_tap_check+0x54>)
10002bbc:	60a3      	str	r3, [r4, #8]
10002bbe:	f7fe fb81 	bl	100012c4 <busy_wait_us>
10002bc2:	2300      	movs	r3, #0
10002bc4:	6023      	str	r3, [r4, #0]
10002bc6:	bd10      	pop	{r4, pc}
10002bc8:	20000360 	.word	0x20000360
10002bcc:	f01681de 	.word	0xf01681de
10002bd0:	bd729b29 	.word	0xbd729b29
10002bd4:	d359be7a 	.word	0xd359be7a
10002bd8:	00004255 	.word	0x00004255
10002bdc:	00030d40 	.word	0x00030d40

10002be0 <board_init>:
10002be0:	b510      	push	{r4, lr}
10002be2:	2019      	movs	r0, #25
10002be4:	f7fd fe1e 	bl	10000824 <gpio_init>
10002be8:	23d0      	movs	r3, #208	; 0xd0
10002bea:	2280      	movs	r2, #128	; 0x80
10002bec:	21e1      	movs	r1, #225	; 0xe1
10002bee:	061b      	lsls	r3, r3, #24
10002bf0:	0492      	lsls	r2, r2, #18
10002bf2:	625a      	str	r2, [r3, #36]	; 0x24
10002bf4:	4804      	ldr	r0, [pc, #16]	; (10002c08 <board_init+0x28>)
10002bf6:	4b05      	ldr	r3, [pc, #20]	; (10002c0c <board_init+0x2c>)
10002bf8:	2200      	movs	r2, #0
10002bfa:	6018      	str	r0, [r3, #0]
10002bfc:	0249      	lsls	r1, r1, #9
10002bfe:	2301      	movs	r3, #1
10002c00:	f7ff ffa2 	bl	10002b48 <stdio_uart_init_full>
10002c04:	bd10      	pop	{r4, pc}
10002c06:	46c0      	nop			; (mov r8, r8)
10002c08:	40034000 	.word	0x40034000
10002c0c:	20000a48 	.word	0x20000a48

10002c10 <board_led_write>:
10002c10:	23d0      	movs	r3, #208	; 0xd0
10002c12:	2280      	movs	r2, #128	; 0x80
10002c14:	061b      	lsls	r3, r3, #24
10002c16:	0492      	lsls	r2, r2, #18
10002c18:	2800      	cmp	r0, #0
10002c1a:	d001      	beq.n	10002c20 <board_led_write+0x10>
10002c1c:	615a      	str	r2, [r3, #20]
10002c1e:	4770      	bx	lr
10002c20:	619a      	str	r2, [r3, #24]
10002c22:	e7fc      	b.n	10002c1e <board_led_write+0xe>

10002c24 <dcd_rp2040_irq>:
10002c24:	b5f0      	push	{r4, r5, r6, r7, lr}
10002c26:	2398      	movs	r3, #152	; 0x98
10002c28:	4657      	mov	r7, sl
10002c2a:	4645      	mov	r5, r8
10002c2c:	46de      	mov	lr, fp
10002c2e:	464e      	mov	r6, r9
10002c30:	4a6f      	ldr	r2, [pc, #444]	; (10002df0 <dcd_rp2040_irq+0x1cc>)
10002c32:	b5e0      	push	{r5, r6, r7, lr}
10002c34:	58d7      	ldr	r7, [r2, r3]
10002c36:	2580      	movs	r5, #128	; 0x80
10002c38:	003c      	movs	r4, r7
10002c3a:	026d      	lsls	r5, r5, #9
10002c3c:	3b88      	subs	r3, #136	; 0x88
10002c3e:	469a      	mov	sl, r3
10002c40:	b083      	sub	sp, #12
10002c42:	402c      	ands	r4, r5
10002c44:	422f      	tst	r7, r5
10002c46:	d00f      	beq.n	10002c68 <dcd_rp2040_irq+0x44>
10002c48:	2201      	movs	r2, #1
10002c4a:	2123      	movs	r1, #35	; 0x23
10002c4c:	4b69      	ldr	r3, [pc, #420]	; (10002df4 <dcd_rp2040_irq+0x1d0>)
10002c4e:	2000      	movs	r0, #0
10002c50:	545a      	strb	r2, [r3, r1]
10002c52:	70da      	strb	r2, [r3, #3]
10002c54:	4968      	ldr	r1, [pc, #416]	; (10002df8 <dcd_rp2040_irq+0x1d4>)
10002c56:	f001 fa53 	bl	10004100 <dcd_event_setup_received>
10002c5a:	2280      	movs	r2, #128	; 0x80
10002c5c:	4b67      	ldr	r3, [pc, #412]	; (10002dfc <dcd_rp2040_irq+0x1d8>)
10002c5e:	0292      	lsls	r2, r2, #10
10002c60:	651a      	str	r2, [r3, #80]	; 0x50
10002c62:	4b67      	ldr	r3, [pc, #412]	; (10002e00 <dcd_rp2040_irq+0x1dc>)
10002c64:	002c      	movs	r4, r5
10002c66:	469a      	mov	sl, r3
10002c68:	06fb      	lsls	r3, r7, #27
10002c6a:	d417      	bmi.n	10002c9c <dcd_rp2040_irq+0x78>
10002c6c:	2380      	movs	r3, #128	; 0x80
10002c6e:	015b      	lsls	r3, r3, #5
10002c70:	421f      	tst	r7, r3
10002c72:	d145      	bne.n	10002d00 <dcd_rp2040_irq+0xdc>
10002c74:	2380      	movs	r3, #128	; 0x80
10002c76:	01db      	lsls	r3, r3, #7
10002c78:	421f      	tst	r7, r3
10002c7a:	d000      	beq.n	10002c7e <dcd_rp2040_irq+0x5a>
10002c7c:	e08e      	b.n	10002d9c <dcd_rp2040_irq+0x178>
10002c7e:	2380      	movs	r3, #128	; 0x80
10002c80:	021b      	lsls	r3, r3, #8
10002c82:	421f      	tst	r7, r3
10002c84:	d000      	beq.n	10002c88 <dcd_rp2040_irq+0x64>
10002c86:	e097      	b.n	10002db8 <dcd_rp2040_irq+0x194>
10002c88:	42bc      	cmp	r4, r7
10002c8a:	d000      	beq.n	10002c8e <dcd_rp2040_irq+0x6a>
10002c8c:	e0ab      	b.n	10002de6 <dcd_rp2040_irq+0x1c2>
10002c8e:	b003      	add	sp, #12
10002c90:	bc3c      	pop	{r2, r3, r4, r5}
10002c92:	4690      	mov	r8, r2
10002c94:	4699      	mov	r9, r3
10002c96:	46a2      	mov	sl, r4
10002c98:	46ab      	mov	fp, r5
10002c9a:	bdf0      	pop	{r4, r5, r6, r7, pc}
10002c9c:	4b54      	ldr	r3, [pc, #336]	; (10002df0 <dcd_rp2040_irq+0x1cc>)
10002c9e:	6d9b      	ldr	r3, [r3, #88]	; 0x58
10002ca0:	4698      	mov	r8, r3
10002ca2:	2b00      	cmp	r3, #0
10002ca4:	d027      	beq.n	10002cf6 <dcd_rp2040_irq+0xd2>
10002ca6:	4b55      	ldr	r3, [pc, #340]	; (10002dfc <dcd_rp2040_irq+0x1d8>)
10002ca8:	2500      	movs	r5, #0
10002caa:	469b      	mov	fp, r3
10002cac:	2301      	movs	r3, #1
10002cae:	4699      	mov	r9, r3
10002cb0:	4643      	mov	r3, r8
10002cb2:	2601      	movs	r6, #1
10002cb4:	46b8      	mov	r8, r7
10002cb6:	001f      	movs	r7, r3
10002cb8:	e004      	b.n	10002cc4 <dcd_rp2040_irq+0xa0>
10002cba:	3501      	adds	r5, #1
10002cbc:	0076      	lsls	r6, r6, #1
10002cbe:	b2ed      	uxtb	r5, r5
10002cc0:	2d20      	cmp	r5, #32
10002cc2:	d017      	beq.n	10002cf4 <dcd_rp2040_irq+0xd0>
10002cc4:	4237      	tst	r7, r6
10002cc6:	d0f8      	beq.n	10002cba <dcd_rp2040_irq+0x96>
10002cc8:	465b      	mov	r3, fp
10002cca:	659e      	str	r6, [r3, #88]	; 0x58
10002ccc:	464b      	mov	r3, r9
10002cce:	086c      	lsrs	r4, r5, #1
10002cd0:	43ab      	bics	r3, r5
10002cd2:	0064      	lsls	r4, r4, #1
10002cd4:	18e4      	adds	r4, r4, r3
10002cd6:	4b47      	ldr	r3, [pc, #284]	; (10002df4 <dcd_rp2040_irq+0x1d0>)
10002cd8:	0164      	lsls	r4, r4, #5
10002cda:	469c      	mov	ip, r3
10002cdc:	4464      	add	r4, ip
10002cde:	0020      	movs	r0, r4
10002ce0:	f000 fb94 	bl	1000340c <hw_endpoint_xfer_continue>
10002ce4:	2800      	cmp	r0, #0
10002ce6:	d172      	bne.n	10002dce <dcd_rp2040_irq+0x1aa>
10002ce8:	3501      	adds	r5, #1
10002cea:	43b7      	bics	r7, r6
10002cec:	b2ed      	uxtb	r5, r5
10002cee:	0076      	lsls	r6, r6, #1
10002cf0:	2f00      	cmp	r7, #0
10002cf2:	d1e5      	bne.n	10002cc0 <dcd_rp2040_irq+0x9c>
10002cf4:	4647      	mov	r7, r8
10002cf6:	2380      	movs	r3, #128	; 0x80
10002cf8:	015b      	lsls	r3, r3, #5
10002cfa:	4654      	mov	r4, sl
10002cfc:	421f      	tst	r7, r3
10002cfe:	d0b9      	beq.n	10002c74 <dcd_rp2040_irq+0x50>
10002d00:	431c      	orrs	r4, r3
10002d02:	2300      	movs	r3, #0
10002d04:	4a3c      	ldr	r2, [pc, #240]	; (10002df8 <dcd_rp2040_irq+0x1d4>)
10002d06:	4d3a      	ldr	r5, [pc, #232]	; (10002df0 <dcd_rp2040_irq+0x1cc>)
10002d08:	2100      	movs	r1, #0
10002d0a:	602b      	str	r3, [r5, #0]
10002d0c:	6093      	str	r3, [r2, #8]
10002d0e:	60d3      	str	r3, [r2, #12]
10002d10:	4a3c      	ldr	r2, [pc, #240]	; (10002e04 <dcd_rp2040_irq+0x1e0>)
10002d12:	483d      	ldr	r0, [pc, #244]	; (10002e08 <dcd_rp2040_irq+0x1e4>)
10002d14:	6093      	str	r3, [r2, #8]
10002d16:	60d3      	str	r3, [r2, #12]
10002d18:	4a3c      	ldr	r2, [pc, #240]	; (10002e0c <dcd_rp2040_irq+0x1e8>)
10002d1a:	6093      	str	r3, [r2, #8]
10002d1c:	60d3      	str	r3, [r2, #12]
10002d1e:	4a3c      	ldr	r2, [pc, #240]	; (10002e10 <dcd_rp2040_irq+0x1ec>)
10002d20:	6093      	str	r3, [r2, #8]
10002d22:	60d3      	str	r3, [r2, #12]
10002d24:	4a3b      	ldr	r2, [pc, #236]	; (10002e14 <dcd_rp2040_irq+0x1f0>)
10002d26:	6093      	str	r3, [r2, #8]
10002d28:	60d3      	str	r3, [r2, #12]
10002d2a:	4a3b      	ldr	r2, [pc, #236]	; (10002e18 <dcd_rp2040_irq+0x1f4>)
10002d2c:	6093      	str	r3, [r2, #8]
10002d2e:	60d3      	str	r3, [r2, #12]
10002d30:	4a3a      	ldr	r2, [pc, #232]	; (10002e1c <dcd_rp2040_irq+0x1f8>)
10002d32:	6093      	str	r3, [r2, #8]
10002d34:	60d3      	str	r3, [r2, #12]
10002d36:	4a3a      	ldr	r2, [pc, #232]	; (10002e20 <dcd_rp2040_irq+0x1fc>)
10002d38:	6093      	str	r3, [r2, #8]
10002d3a:	60d3      	str	r3, [r2, #12]
10002d3c:	4a39      	ldr	r2, [pc, #228]	; (10002e24 <dcd_rp2040_irq+0x200>)
10002d3e:	6093      	str	r3, [r2, #8]
10002d40:	60d3      	str	r3, [r2, #12]
10002d42:	4a39      	ldr	r2, [pc, #228]	; (10002e28 <dcd_rp2040_irq+0x204>)
10002d44:	6093      	str	r3, [r2, #8]
10002d46:	60d3      	str	r3, [r2, #12]
10002d48:	4a38      	ldr	r2, [pc, #224]	; (10002e2c <dcd_rp2040_irq+0x208>)
10002d4a:	6093      	str	r3, [r2, #8]
10002d4c:	60d3      	str	r3, [r2, #12]
10002d4e:	4a38      	ldr	r2, [pc, #224]	; (10002e30 <dcd_rp2040_irq+0x20c>)
10002d50:	6093      	str	r3, [r2, #8]
10002d52:	60d3      	str	r3, [r2, #12]
10002d54:	4a37      	ldr	r2, [pc, #220]	; (10002e34 <dcd_rp2040_irq+0x210>)
10002d56:	6093      	str	r3, [r2, #8]
10002d58:	60d3      	str	r3, [r2, #12]
10002d5a:	4a37      	ldr	r2, [pc, #220]	; (10002e38 <dcd_rp2040_irq+0x214>)
10002d5c:	6093      	str	r3, [r2, #8]
10002d5e:	60d3      	str	r3, [r2, #12]
10002d60:	4a36      	ldr	r2, [pc, #216]	; (10002e3c <dcd_rp2040_irq+0x218>)
10002d62:	6093      	str	r3, [r2, #8]
10002d64:	60d3      	str	r3, [r2, #12]
10002d66:	22f0      	movs	r2, #240	; 0xf0
10002d68:	0092      	lsls	r2, r2, #2
10002d6a:	f7ff fd3f 	bl	100027ec <__wrap_memset>
10002d6e:	4b34      	ldr	r3, [pc, #208]	; (10002e40 <dcd_rp2040_irq+0x21c>)
10002d70:	4a34      	ldr	r2, [pc, #208]	; (10002e44 <dcd_rp2040_irq+0x220>)
10002d72:	2100      	movs	r1, #0
10002d74:	601a      	str	r2, [r3, #0]
10002d76:	2000      	movs	r0, #0
10002d78:	2201      	movs	r2, #1
10002d7a:	f001 f997 	bl	100040ac <dcd_event_bus_reset>
10002d7e:	2280      	movs	r2, #128	; 0x80
10002d80:	4b1e      	ldr	r3, [pc, #120]	; (10002dfc <dcd_rp2040_irq+0x1d8>)
10002d82:	0312      	lsls	r2, r2, #12
10002d84:	651a      	str	r2, [r3, #80]	; 0x50
10002d86:	6ceb      	ldr	r3, [r5, #76]	; 0x4c
10002d88:	03db      	lsls	r3, r3, #15
10002d8a:	d400      	bmi.n	10002d8e <dcd_rp2040_irq+0x16a>
10002d8c:	e772      	b.n	10002c74 <dcd_rp2040_irq+0x50>
10002d8e:	f002 fb37 	bl	10005400 <rp2040_usb_device_enumeration_fix>
10002d92:	2380      	movs	r3, #128	; 0x80
10002d94:	01db      	lsls	r3, r3, #7
10002d96:	421f      	tst	r7, r3
10002d98:	d100      	bne.n	10002d9c <dcd_rp2040_irq+0x178>
10002d9a:	e770      	b.n	10002c7e <dcd_rp2040_irq+0x5a>
10002d9c:	2201      	movs	r2, #1
10002d9e:	2104      	movs	r1, #4
10002da0:	2000      	movs	r0, #0
10002da2:	431c      	orrs	r4, r3
10002da4:	f001 f8f2 	bl	10003f8c <dcd_event_bus_signal>
10002da8:	2210      	movs	r2, #16
10002daa:	4b14      	ldr	r3, [pc, #80]	; (10002dfc <dcd_rp2040_irq+0x1d8>)
10002dac:	651a      	str	r2, [r3, #80]	; 0x50
10002dae:	2380      	movs	r3, #128	; 0x80
10002db0:	021b      	lsls	r3, r3, #8
10002db2:	421f      	tst	r7, r3
10002db4:	d100      	bne.n	10002db8 <dcd_rp2040_irq+0x194>
10002db6:	e767      	b.n	10002c88 <dcd_rp2040_irq+0x64>
10002db8:	2201      	movs	r2, #1
10002dba:	2105      	movs	r1, #5
10002dbc:	2000      	movs	r0, #0
10002dbe:	431c      	orrs	r4, r3
10002dc0:	f001 f8e4 	bl	10003f8c <dcd_event_bus_signal>
10002dc4:	2280      	movs	r2, #128	; 0x80
10002dc6:	4b0d      	ldr	r3, [pc, #52]	; (10002dfc <dcd_rp2040_irq+0x1d8>)
10002dc8:	0112      	lsls	r2, r2, #4
10002dca:	651a      	str	r2, [r3, #80]	; 0x50
10002dcc:	e75c      	b.n	10002c88 <dcd_rp2040_irq+0x64>
10002dce:	464b      	mov	r3, r9
10002dd0:	8aa2      	ldrh	r2, [r4, #20]
10002dd2:	78a1      	ldrb	r1, [r4, #2]
10002dd4:	2000      	movs	r0, #0
10002dd6:	9300      	str	r3, [sp, #0]
10002dd8:	2300      	movs	r3, #0
10002dda:	f001 f9b9 	bl	10004150 <dcd_event_xfer_complete>
10002dde:	0020      	movs	r0, r4
10002de0:	f000 fa52 	bl	10003288 <hw_endpoint_reset_transfer>
10002de4:	e780      	b.n	10002ce8 <dcd_rp2040_irq+0xc4>
10002de6:	0021      	movs	r1, r4
10002de8:	4817      	ldr	r0, [pc, #92]	; (10002e48 <dcd_rp2040_irq+0x224>)
10002dea:	4079      	eors	r1, r7
10002dec:	f7fe fe0a 	bl	10001a04 <panic>
10002df0:	50110000 	.word	0x50110000
10002df4:	20000610 	.word	0x20000610
10002df8:	50100000 	.word	0x50100000
10002dfc:	50113000 	.word	0x50113000
10002e00:	00010010 	.word	0x00010010
10002e04:	50100008 	.word	0x50100008
10002e08:	20000650 	.word	0x20000650
10002e0c:	50100010 	.word	0x50100010
10002e10:	50100018 	.word	0x50100018
10002e14:	50100020 	.word	0x50100020
10002e18:	50100028 	.word	0x50100028
10002e1c:	50100030 	.word	0x50100030
10002e20:	50100038 	.word	0x50100038
10002e24:	50100040 	.word	0x50100040
10002e28:	50100048 	.word	0x50100048
10002e2c:	50100050 	.word	0x50100050
10002e30:	50100058 	.word	0x50100058
10002e34:	50100060 	.word	0x50100060
10002e38:	50100068 	.word	0x50100068
10002e3c:	50100070 	.word	0x50100070
10002e40:	20000a14 	.word	0x20000a14
10002e44:	50100180 	.word	0x50100180
10002e48:	100057f4 	.word	0x100057f4

10002e4c <dcd_int_enable>:
10002e4c:	b510      	push	{r4, lr}
10002e4e:	2101      	movs	r1, #1
10002e50:	2005      	movs	r0, #5
10002e52:	f7fe ff59 	bl	10001d08 <irq_set_enabled>
10002e56:	bd10      	pop	{r4, pc}

10002e58 <dcd_set_address>:
10002e58:	b510      	push	{r4, lr}
10002e5a:	2200      	movs	r2, #0
10002e5c:	2100      	movs	r1, #0
10002e5e:	4802      	ldr	r0, [pc, #8]	; (10002e68 <dcd_set_address+0x10>)
10002e60:	f000 fa38 	bl	100032d4 <hw_endpoint_xfer_start>
10002e64:	bd10      	pop	{r4, pc}
10002e66:	46c0      	nop			; (mov r8, r8)
10002e68:	20000630 	.word	0x20000630

10002e6c <dcd_connect>:
10002e6c:	2280      	movs	r2, #128	; 0x80
10002e6e:	4b02      	ldr	r3, [pc, #8]	; (10002e78 <dcd_connect+0xc>)
10002e70:	0252      	lsls	r2, r2, #9
10002e72:	64da      	str	r2, [r3, #76]	; 0x4c
10002e74:	4770      	bx	lr
10002e76:	46c0      	nop			; (mov r8, r8)
10002e78:	50112000 	.word	0x50112000

10002e7c <dcd_init>:
10002e7c:	b5f0      	push	{r4, r5, r6, r7, lr}
10002e7e:	46c6      	mov	lr, r8
10002e80:	b500      	push	{lr}
10002e82:	0006      	movs	r6, r0
10002e84:	f000 f9da 	bl	1000323c <rp2040_usb_init>
10002e88:	230c      	movs	r3, #12
10002e8a:	4d36      	ldr	r5, [pc, #216]	; (10002f64 <dcd_init+0xe8>)
10002e8c:	2005      	movs	r0, #5
10002e8e:	67ab      	str	r3, [r5, #120]	; 0x78
10002e90:	4935      	ldr	r1, [pc, #212]	; (10002f68 <dcd_init+0xec>)
10002e92:	f7fe ff53 	bl	10001d3c <irq_set_exclusive_handler>
10002e96:	2340      	movs	r3, #64	; 0x40
10002e98:	4698      	mov	r8, r3
10002e9a:	4c34      	ldr	r4, [pc, #208]	; (10002f6c <dcd_init+0xf0>)
10002e9c:	2240      	movs	r2, #64	; 0x40
10002e9e:	2100      	movs	r1, #0
10002ea0:	0020      	movs	r0, r4
10002ea2:	f7ff fca3 	bl	100027ec <__wrap_memset>
10002ea6:	4641      	mov	r1, r8
10002ea8:	2300      	movs	r3, #0
10002eaa:	2701      	movs	r7, #1
10002eac:	2200      	movs	r2, #0
10002eae:	2021      	movs	r0, #33	; 0x21
10002eb0:	83a1      	strh	r1, [r4, #28]
10002eb2:	492f      	ldr	r1, [pc, #188]	; (10002f70 <dcd_init+0xf4>)
10002eb4:	7067      	strb	r7, [r4, #1]
10002eb6:	8063      	strh	r3, [r4, #2]
10002eb8:	77a2      	strb	r2, [r4, #30]
10002eba:	60a1      	str	r1, [r4, #8]
10002ebc:	600b      	str	r3, [r1, #0]
10002ebe:	5422      	strb	r2, [r4, r0]
10002ec0:	305f      	adds	r0, #95	; 0x5f
10002ec2:	8460      	strh	r0, [r4, #34]	; 0x22
10002ec4:	4640      	mov	r0, r8
10002ec6:	87a0      	strh	r0, [r4, #60]	; 0x3c
10002ec8:	3802      	subs	r0, #2
10002eca:	5422      	strb	r2, [r4, r0]
10002ecc:	4929      	ldr	r1, [pc, #164]	; (10002f74 <dcd_init+0xf8>)
10002ece:	4a2a      	ldr	r2, [pc, #168]	; (10002f78 <dcd_init+0xfc>)
10002ed0:	6063      	str	r3, [r4, #4]
10002ed2:	60e1      	str	r1, [r4, #12]
10002ed4:	62a2      	str	r2, [r4, #40]	; 0x28
10002ed6:	6013      	str	r3, [r2, #0]
10002ed8:	4a28      	ldr	r2, [pc, #160]	; (10002f7c <dcd_init+0x100>)
10002eda:	6263      	str	r3, [r4, #36]	; 0x24
10002edc:	62e1      	str	r1, [r4, #44]	; 0x2c
10002ede:	6093      	str	r3, [r2, #8]
10002ee0:	60d3      	str	r3, [r2, #12]
10002ee2:	4a27      	ldr	r2, [pc, #156]	; (10002f80 <dcd_init+0x104>)
10002ee4:	0020      	movs	r0, r4
10002ee6:	6093      	str	r3, [r2, #8]
10002ee8:	60d3      	str	r3, [r2, #12]
10002eea:	4a26      	ldr	r2, [pc, #152]	; (10002f84 <dcd_init+0x108>)
10002eec:	2100      	movs	r1, #0
10002eee:	6093      	str	r3, [r2, #8]
10002ef0:	60d3      	str	r3, [r2, #12]
10002ef2:	4a25      	ldr	r2, [pc, #148]	; (10002f88 <dcd_init+0x10c>)
10002ef4:	3040      	adds	r0, #64	; 0x40
10002ef6:	6093      	str	r3, [r2, #8]
10002ef8:	60d3      	str	r3, [r2, #12]
10002efa:	4a24      	ldr	r2, [pc, #144]	; (10002f8c <dcd_init+0x110>)
10002efc:	6093      	str	r3, [r2, #8]
10002efe:	60d3      	str	r3, [r2, #12]
10002f00:	4a23      	ldr	r2, [pc, #140]	; (10002f90 <dcd_init+0x114>)
10002f02:	6093      	str	r3, [r2, #8]
10002f04:	60d3      	str	r3, [r2, #12]
10002f06:	4a23      	ldr	r2, [pc, #140]	; (10002f94 <dcd_init+0x118>)
10002f08:	6093      	str	r3, [r2, #8]
10002f0a:	60d3      	str	r3, [r2, #12]
10002f0c:	4a22      	ldr	r2, [pc, #136]	; (10002f98 <dcd_init+0x11c>)
10002f0e:	6093      	str	r3, [r2, #8]
10002f10:	60d3      	str	r3, [r2, #12]
10002f12:	4a22      	ldr	r2, [pc, #136]	; (10002f9c <dcd_init+0x120>)
10002f14:	6093      	str	r3, [r2, #8]
10002f16:	60d3      	str	r3, [r2, #12]
10002f18:	4a21      	ldr	r2, [pc, #132]	; (10002fa0 <dcd_init+0x124>)
10002f1a:	6093      	str	r3, [r2, #8]
10002f1c:	60d3      	str	r3, [r2, #12]
10002f1e:	4a21      	ldr	r2, [pc, #132]	; (10002fa4 <dcd_init+0x128>)
10002f20:	6093      	str	r3, [r2, #8]
10002f22:	60d3      	str	r3, [r2, #12]
10002f24:	4a20      	ldr	r2, [pc, #128]	; (10002fa8 <dcd_init+0x12c>)
10002f26:	6093      	str	r3, [r2, #8]
10002f28:	60d3      	str	r3, [r2, #12]
10002f2a:	4a20      	ldr	r2, [pc, #128]	; (10002fac <dcd_init+0x130>)
10002f2c:	6093      	str	r3, [r2, #8]
10002f2e:	60d3      	str	r3, [r2, #12]
10002f30:	4a1f      	ldr	r2, [pc, #124]	; (10002fb0 <dcd_init+0x134>)
10002f32:	6093      	str	r3, [r2, #8]
10002f34:	60d3      	str	r3, [r2, #12]
10002f36:	4a1f      	ldr	r2, [pc, #124]	; (10002fb4 <dcd_init+0x138>)
10002f38:	6093      	str	r3, [r2, #8]
10002f3a:	60d3      	str	r3, [r2, #12]
10002f3c:	22f0      	movs	r2, #240	; 0xf0
10002f3e:	0092      	lsls	r2, r2, #2
10002f40:	f7ff fc54 	bl	100027ec <__wrap_memset>
10002f44:	4b1c      	ldr	r3, [pc, #112]	; (10002fb8 <dcd_init+0x13c>)
10002f46:	4a1d      	ldr	r2, [pc, #116]	; (10002fbc <dcd_init+0x140>)
10002f48:	0030      	movs	r0, r6
10002f4a:	601a      	str	r2, [r3, #0]
10002f4c:	2380      	movs	r3, #128	; 0x80
10002f4e:	059b      	lsls	r3, r3, #22
10002f50:	642f      	str	r7, [r5, #64]	; 0x40
10002f52:	64eb      	str	r3, [r5, #76]	; 0x4c
10002f54:	2390      	movs	r3, #144	; 0x90
10002f56:	4a1a      	ldr	r2, [pc, #104]	; (10002fc0 <dcd_init+0x144>)
10002f58:	50ea      	str	r2, [r5, r3]
10002f5a:	f7ff ff87 	bl	10002e6c <dcd_connect>
10002f5e:	bc04      	pop	{r2}
10002f60:	4690      	mov	r8, r2
10002f62:	bdf0      	pop	{r4, r5, r6, r7, pc}
10002f64:	50110000 	.word	0x50110000
10002f68:	10002c25 	.word	0x10002c25
10002f6c:	20000610 	.word	0x20000610
10002f70:	50100084 	.word	0x50100084
10002f74:	50100100 	.word	0x50100100
10002f78:	50100080 	.word	0x50100080
10002f7c:	50100000 	.word	0x50100000
10002f80:	50100008 	.word	0x50100008
10002f84:	50100010 	.word	0x50100010
10002f88:	50100018 	.word	0x50100018
10002f8c:	50100020 	.word	0x50100020
10002f90:	50100028 	.word	0x50100028
10002f94:	50100030 	.word	0x50100030
10002f98:	50100038 	.word	0x50100038
10002f9c:	50100040 	.word	0x50100040
10002fa0:	50100048 	.word	0x50100048
10002fa4:	50100050 	.word	0x50100050
10002fa8:	50100058 	.word	0x50100058
10002fac:	50100060 	.word	0x50100060
10002fb0:	50100068 	.word	0x50100068
10002fb4:	50100070 	.word	0x50100070
10002fb8:	20000a14 	.word	0x20000a14
10002fbc:	50100180 	.word	0x50100180
10002fc0:	0001d010 	.word	0x0001d010

10002fc4 <dcd_edpt0_status_complete>:
10002fc4:	780b      	ldrb	r3, [r1, #0]
10002fc6:	065b      	lsls	r3, r3, #25
10002fc8:	d102      	bne.n	10002fd0 <dcd_edpt0_status_complete+0xc>
10002fca:	784b      	ldrb	r3, [r1, #1]
10002fcc:	2b05      	cmp	r3, #5
10002fce:	d000      	beq.n	10002fd2 <dcd_edpt0_status_complete+0xe>
10002fd0:	4770      	bx	lr
10002fd2:	788a      	ldrb	r2, [r1, #2]
10002fd4:	4b01      	ldr	r3, [pc, #4]	; (10002fdc <dcd_edpt0_status_complete+0x18>)
10002fd6:	601a      	str	r2, [r3, #0]
10002fd8:	e7fa      	b.n	10002fd0 <dcd_edpt0_status_complete+0xc>
10002fda:	46c0      	nop			; (mov r8, r8)
10002fdc:	50110000 	.word	0x50110000

10002fe0 <dcd_edpt_open>:
10002fe0:	b5f0      	push	{r4, r5, r6, r7, lr}
10002fe2:	46ce      	mov	lr, r9
10002fe4:	4647      	mov	r7, r8
10002fe6:	2307      	movs	r3, #7
10002fe8:	b580      	push	{r7, lr}
10002fea:	7948      	ldrb	r0, [r1, #5]
10002fec:	788e      	ldrb	r6, [r1, #2]
10002fee:	790a      	ldrb	r2, [r1, #4]
10002ff0:	4003      	ands	r3, r0
10002ff2:	78c8      	ldrb	r0, [r1, #3]
10002ff4:	217f      	movs	r1, #127	; 0x7f
10002ff6:	0780      	lsls	r0, r0, #30
10002ff8:	4031      	ands	r1, r6
10002ffa:	021b      	lsls	r3, r3, #8
10002ffc:	09f4      	lsrs	r4, r6, #7
10002ffe:	4313      	orrs	r3, r2
10003000:	004f      	lsls	r7, r1, #1
10003002:	0f82      	lsrs	r2, r0, #30
10003004:	4694      	mov	ip, r2
10003006:	4691      	mov	r9, r2
10003008:	4d2a      	ldr	r5, [pc, #168]	; (100030b4 <dcd_edpt_open+0xd4>)
1000300a:	193a      	adds	r2, r7, r4
1000300c:	0152      	lsls	r2, r2, #5
1000300e:	18aa      	adds	r2, r5, r2
10003010:	7096      	strb	r6, [r2, #2]
10003012:	2601      	movs	r6, #1
10003014:	4066      	eors	r6, r4
10003016:	7056      	strb	r6, [r2, #1]
10003018:	4660      	mov	r0, ip
1000301a:	2600      	movs	r6, #0
1000301c:	8393      	strh	r3, [r2, #28]
1000301e:	70d6      	strb	r6, [r2, #3]
10003020:	7790      	strb	r0, [r2, #30]
10003022:	00ca      	lsls	r2, r1, #3
10003024:	2c01      	cmp	r4, #1
10003026:	d029      	beq.n	1000307c <dcd_edpt_open+0x9c>
10003028:	4823      	ldr	r0, [pc, #140]	; (100030b8 <dcd_edpt_open+0xd8>)
1000302a:	4684      	mov	ip, r0
1000302c:	0188      	lsls	r0, r1, #6
1000302e:	4462      	add	r2, ip
10003030:	4684      	mov	ip, r0
10003032:	44ac      	add	ip, r5
10003034:	4660      	mov	r0, ip
10003036:	6082      	str	r2, [r0, #8]
10003038:	6016      	str	r6, [r2, #0]
1000303a:	2900      	cmp	r1, #0
1000303c:	d029      	beq.n	10003092 <dcd_edpt_open+0xb2>
1000303e:	4a1f      	ldr	r2, [pc, #124]	; (100030bc <dcd_edpt_open+0xdc>)
10003040:	00c9      	lsls	r1, r1, #3
10003042:	4690      	mov	r8, r2
10003044:	4441      	add	r1, r8
10003046:	6041      	str	r1, [r0, #4]
10003048:	223f      	movs	r2, #63	; 0x3f
1000304a:	333f      	adds	r3, #63	; 0x3f
1000304c:	4393      	bics	r3, r2
1000304e:	464a      	mov	r2, r9
10003050:	2a02      	cmp	r2, #2
10003052:	d100      	bne.n	10003056 <dcd_edpt_open+0x76>
10003054:	005b      	lsls	r3, r3, #1
10003056:	491a      	ldr	r1, [pc, #104]	; (100030c0 <dcd_edpt_open+0xe0>)
10003058:	193f      	adds	r7, r7, r4
1000305a:	680a      	ldr	r2, [r1, #0]
1000305c:	017f      	lsls	r7, r7, #5
1000305e:	18d3      	adds	r3, r2, r3
10003060:	600b      	str	r3, [r1, #0]
10003062:	4b18      	ldr	r3, [pc, #96]	; (100030c4 <dcd_edpt_open+0xe4>)
10003064:	19ed      	adds	r5, r5, r7
10003066:	4053      	eors	r3, r2
10003068:	60ea      	str	r2, [r5, #12]
1000306a:	464a      	mov	r2, r9
1000306c:	0690      	lsls	r0, r2, #26
1000306e:	4318      	orrs	r0, r3
10003070:	2380      	movs	r3, #128	; 0x80
10003072:	061b      	lsls	r3, r3, #24
10003074:	4318      	orrs	r0, r3
10003076:	686b      	ldr	r3, [r5, #4]
10003078:	6018      	str	r0, [r3, #0]
1000307a:	e010      	b.n	1000309e <dcd_edpt_open+0xbe>
1000307c:	4812      	ldr	r0, [pc, #72]	; (100030c8 <dcd_edpt_open+0xe8>)
1000307e:	4684      	mov	ip, r0
10003080:	0188      	lsls	r0, r1, #6
10003082:	4462      	add	r2, ip
10003084:	4684      	mov	ip, r0
10003086:	44ac      	add	ip, r5
10003088:	4660      	mov	r0, ip
1000308a:	6282      	str	r2, [r0, #40]	; 0x28
1000308c:	6016      	str	r6, [r2, #0]
1000308e:	2900      	cmp	r1, #0
10003090:	d10a      	bne.n	100030a8 <dcd_edpt_open+0xc8>
10003092:	2300      	movs	r3, #0
10003094:	0164      	lsls	r4, r4, #5
10003096:	192d      	adds	r5, r5, r4
10003098:	606b      	str	r3, [r5, #4]
1000309a:	4b0c      	ldr	r3, [pc, #48]	; (100030cc <dcd_edpt_open+0xec>)
1000309c:	60eb      	str	r3, [r5, #12]
1000309e:	2001      	movs	r0, #1
100030a0:	bc0c      	pop	{r2, r3}
100030a2:	4690      	mov	r8, r2
100030a4:	4699      	mov	r9, r3
100030a6:	bdf0      	pop	{r4, r5, r6, r7, pc}
100030a8:	4a06      	ldr	r2, [pc, #24]	; (100030c4 <dcd_edpt_open+0xe4>)
100030aa:	00c9      	lsls	r1, r1, #3
100030ac:	4690      	mov	r8, r2
100030ae:	4441      	add	r1, r8
100030b0:	6241      	str	r1, [r0, #36]	; 0x24
100030b2:	e7c9      	b.n	10003048 <dcd_edpt_open+0x68>
100030b4:	20000610 	.word	0x20000610
100030b8:	50100084 	.word	0x50100084
100030bc:	50100004 	.word	0x50100004
100030c0:	20000a14 	.word	0x20000a14
100030c4:	50100000 	.word	0x50100000
100030c8:	50100080 	.word	0x50100080
100030cc:	50100100 	.word	0x50100100

100030d0 <dcd_edpt_close_all>:
100030d0:	2300      	movs	r3, #0
100030d2:	4a1c      	ldr	r2, [pc, #112]	; (10003144 <dcd_edpt_close_all+0x74>)
100030d4:	b510      	push	{r4, lr}
100030d6:	6093      	str	r3, [r2, #8]
100030d8:	60d3      	str	r3, [r2, #12]
100030da:	4a1b      	ldr	r2, [pc, #108]	; (10003148 <dcd_edpt_close_all+0x78>)
100030dc:	2100      	movs	r1, #0
100030de:	6093      	str	r3, [r2, #8]
100030e0:	60d3      	str	r3, [r2, #12]
100030e2:	4a1a      	ldr	r2, [pc, #104]	; (1000314c <dcd_edpt_close_all+0x7c>)
100030e4:	481a      	ldr	r0, [pc, #104]	; (10003150 <dcd_edpt_close_all+0x80>)
100030e6:	6093      	str	r3, [r2, #8]
100030e8:	60d3      	str	r3, [r2, #12]
100030ea:	4a1a      	ldr	r2, [pc, #104]	; (10003154 <dcd_edpt_close_all+0x84>)
100030ec:	6093      	str	r3, [r2, #8]
100030ee:	60d3      	str	r3, [r2, #12]
100030f0:	4a19      	ldr	r2, [pc, #100]	; (10003158 <dcd_edpt_close_all+0x88>)
100030f2:	6093      	str	r3, [r2, #8]
100030f4:	60d3      	str	r3, [r2, #12]
100030f6:	4a19      	ldr	r2, [pc, #100]	; (1000315c <dcd_edpt_close_all+0x8c>)
100030f8:	6093      	str	r3, [r2, #8]
100030fa:	60d3      	str	r3, [r2, #12]
100030fc:	4a18      	ldr	r2, [pc, #96]	; (10003160 <dcd_edpt_close_all+0x90>)
100030fe:	6093      	str	r3, [r2, #8]
10003100:	60d3      	str	r3, [r2, #12]
10003102:	4a18      	ldr	r2, [pc, #96]	; (10003164 <dcd_edpt_close_all+0x94>)
10003104:	6093      	str	r3, [r2, #8]
10003106:	60d3      	str	r3, [r2, #12]
10003108:	4a17      	ldr	r2, [pc, #92]	; (10003168 <dcd_edpt_close_all+0x98>)
1000310a:	6093      	str	r3, [r2, #8]
1000310c:	60d3      	str	r3, [r2, #12]
1000310e:	4a17      	ldr	r2, [pc, #92]	; (1000316c <dcd_edpt_close_all+0x9c>)
10003110:	6093      	str	r3, [r2, #8]
10003112:	60d3      	str	r3, [r2, #12]
10003114:	4a16      	ldr	r2, [pc, #88]	; (10003170 <dcd_edpt_close_all+0xa0>)
10003116:	6093      	str	r3, [r2, #8]
10003118:	60d3      	str	r3, [r2, #12]
1000311a:	4a16      	ldr	r2, [pc, #88]	; (10003174 <dcd_edpt_close_all+0xa4>)
1000311c:	6093      	str	r3, [r2, #8]
1000311e:	60d3      	str	r3, [r2, #12]
10003120:	4a15      	ldr	r2, [pc, #84]	; (10003178 <dcd_edpt_close_all+0xa8>)
10003122:	6093      	str	r3, [r2, #8]
10003124:	60d3      	str	r3, [r2, #12]
10003126:	4a15      	ldr	r2, [pc, #84]	; (1000317c <dcd_edpt_close_all+0xac>)
10003128:	6093      	str	r3, [r2, #8]
1000312a:	60d3      	str	r3, [r2, #12]
1000312c:	4a14      	ldr	r2, [pc, #80]	; (10003180 <dcd_edpt_close_all+0xb0>)
1000312e:	6093      	str	r3, [r2, #8]
10003130:	60d3      	str	r3, [r2, #12]
10003132:	22f0      	movs	r2, #240	; 0xf0
10003134:	0092      	lsls	r2, r2, #2
10003136:	f7ff fb59 	bl	100027ec <__wrap_memset>
1000313a:	4b12      	ldr	r3, [pc, #72]	; (10003184 <dcd_edpt_close_all+0xb4>)
1000313c:	4a12      	ldr	r2, [pc, #72]	; (10003188 <dcd_edpt_close_all+0xb8>)
1000313e:	601a      	str	r2, [r3, #0]
10003140:	bd10      	pop	{r4, pc}
10003142:	46c0      	nop			; (mov r8, r8)
10003144:	50100000 	.word	0x50100000
10003148:	50100008 	.word	0x50100008
1000314c:	50100010 	.word	0x50100010
10003150:	20000650 	.word	0x20000650
10003154:	50100018 	.word	0x50100018
10003158:	50100020 	.word	0x50100020
1000315c:	50100028 	.word	0x50100028
10003160:	50100030 	.word	0x50100030
10003164:	50100038 	.word	0x50100038
10003168:	50100040 	.word	0x50100040
1000316c:	50100048 	.word	0x50100048
10003170:	50100050 	.word	0x50100050
10003174:	50100058 	.word	0x50100058
10003178:	50100060 	.word	0x50100060
1000317c:	50100068 	.word	0x50100068
10003180:	50100070 	.word	0x50100070
10003184:	20000a14 	.word	0x20000a14
10003188:	50100180 	.word	0x50100180

1000318c <dcd_edpt_xfer>:
1000318c:	b510      	push	{r4, lr}
1000318e:	207f      	movs	r0, #127	; 0x7f
10003190:	000c      	movs	r4, r1
10003192:	4020      	ands	r0, r4
10003194:	0040      	lsls	r0, r0, #1
10003196:	09e4      	lsrs	r4, r4, #7
10003198:	0011      	movs	r1, r2
1000319a:	1900      	adds	r0, r0, r4
1000319c:	001a      	movs	r2, r3
1000319e:	4b03      	ldr	r3, [pc, #12]	; (100031ac <dcd_edpt_xfer+0x20>)
100031a0:	0140      	lsls	r0, r0, #5
100031a2:	18c0      	adds	r0, r0, r3
100031a4:	f000 f896 	bl	100032d4 <hw_endpoint_xfer_start>
100031a8:	2001      	movs	r0, #1
100031aa:	bd10      	pop	{r4, pc}
100031ac:	20000610 	.word	0x20000610

100031b0 <dcd_edpt_stall>:
100031b0:	237f      	movs	r3, #127	; 0x7f
100031b2:	0018      	movs	r0, r3
100031b4:	b510      	push	{r4, lr}
100031b6:	4008      	ands	r0, r1
100031b8:	420b      	tst	r3, r1
100031ba:	d00b      	beq.n	100031d4 <dcd_edpt_stall+0x24>
100031bc:	09c9      	lsrs	r1, r1, #7
100031be:	2280      	movs	r2, #128	; 0x80
100031c0:	0040      	lsls	r0, r0, #1
100031c2:	1840      	adds	r0, r0, r1
100031c4:	4906      	ldr	r1, [pc, #24]	; (100031e0 <dcd_edpt_stall+0x30>)
100031c6:	0140      	lsls	r0, r0, #5
100031c8:	1840      	adds	r0, r0, r1
100031ca:	0112      	lsls	r2, r2, #4
100031cc:	2100      	movs	r1, #0
100031ce:	f000 f861 	bl	10003294 <_hw_endpoint_buffer_control_update32>
100031d2:	bd10      	pop	{r4, pc}
100031d4:	2302      	movs	r3, #2
100031d6:	4a03      	ldr	r2, [pc, #12]	; (100031e4 <dcd_edpt_stall+0x34>)
100031d8:	09c9      	lsrs	r1, r1, #7
100031da:	1a5b      	subs	r3, r3, r1
100031dc:	6693      	str	r3, [r2, #104]	; 0x68
100031de:	e7ee      	b.n	100031be <dcd_edpt_stall+0xe>
100031e0:	20000610 	.word	0x20000610
100031e4:	50112000 	.word	0x50112000

100031e8 <dcd_edpt_clear_stall>:
100031e8:	237f      	movs	r3, #127	; 0x7f
100031ea:	0018      	movs	r0, r3
100031ec:	b510      	push	{r4, lr}
100031ee:	4008      	ands	r0, r1
100031f0:	420b      	tst	r3, r1
100031f2:	d100      	bne.n	100031f6 <dcd_edpt_clear_stall+0xe>
100031f4:	bd10      	pop	{r4, pc}
100031f6:	2300      	movs	r3, #0
100031f8:	0040      	lsls	r0, r0, #1
100031fa:	09c9      	lsrs	r1, r1, #7
100031fc:	1841      	adds	r1, r0, r1
100031fe:	4804      	ldr	r0, [pc, #16]	; (10003210 <dcd_edpt_clear_stall+0x28>)
10003200:	0149      	lsls	r1, r1, #5
10003202:	1840      	adds	r0, r0, r1
10003204:	2200      	movs	r2, #0
10003206:	4903      	ldr	r1, [pc, #12]	; (10003214 <dcd_edpt_clear_stall+0x2c>)
10003208:	70c3      	strb	r3, [r0, #3]
1000320a:	f000 f843 	bl	10003294 <_hw_endpoint_buffer_control_update32>
1000320e:	e7f1      	b.n	100031f4 <dcd_edpt_clear_stall+0xc>
10003210:	20000610 	.word	0x20000610
10003214:	fffff7ff 	.word	0xfffff7ff

10003218 <dcd_edpt_close>:
10003218:	4770      	bx	lr
1000321a:	46c0      	nop			; (mov r8, r8)

1000321c <_hw_endpoint_buffer_control_update32.part.0>:
1000321c:	217f      	movs	r1, #127	; 0x7f
1000321e:	b510      	push	{r4, lr}
10003220:	7880      	ldrb	r0, [r0, #2]
10003222:	4a04      	ldr	r2, [pc, #16]	; (10003234 <_hw_endpoint_buffer_control_update32.part.0+0x18>)
10003224:	09c3      	lsrs	r3, r0, #7
10003226:	009b      	lsls	r3, r3, #2
10003228:	4001      	ands	r1, r0
1000322a:	589a      	ldr	r2, [r3, r2]
1000322c:	4802      	ldr	r0, [pc, #8]	; (10003238 <_hw_endpoint_buffer_control_update32.part.0+0x1c>)
1000322e:	f7fe fbe9 	bl	10001a04 <panic>
10003232:	46c0      	nop			; (mov r8, r8)
10003234:	20000314 	.word	0x20000314
10003238:	10005808 	.word	0x10005808

1000323c <rp2040_usb_init>:
1000323c:	2280      	movs	r2, #128	; 0x80
1000323e:	4b0d      	ldr	r3, [pc, #52]	; (10003274 <rp2040_usb_init+0x38>)
10003240:	0452      	lsls	r2, r2, #17
10003242:	b510      	push	{r4, lr}
10003244:	601a      	str	r2, [r3, #0]
10003246:	4b0c      	ldr	r3, [pc, #48]	; (10003278 <rp2040_usb_init+0x3c>)
10003248:	490c      	ldr	r1, [pc, #48]	; (1000327c <rp2040_usb_init+0x40>)
1000324a:	601a      	str	r2, [r3, #0]
1000324c:	0010      	movs	r0, r2
1000324e:	688b      	ldr	r3, [r1, #8]
10003250:	4398      	bics	r0, r3
10003252:	d1fb      	bne.n	1000324c <rp2040_usb_init+0x10>
10003254:	4c0a      	ldr	r4, [pc, #40]	; (10003280 <rp2040_usb_init+0x44>)
10003256:	229c      	movs	r2, #156	; 0x9c
10003258:	2100      	movs	r1, #0
1000325a:	0020      	movs	r0, r4
1000325c:	f7ff fac6 	bl	100027ec <__wrap_memset>
10003260:	2280      	movs	r2, #128	; 0x80
10003262:	2100      	movs	r1, #0
10003264:	0152      	lsls	r2, r2, #5
10003266:	4807      	ldr	r0, [pc, #28]	; (10003284 <rp2040_usb_init+0x48>)
10003268:	f7ff fac0 	bl	100027ec <__wrap_memset>
1000326c:	2309      	movs	r3, #9
1000326e:	6763      	str	r3, [r4, #116]	; 0x74
10003270:	bd10      	pop	{r4, pc}
10003272:	46c0      	nop			; (mov r8, r8)
10003274:	4000e000 	.word	0x4000e000
10003278:	4000f000 	.word	0x4000f000
1000327c:	4000c000 	.word	0x4000c000
10003280:	50110000 	.word	0x50110000
10003284:	50100000 	.word	0x50100000

10003288 <hw_endpoint_reset_transfer>:
10003288:	2300      	movs	r3, #0
1000328a:	7403      	strb	r3, [r0, #16]
1000328c:	8243      	strh	r3, [r0, #18]
1000328e:	8283      	strh	r3, [r0, #20]
10003290:	6183      	str	r3, [r0, #24]
10003292:	4770      	bx	lr

10003294 <_hw_endpoint_buffer_control_update32>:
10003294:	b510      	push	{r4, lr}
10003296:	6883      	ldr	r3, [r0, #8]
10003298:	2900      	cmp	r1, #0
1000329a:	d001      	beq.n	100032a0 <_hw_endpoint_buffer_control_update32+0xc>
1000329c:	681c      	ldr	r4, [r3, #0]
1000329e:	4021      	ands	r1, r4
100032a0:	2a00      	cmp	r2, #0
100032a2:	d011      	beq.n	100032c8 <_hw_endpoint_buffer_control_update32+0x34>
100032a4:	2480      	movs	r4, #128	; 0x80
100032a6:	00e4      	lsls	r4, r4, #3
100032a8:	4311      	orrs	r1, r2
100032aa:	4222      	tst	r2, r4
100032ac:	d00c      	beq.n	100032c8 <_hw_endpoint_buffer_control_update32+0x34>
100032ae:	681a      	ldr	r2, [r3, #0]
100032b0:	4222      	tst	r2, r4
100032b2:	d10b      	bne.n	100032cc <_hw_endpoint_buffer_control_update32+0x38>
100032b4:	4a06      	ldr	r2, [pc, #24]	; (100032d0 <_hw_endpoint_buffer_control_update32+0x3c>)
100032b6:	400a      	ands	r2, r1
100032b8:	601a      	str	r2, [r3, #0]
100032ba:	e7ff      	b.n	100032bc <_hw_endpoint_buffer_control_update32+0x28>
100032bc:	e7ff      	b.n	100032be <_hw_endpoint_buffer_control_update32+0x2a>
100032be:	e7ff      	b.n	100032c0 <_hw_endpoint_buffer_control_update32+0x2c>
100032c0:	e7ff      	b.n	100032c2 <_hw_endpoint_buffer_control_update32+0x2e>
100032c2:	e7ff      	b.n	100032c4 <_hw_endpoint_buffer_control_update32+0x30>
100032c4:	e7ff      	b.n	100032c6 <_hw_endpoint_buffer_control_update32+0x32>
100032c6:	6883      	ldr	r3, [r0, #8]
100032c8:	6019      	str	r1, [r3, #0]
100032ca:	bd10      	pop	{r4, pc}
100032cc:	f7ff ffa6 	bl	1000321c <_hw_endpoint_buffer_control_update32.part.0>
100032d0:	fffffbff 	.word	0xfffffbff

100032d4 <hw_endpoint_xfer_start>:
100032d4:	b5f0      	push	{r4, r5, r6, r7, lr}
100032d6:	46c6      	mov	lr, r8
100032d8:	2300      	movs	r3, #0
100032da:	b500      	push	{lr}
100032dc:	8283      	strh	r3, [r0, #20]
100032de:	3301      	adds	r3, #1
100032e0:	7403      	strb	r3, [r0, #16]
100032e2:	6843      	ldr	r3, [r0, #4]
100032e4:	0004      	movs	r4, r0
100032e6:	681e      	ldr	r6, [r3, #0]
100032e8:	8b83      	ldrh	r3, [r0, #28]
100032ea:	6181      	str	r1, [r0, #24]
100032ec:	1c1f      	adds	r7, r3, #0
100032ee:	4293      	cmp	r3, r2
100032f0:	d900      	bls.n	100032f4 <hw_endpoint_xfer_start+0x20>
100032f2:	1c17      	adds	r7, r2, #0
100032f4:	2580      	movs	r5, #128	; 0x80
100032f6:	b2bf      	uxth	r7, r7
100032f8:	1bd2      	subs	r2, r2, r7
100032fa:	78e3      	ldrb	r3, [r4, #3]
100032fc:	b292      	uxth	r2, r2
100032fe:	00ed      	lsls	r5, r5, #3
10003300:	8262      	strh	r2, [r4, #18]
10003302:	433d      	orrs	r5, r7
10003304:	2b00      	cmp	r3, #0
10003306:	d002      	beq.n	1000330e <hw_endpoint_xfer_start+0x3a>
10003308:	2590      	movs	r5, #144	; 0x90
1000330a:	01ad      	lsls	r5, r5, #6
1000330c:	433d      	orrs	r5, r7
1000330e:	2001      	movs	r0, #1
10003310:	4043      	eors	r3, r0
10003312:	70e3      	strb	r3, [r4, #3]
10003314:	7863      	ldrb	r3, [r4, #1]
10003316:	2b00      	cmp	r3, #0
10003318:	d051      	beq.n	100033be <hw_endpoint_xfer_start+0xea>
1000331a:	2a00      	cmp	r2, #0
1000331c:	d11d      	bne.n	1000335a <hw_endpoint_xfer_start+0x86>
1000331e:	23a0      	movs	r3, #160	; 0xa0
10003320:	01db      	lsls	r3, r3, #7
10003322:	431d      	orrs	r5, r3
10003324:	4b35      	ldr	r3, [pc, #212]	; (100033fc <hw_endpoint_xfer_start+0x128>)
10003326:	6c1b      	ldr	r3, [r3, #64]	; 0x40
10003328:	4b35      	ldr	r3, [pc, #212]	; (10003400 <hw_endpoint_xfer_start+0x12c>)
1000332a:	4033      	ands	r3, r6
1000332c:	2680      	movs	r6, #128	; 0x80
1000332e:	05b6      	lsls	r6, r6, #22
10003330:	431e      	orrs	r6, r3
10003332:	6863      	ldr	r3, [r4, #4]
10003334:	68a2      	ldr	r2, [r4, #8]
10003336:	601e      	str	r6, [r3, #0]
10003338:	6813      	ldr	r3, [r2, #0]
1000333a:	055b      	lsls	r3, r3, #21
1000333c:	d45a      	bmi.n	100033f4 <hw_endpoint_xfer_start+0x120>
1000333e:	4b31      	ldr	r3, [pc, #196]	; (10003404 <hw_endpoint_xfer_start+0x130>)
10003340:	402b      	ands	r3, r5
10003342:	6013      	str	r3, [r2, #0]
10003344:	e7ff      	b.n	10003346 <hw_endpoint_xfer_start+0x72>
10003346:	e7ff      	b.n	10003348 <hw_endpoint_xfer_start+0x74>
10003348:	e7ff      	b.n	1000334a <hw_endpoint_xfer_start+0x76>
1000334a:	e7ff      	b.n	1000334c <hw_endpoint_xfer_start+0x78>
1000334c:	e7ff      	b.n	1000334e <hw_endpoint_xfer_start+0x7a>
1000334e:	e7ff      	b.n	10003350 <hw_endpoint_xfer_start+0x7c>
10003350:	68a3      	ldr	r3, [r4, #8]
10003352:	601d      	str	r5, [r3, #0]
10003354:	bc04      	pop	{r2}
10003356:	4690      	mov	r8, r2
10003358:	bdf0      	pop	{r4, r5, r6, r7, pc}
1000335a:	2380      	movs	r3, #128	; 0x80
1000335c:	015b      	lsls	r3, r3, #5
1000335e:	431d      	orrs	r5, r3
10003360:	4b26      	ldr	r3, [pc, #152]	; (100033fc <hw_endpoint_xfer_start+0x128>)
10003362:	6c1b      	ldr	r3, [r3, #64]	; 0x40
10003364:	079b      	lsls	r3, r3, #30
10003366:	d403      	bmi.n	10003370 <hw_endpoint_xfer_start+0x9c>
10003368:	78a3      	ldrb	r3, [r4, #2]
1000336a:	09db      	lsrs	r3, r3, #7
1000336c:	2b01      	cmp	r3, #1
1000336e:	d1db      	bne.n	10003328 <hw_endpoint_xfer_start+0x54>
10003370:	8ba3      	ldrh	r3, [r4, #28]
10003372:	1c19      	adds	r1, r3, #0
10003374:	4293      	cmp	r3, r2
10003376:	d900      	bls.n	1000337a <hw_endpoint_xfer_start+0xa6>
10003378:	1c11      	adds	r1, r2, #0
1000337a:	2780      	movs	r7, #128	; 0x80
1000337c:	b28b      	uxth	r3, r1
1000337e:	00ff      	lsls	r7, r7, #3
10003380:	1ad2      	subs	r2, r2, r3
10003382:	4698      	mov	r8, r3
10003384:	431f      	orrs	r7, r3
10003386:	78e3      	ldrb	r3, [r4, #3]
10003388:	b292      	uxth	r2, r2
1000338a:	8262      	strh	r2, [r4, #18]
1000338c:	2b00      	cmp	r3, #0
1000338e:	d003      	beq.n	10003398 <hw_endpoint_xfer_start+0xc4>
10003390:	2790      	movs	r7, #144	; 0x90
10003392:	4641      	mov	r1, r8
10003394:	01bf      	lsls	r7, r7, #6
10003396:	430f      	orrs	r7, r1
10003398:	2101      	movs	r1, #1
1000339a:	404b      	eors	r3, r1
1000339c:	70e3      	strb	r3, [r4, #3]
1000339e:	7863      	ldrb	r3, [r4, #1]
100033a0:	2b00      	cmp	r3, #0
100033a2:	d019      	beq.n	100033d8 <hw_endpoint_xfer_start+0x104>
100033a4:	2a00      	cmp	r2, #0
100033a6:	d102      	bne.n	100033ae <hw_endpoint_xfer_start+0xda>
100033a8:	2380      	movs	r3, #128	; 0x80
100033aa:	01db      	lsls	r3, r3, #7
100033ac:	431f      	orrs	r7, r3
100033ae:	4b16      	ldr	r3, [pc, #88]	; (10003408 <hw_endpoint_xfer_start+0x134>)
100033b0:	043f      	lsls	r7, r7, #16
100033b2:	4033      	ands	r3, r6
100033b4:	26a0      	movs	r6, #160	; 0xa0
100033b6:	05f6      	lsls	r6, r6, #23
100033b8:	433d      	orrs	r5, r7
100033ba:	431e      	orrs	r6, r3
100033bc:	e7b9      	b.n	10003332 <hw_endpoint_xfer_start+0x5e>
100033be:	003a      	movs	r2, r7
100033c0:	68e0      	ldr	r0, [r4, #12]
100033c2:	f7ff fa19 	bl	100027f8 <__wrap___aeabi_memcpy>
100033c6:	69a3      	ldr	r3, [r4, #24]
100033c8:	8a62      	ldrh	r2, [r4, #18]
100033ca:	469c      	mov	ip, r3
100033cc:	2380      	movs	r3, #128	; 0x80
100033ce:	4467      	add	r7, ip
100033d0:	021b      	lsls	r3, r3, #8
100033d2:	61a7      	str	r7, [r4, #24]
100033d4:	431d      	orrs	r5, r3
100033d6:	e7a0      	b.n	1000331a <hw_endpoint_xfer_start+0x46>
100033d8:	68e0      	ldr	r0, [r4, #12]
100033da:	4642      	mov	r2, r8
100033dc:	69a1      	ldr	r1, [r4, #24]
100033de:	3040      	adds	r0, #64	; 0x40
100033e0:	f7ff fa0a 	bl	100027f8 <__wrap___aeabi_memcpy>
100033e4:	69a3      	ldr	r3, [r4, #24]
100033e6:	8a62      	ldrh	r2, [r4, #18]
100033e8:	4443      	add	r3, r8
100033ea:	61a3      	str	r3, [r4, #24]
100033ec:	2380      	movs	r3, #128	; 0x80
100033ee:	021b      	lsls	r3, r3, #8
100033f0:	431f      	orrs	r7, r3
100033f2:	e7d7      	b.n	100033a4 <hw_endpoint_xfer_start+0xd0>
100033f4:	0020      	movs	r0, r4
100033f6:	f7ff ff11 	bl	1000321c <_hw_endpoint_buffer_control_update32.part.0>
100033fa:	46c0      	nop			; (mov r8, r8)
100033fc:	50110000 	.word	0x50110000
10003400:	afffffff 	.word	0xafffffff
10003404:	fffffbff 	.word	0xfffffbff
10003408:	dfffffff 	.word	0xdfffffff

1000340c <hw_endpoint_xfer_continue>:
1000340c:	b5f0      	push	{r4, r5, r6, r7, lr}
1000340e:	46c6      	mov	lr, r8
10003410:	b500      	push	{lr}
10003412:	7c06      	ldrb	r6, [r0, #16]
10003414:	0004      	movs	r4, r0
10003416:	2e00      	cmp	r6, #0
10003418:	d100      	bne.n	1000341c <hw_endpoint_xfer_continue+0x10>
1000341a:	e0d3      	b.n	100035c4 <hw_endpoint_xfer_continue+0x1b8>
1000341c:	6883      	ldr	r3, [r0, #8]
1000341e:	681a      	ldr	r2, [r3, #0]
10003420:	681d      	ldr	r5, [r3, #0]
10003422:	7843      	ldrb	r3, [r0, #1]
10003424:	05ad      	lsls	r5, r5, #22
10003426:	0dad      	lsrs	r5, r5, #22
10003428:	2b00      	cmp	r3, #0
1000342a:	d151      	bne.n	100034d0 <hw_endpoint_xfer_continue+0xc4>
1000342c:	8a83      	ldrh	r3, [r0, #20]
1000342e:	18eb      	adds	r3, r5, r3
10003430:	b29b      	uxth	r3, r3
10003432:	8283      	strh	r3, [r0, #20]
10003434:	8ba1      	ldrh	r1, [r4, #28]
10003436:	428d      	cmp	r5, r1
10003438:	d207      	bcs.n	1000344a <hw_endpoint_xfer_continue+0x3e>
1000343a:	2300      	movs	r3, #0
1000343c:	8263      	strh	r3, [r4, #18]
1000343e:	6863      	ldr	r3, [r4, #4]
10003440:	681b      	ldr	r3, [r3, #0]
10003442:	0030      	movs	r0, r6
10003444:	bc04      	pop	{r2}
10003446:	4690      	mov	r8, r2
10003448:	bdf0      	pop	{r4, r5, r6, r7, pc}
1000344a:	6862      	ldr	r2, [r4, #4]
1000344c:	6812      	ldr	r2, [r2, #0]
1000344e:	0052      	lsls	r2, r2, #1
10003450:	d502      	bpl.n	10003458 <hw_endpoint_xfer_continue+0x4c>
10003452:	428d      	cmp	r5, r1
10003454:	d100      	bne.n	10003458 <hw_endpoint_xfer_continue+0x4c>
10003456:	e075      	b.n	10003544 <hw_endpoint_xfer_continue+0x138>
10003458:	8a63      	ldrh	r3, [r4, #18]
1000345a:	2b00      	cmp	r3, #0
1000345c:	d0f1      	beq.n	10003442 <hw_endpoint_xfer_continue+0x36>
1000345e:	6862      	ldr	r2, [r4, #4]
10003460:	1c1f      	adds	r7, r3, #0
10003462:	6816      	ldr	r6, [r2, #0]
10003464:	428b      	cmp	r3, r1
10003466:	d900      	bls.n	1000346a <hw_endpoint_xfer_continue+0x5e>
10003468:	1c0f      	adds	r7, r1, #0
1000346a:	2580      	movs	r5, #128	; 0x80
1000346c:	b2bf      	uxth	r7, r7
1000346e:	1bdb      	subs	r3, r3, r7
10003470:	78e2      	ldrb	r2, [r4, #3]
10003472:	b29b      	uxth	r3, r3
10003474:	00ed      	lsls	r5, r5, #3
10003476:	8263      	strh	r3, [r4, #18]
10003478:	433d      	orrs	r5, r7
1000347a:	2a00      	cmp	r2, #0
1000347c:	d002      	beq.n	10003484 <hw_endpoint_xfer_continue+0x78>
1000347e:	2590      	movs	r5, #144	; 0x90
10003480:	01ad      	lsls	r5, r5, #6
10003482:	433d      	orrs	r5, r7
10003484:	2101      	movs	r1, #1
10003486:	404a      	eors	r2, r1
10003488:	70e2      	strb	r2, [r4, #3]
1000348a:	7862      	ldrb	r2, [r4, #1]
1000348c:	2a00      	cmp	r2, #0
1000348e:	d068      	beq.n	10003562 <hw_endpoint_xfer_continue+0x156>
10003490:	2b00      	cmp	r3, #0
10003492:	d12a      	bne.n	100034ea <hw_endpoint_xfer_continue+0xde>
10003494:	23a0      	movs	r3, #160	; 0xa0
10003496:	01db      	lsls	r3, r3, #7
10003498:	431d      	orrs	r5, r3
1000349a:	4b4f      	ldr	r3, [pc, #316]	; (100035d8 <hw_endpoint_xfer_continue+0x1cc>)
1000349c:	6c1b      	ldr	r3, [r3, #64]	; 0x40
1000349e:	4b4f      	ldr	r3, [pc, #316]	; (100035dc <hw_endpoint_xfer_continue+0x1d0>)
100034a0:	4033      	ands	r3, r6
100034a2:	2680      	movs	r6, #128	; 0x80
100034a4:	05b6      	lsls	r6, r6, #22
100034a6:	431e      	orrs	r6, r3
100034a8:	6863      	ldr	r3, [r4, #4]
100034aa:	68a2      	ldr	r2, [r4, #8]
100034ac:	601e      	str	r6, [r3, #0]
100034ae:	6813      	ldr	r3, [r2, #0]
100034b0:	055b      	lsls	r3, r3, #21
100034b2:	d500      	bpl.n	100034b6 <hw_endpoint_xfer_continue+0xaa>
100034b4:	e08d      	b.n	100035d2 <hw_endpoint_xfer_continue+0x1c6>
100034b6:	4b4a      	ldr	r3, [pc, #296]	; (100035e0 <hw_endpoint_xfer_continue+0x1d4>)
100034b8:	402b      	ands	r3, r5
100034ba:	6013      	str	r3, [r2, #0]
100034bc:	e7ff      	b.n	100034be <hw_endpoint_xfer_continue+0xb2>
100034be:	e7ff      	b.n	100034c0 <hw_endpoint_xfer_continue+0xb4>
100034c0:	e7ff      	b.n	100034c2 <hw_endpoint_xfer_continue+0xb6>
100034c2:	e7ff      	b.n	100034c4 <hw_endpoint_xfer_continue+0xb8>
100034c4:	e7ff      	b.n	100034c6 <hw_endpoint_xfer_continue+0xba>
100034c6:	e7ff      	b.n	100034c8 <hw_endpoint_xfer_continue+0xbc>
100034c8:	68a3      	ldr	r3, [r4, #8]
100034ca:	2600      	movs	r6, #0
100034cc:	601d      	str	r5, [r3, #0]
100034ce:	e7b8      	b.n	10003442 <hw_endpoint_xfer_continue+0x36>
100034d0:	002a      	movs	r2, r5
100034d2:	68c1      	ldr	r1, [r0, #12]
100034d4:	6980      	ldr	r0, [r0, #24]
100034d6:	f7ff f98f 	bl	100027f8 <__wrap___aeabi_memcpy>
100034da:	8aa3      	ldrh	r3, [r4, #20]
100034dc:	69a2      	ldr	r2, [r4, #24]
100034de:	18eb      	adds	r3, r5, r3
100034e0:	b29b      	uxth	r3, r3
100034e2:	1952      	adds	r2, r2, r5
100034e4:	82a3      	strh	r3, [r4, #20]
100034e6:	61a2      	str	r2, [r4, #24]
100034e8:	e7a4      	b.n	10003434 <hw_endpoint_xfer_continue+0x28>
100034ea:	2280      	movs	r2, #128	; 0x80
100034ec:	0152      	lsls	r2, r2, #5
100034ee:	4315      	orrs	r5, r2
100034f0:	4a39      	ldr	r2, [pc, #228]	; (100035d8 <hw_endpoint_xfer_continue+0x1cc>)
100034f2:	6c12      	ldr	r2, [r2, #64]	; 0x40
100034f4:	0792      	lsls	r2, r2, #30
100034f6:	d403      	bmi.n	10003500 <hw_endpoint_xfer_continue+0xf4>
100034f8:	78a2      	ldrb	r2, [r4, #2]
100034fa:	09d2      	lsrs	r2, r2, #7
100034fc:	2a01      	cmp	r2, #1
100034fe:	d1ce      	bne.n	1000349e <hw_endpoint_xfer_continue+0x92>
10003500:	8ba2      	ldrh	r2, [r4, #28]
10003502:	1c11      	adds	r1, r2, #0
10003504:	429a      	cmp	r2, r3
10003506:	d83f      	bhi.n	10003588 <hw_endpoint_xfer_continue+0x17c>
10003508:	2780      	movs	r7, #128	; 0x80
1000350a:	b28a      	uxth	r2, r1
1000350c:	00ff      	lsls	r7, r7, #3
1000350e:	1a9b      	subs	r3, r3, r2
10003510:	4690      	mov	r8, r2
10003512:	4317      	orrs	r7, r2
10003514:	78e2      	ldrb	r2, [r4, #3]
10003516:	b29b      	uxth	r3, r3
10003518:	8263      	strh	r3, [r4, #18]
1000351a:	2a00      	cmp	r2, #0
1000351c:	d12f      	bne.n	1000357e <hw_endpoint_xfer_continue+0x172>
1000351e:	2101      	movs	r1, #1
10003520:	404a      	eors	r2, r1
10003522:	70e2      	strb	r2, [r4, #3]
10003524:	7862      	ldrb	r2, [r4, #1]
10003526:	2a00      	cmp	r2, #0
10003528:	d03e      	beq.n	100035a8 <hw_endpoint_xfer_continue+0x19c>
1000352a:	2b00      	cmp	r3, #0
1000352c:	d102      	bne.n	10003534 <hw_endpoint_xfer_continue+0x128>
1000352e:	2380      	movs	r3, #128	; 0x80
10003530:	01db      	lsls	r3, r3, #7
10003532:	431f      	orrs	r7, r3
10003534:	4b2b      	ldr	r3, [pc, #172]	; (100035e4 <hw_endpoint_xfer_continue+0x1d8>)
10003536:	043f      	lsls	r7, r7, #16
10003538:	4033      	ands	r3, r6
1000353a:	26a0      	movs	r6, #160	; 0xa0
1000353c:	05f6      	lsls	r6, r6, #23
1000353e:	433d      	orrs	r5, r7
10003540:	431e      	orrs	r6, r3
10003542:	e7b1      	b.n	100034a8 <hw_endpoint_xfer_continue+0x9c>
10003544:	68a2      	ldr	r2, [r4, #8]
10003546:	6815      	ldr	r5, [r2, #0]
10003548:	7862      	ldrb	r2, [r4, #1]
1000354a:	01ad      	lsls	r5, r5, #6
1000354c:	0dad      	lsrs	r5, r5, #22
1000354e:	2a00      	cmp	r2, #0
10003550:	d11c      	bne.n	1000358c <hw_endpoint_xfer_continue+0x180>
10003552:	18eb      	adds	r3, r5, r3
10003554:	82a3      	strh	r3, [r4, #20]
10003556:	428d      	cmp	r5, r1
10003558:	d300      	bcc.n	1000355c <hw_endpoint_xfer_continue+0x150>
1000355a:	e77d      	b.n	10003458 <hw_endpoint_xfer_continue+0x4c>
1000355c:	2300      	movs	r3, #0
1000355e:	8263      	strh	r3, [r4, #18]
10003560:	e76f      	b.n	10003442 <hw_endpoint_xfer_continue+0x36>
10003562:	003a      	movs	r2, r7
10003564:	69a1      	ldr	r1, [r4, #24]
10003566:	68e0      	ldr	r0, [r4, #12]
10003568:	f7ff f946 	bl	100027f8 <__wrap___aeabi_memcpy>
1000356c:	69a3      	ldr	r3, [r4, #24]
1000356e:	469c      	mov	ip, r3
10003570:	2380      	movs	r3, #128	; 0x80
10003572:	4467      	add	r7, ip
10003574:	021b      	lsls	r3, r3, #8
10003576:	431d      	orrs	r5, r3
10003578:	61a7      	str	r7, [r4, #24]
1000357a:	8a63      	ldrh	r3, [r4, #18]
1000357c:	e788      	b.n	10003490 <hw_endpoint_xfer_continue+0x84>
1000357e:	2790      	movs	r7, #144	; 0x90
10003580:	4641      	mov	r1, r8
10003582:	01bf      	lsls	r7, r7, #6
10003584:	430f      	orrs	r7, r1
10003586:	e7ca      	b.n	1000351e <hw_endpoint_xfer_continue+0x112>
10003588:	1c19      	adds	r1, r3, #0
1000358a:	e7bd      	b.n	10003508 <hw_endpoint_xfer_continue+0xfc>
1000358c:	68e1      	ldr	r1, [r4, #12]
1000358e:	002a      	movs	r2, r5
10003590:	3140      	adds	r1, #64	; 0x40
10003592:	69a0      	ldr	r0, [r4, #24]
10003594:	f7ff f930 	bl	100027f8 <__wrap___aeabi_memcpy>
10003598:	8aa3      	ldrh	r3, [r4, #20]
1000359a:	8ba1      	ldrh	r1, [r4, #28]
1000359c:	18eb      	adds	r3, r5, r3
1000359e:	82a3      	strh	r3, [r4, #20]
100035a0:	69a3      	ldr	r3, [r4, #24]
100035a2:	195b      	adds	r3, r3, r5
100035a4:	61a3      	str	r3, [r4, #24]
100035a6:	e7d6      	b.n	10003556 <hw_endpoint_xfer_continue+0x14a>
100035a8:	68e0      	ldr	r0, [r4, #12]
100035aa:	4642      	mov	r2, r8
100035ac:	69a1      	ldr	r1, [r4, #24]
100035ae:	3040      	adds	r0, #64	; 0x40
100035b0:	f7ff f922 	bl	100027f8 <__wrap___aeabi_memcpy>
100035b4:	69a3      	ldr	r3, [r4, #24]
100035b6:	4443      	add	r3, r8
100035b8:	61a3      	str	r3, [r4, #24]
100035ba:	2380      	movs	r3, #128	; 0x80
100035bc:	021b      	lsls	r3, r3, #8
100035be:	431f      	orrs	r7, r3
100035c0:	8a63      	ldrh	r3, [r4, #18]
100035c2:	e7b2      	b.n	1000352a <hw_endpoint_xfer_continue+0x11e>
100035c4:	237f      	movs	r3, #127	; 0x7f
100035c6:	7881      	ldrb	r1, [r0, #2]
100035c8:	4a07      	ldr	r2, [pc, #28]	; (100035e8 <hw_endpoint_xfer_continue+0x1dc>)
100035ca:	4808      	ldr	r0, [pc, #32]	; (100035ec <hw_endpoint_xfer_continue+0x1e0>)
100035cc:	4019      	ands	r1, r3
100035ce:	f7fe fa19 	bl	10001a04 <panic>
100035d2:	0020      	movs	r0, r4
100035d4:	f7ff fe22 	bl	1000321c <_hw_endpoint_buffer_control_update32.part.0>
100035d8:	50110000 	.word	0x50110000
100035dc:	afffffff 	.word	0xafffffff
100035e0:	fffffbff 	.word	0xfffffbff
100035e4:	dfffffff 	.word	0xdfffffff
100035e8:	20000314 	.word	0x20000314
100035ec:	10005828 	.word	0x10005828

100035f0 <tud_inited>:
100035f0:	4b01      	ldr	r3, [pc, #4]	; (100035f8 <tud_inited+0x8>)
100035f2:	7818      	ldrb	r0, [r3, #0]
100035f4:	4770      	bx	lr
100035f6:	46c0      	nop			; (mov r8, r8)
100035f8:	20000a51 	.word	0x20000a51

100035fc <tud_init>:
100035fc:	b5f8      	push	{r3, r4, r5, r6, r7, lr}
100035fe:	4647      	mov	r7, r8
10003600:	46ce      	mov	lr, r9
10003602:	b580      	push	{r7, lr}
10003604:	4f29      	ldr	r7, [pc, #164]	; (100036ac <tud_init+0xb0>)
10003606:	0005      	movs	r5, r0
10003608:	783b      	ldrb	r3, [r7, #0]
1000360a:	2b00      	cmp	r3, #0
1000360c:	d004      	beq.n	10003618 <tud_init+0x1c>
1000360e:	2001      	movs	r0, #1
10003610:	bc0c      	pop	{r2, r3}
10003612:	4690      	mov	r8, r2
10003614:	4699      	mov	r9, r3
10003616:	bdf8      	pop	{r3, r4, r5, r6, r7, pc}
10003618:	2253      	movs	r2, #83	; 0x53
1000361a:	2100      	movs	r1, #0
1000361c:	4824      	ldr	r0, [pc, #144]	; (100036b0 <tud_init+0xb4>)
1000361e:	f7ff f8e5 	bl	100027ec <__wrap_memset>
10003622:	4c24      	ldr	r4, [pc, #144]	; (100036b4 <tud_init+0xb8>)
10003624:	0020      	movs	r0, r4
10003626:	f7fd ff57 	bl	100014d8 <mutex_init>
1000362a:	4b23      	ldr	r3, [pc, #140]	; (100036b8 <tud_init+0xbc>)
1000362c:	601c      	str	r4, [r3, #0]
1000362e:	4c23      	ldr	r4, [pc, #140]	; (100036bc <tud_init+0xc0>)
10003630:	0020      	movs	r0, r4
10003632:	301c      	adds	r0, #28
10003634:	f7fd ff6c 	bl	10001510 <critical_section_init>
10003638:	0020      	movs	r0, r4
1000363a:	f001 fdf9 	bl	10005230 <tu_fifo_clear>
1000363e:	4b20      	ldr	r3, [pc, #128]	; (100036c0 <tud_init+0xc4>)
10003640:	4e20      	ldr	r6, [pc, #128]	; (100036c4 <tud_init+0xc8>)
10003642:	601c      	str	r4, [r3, #0]
10003644:	4b20      	ldr	r3, [pc, #128]	; (100036c8 <tud_init+0xcc>)
10003646:	4698      	mov	r8, r3
10003648:	2b00      	cmp	r3, #0
1000364a:	d004      	beq.n	10003656 <tud_init+0x5a>
1000364c:	0030      	movs	r0, r6
1000364e:	e000      	b.n	10003652 <tud_init+0x56>
10003650:	bf00      	nop
10003652:	4b1e      	ldr	r3, [pc, #120]	; (100036cc <tud_init+0xd0>)
10003654:	6018      	str	r0, [r3, #0]
10003656:	4642      	mov	r2, r8
10003658:	2400      	movs	r4, #0
1000365a:	7833      	ldrb	r3, [r6, #0]
1000365c:	2a00      	cmp	r2, #0
1000365e:	d01d      	beq.n	1000369c <tud_init+0xa0>
10003660:	4a1b      	ldr	r2, [pc, #108]	; (100036d0 <tud_init+0xd4>)
10003662:	4690      	mov	r8, r2
10003664:	4a19      	ldr	r2, [pc, #100]	; (100036cc <tud_init+0xd0>)
10003666:	4691      	mov	r9, r2
10003668:	429c      	cmp	r4, r3
1000366a:	d310      	bcc.n	1000368e <tud_init+0x92>
1000366c:	d11b      	bne.n	100036a6 <tud_init+0xaa>
1000366e:	4643      	mov	r3, r8
10003670:	4798      	blx	r3
10003672:	3401      	adds	r4, #1
10003674:	7833      	ldrb	r3, [r6, #0]
10003676:	b2e4      	uxtb	r4, r4
10003678:	42a3      	cmp	r3, r4
1000367a:	d2f5      	bcs.n	10003668 <tud_init+0x6c>
1000367c:	0028      	movs	r0, r5
1000367e:	f7ff fbfd 	bl	10002e7c <dcd_init>
10003682:	0028      	movs	r0, r5
10003684:	f7ff fbe2 	bl	10002e4c <dcd_int_enable>
10003688:	2301      	movs	r3, #1
1000368a:	703b      	strb	r3, [r7, #0]
1000368c:	e7bf      	b.n	1000360e <tud_init+0x12>
1000368e:	464a      	mov	r2, r9
10003690:	0063      	lsls	r3, r4, #1
10003692:	6812      	ldr	r2, [r2, #0]
10003694:	191b      	adds	r3, r3, r4
10003696:	00db      	lsls	r3, r3, #3
10003698:	589b      	ldr	r3, [r3, r2]
1000369a:	e7e9      	b.n	10003670 <tud_init+0x74>
1000369c:	f000 ff9a 	bl	100045d4 <audiod_init>
100036a0:	7833      	ldrb	r3, [r6, #0]
100036a2:	2b00      	cmp	r3, #0
100036a4:	d0ea      	beq.n	1000367c <tud_init+0x80>
100036a6:	2300      	movs	r3, #0
100036a8:	681b      	ldr	r3, [r3, #0]
100036aa:	deff      	udf	#255	; 0xff
100036ac:	20000a51 	.word	0x20000a51
100036b0:	2000052c 	.word	0x2000052c
100036b4:	200004e4 	.word	0x200004e4
100036b8:	20000580 	.word	0x20000580
100036bc:	2000031c 	.word	0x2000031c
100036c0:	20000584 	.word	0x20000584
100036c4:	20000a50 	.word	0x20000a50
100036c8:	00000000 	.word	0x00000000
100036cc:	2000048c 	.word	0x2000048c
100036d0:	100045d5 	.word	0x100045d5

100036d4 <tud_task>:
100036d4:	b5f0      	push	{r4, r5, r6, r7, lr}
100036d6:	46de      	mov	lr, fp
100036d8:	4657      	mov	r7, sl
100036da:	464e      	mov	r6, r9
100036dc:	4645      	mov	r5, r8
100036de:	b5e0      	push	{r5, r6, r7, lr}
100036e0:	b089      	sub	sp, #36	; 0x24
100036e2:	f001 fb7b 	bl	10004ddc <tusb_inited>
100036e6:	2800      	cmp	r0, #0
100036e8:	d100      	bne.n	100036ec <tud_task+0x18>
100036ea:	e147      	b.n	1000397c <tud_task+0x2a8>
100036ec:	4bc4      	ldr	r3, [pc, #784]	; (10003a00 <tud_task+0x32c>)
100036ee:	4dc5      	ldr	r5, [pc, #788]	; (10003a04 <tud_task+0x330>)
100036f0:	469b      	mov	fp, r3
100036f2:	ac05      	add	r4, sp, #20
100036f4:	682e      	ldr	r6, [r5, #0]
100036f6:	69f2      	ldr	r2, [r6, #28]
100036f8:	f3ef 8310 	mrs	r3, PRIMASK
100036fc:	b672      	cpsid	i
100036fe:	6811      	ldr	r1, [r2, #0]
10003700:	2900      	cmp	r1, #0
10003702:	d0fc      	beq.n	100036fe <tud_task+0x2a>
10003704:	f3bf 8f5f 	dmb	sy
10003708:	6233      	str	r3, [r6, #32]
1000370a:	0021      	movs	r1, r4
1000370c:	0030      	movs	r0, r6
1000370e:	f001 fc07 	bl	10004f20 <tu_fifo_read>
10003712:	69f2      	ldr	r2, [r6, #28]
10003714:	6a33      	ldr	r3, [r6, #32]
10003716:	f3bf 8f5f 	dmb	sy
1000371a:	2100      	movs	r1, #0
1000371c:	6011      	str	r1, [r2, #0]
1000371e:	f383 8810 	msr	PRIMASK, r3
10003722:	2800      	cmp	r0, #0
10003724:	d100      	bne.n	10003728 <tud_task+0x54>
10003726:	e129      	b.n	1000397c <tud_task+0x2a8>
10003728:	7863      	ldrb	r3, [r4, #1]
1000372a:	2b08      	cmp	r3, #8
1000372c:	d8e2      	bhi.n	100036f4 <tud_task+0x20>
1000372e:	4ab6      	ldr	r2, [pc, #728]	; (10003a08 <tud_task+0x334>)
10003730:	009b      	lsls	r3, r3, #2
10003732:	58d3      	ldr	r3, [r2, r3]
10003734:	469f      	mov	pc, r3
10003736:	6863      	ldr	r3, [r4, #4]
10003738:	2b00      	cmp	r3, #0
1000373a:	d0db      	beq.n	100036f4 <tud_task+0x20>
1000373c:	68a0      	ldr	r0, [r4, #8]
1000373e:	4798      	blx	r3
10003740:	e7d8      	b.n	100036f4 <tud_task+0x20>
10003742:	227f      	movs	r2, #127	; 0x7f
10003744:	7921      	ldrb	r1, [r4, #4]
10003746:	4bae      	ldr	r3, [pc, #696]	; (10003a00 <tud_task+0x32c>)
10003748:	400a      	ands	r2, r1
1000374a:	0056      	lsls	r6, r2, #1
1000374c:	09c8      	lsrs	r0, r1, #7
1000374e:	199b      	adds	r3, r3, r6
10003750:	181b      	adds	r3, r3, r0
10003752:	0018      	movs	r0, r3
10003754:	2701      	movs	r7, #1
10003756:	3030      	adds	r0, #48	; 0x30
10003758:	78c6      	ldrb	r6, [r0, #3]
1000375a:	43be      	bics	r6, r7
1000375c:	70c6      	strb	r6, [r0, #3]
1000375e:	78c6      	ldrb	r6, [r0, #3]
10003760:	3703      	adds	r7, #3
10003762:	43be      	bics	r6, r7
10003764:	70c6      	strb	r6, [r0, #3]
10003766:	2a00      	cmp	r2, #0
10003768:	d100      	bne.n	1000376c <tud_task+0x98>
1000376a:	e10e      	b.n	1000398a <tud_task+0x2b6>
1000376c:	4aa7      	ldr	r2, [pc, #668]	; (10003a0c <tud_task+0x338>)
1000376e:	7cdb      	ldrb	r3, [r3, #19]
10003770:	2a00      	cmp	r2, #0
10003772:	d006      	beq.n	10003782 <tud_task+0xae>
10003774:	4aa6      	ldr	r2, [pc, #664]	; (10003a10 <tud_task+0x33c>)
10003776:	7812      	ldrb	r2, [r2, #0]
10003778:	4293      	cmp	r3, r2
1000377a:	d200      	bcs.n	1000377e <tud_task+0xaa>
1000377c:	e193      	b.n	10003aa6 <tud_task+0x3d2>
1000377e:	1a9b      	subs	r3, r3, r2
10003780:	b2db      	uxtb	r3, r3
10003782:	2b00      	cmp	r3, #0
10003784:	d000      	beq.n	10003788 <tud_task+0xb4>
10003786:	e0f9      	b.n	1000397c <tud_task+0x2a8>
10003788:	4ea2      	ldr	r6, [pc, #648]	; (10003a14 <tud_task+0x340>)
1000378a:	7962      	ldrb	r2, [r4, #5]
1000378c:	7820      	ldrb	r0, [r4, #0]
1000378e:	68a3      	ldr	r3, [r4, #8]
10003790:	47b0      	blx	r6
10003792:	e7af      	b.n	100036f4 <tud_task+0x20>
10003794:	465b      	mov	r3, fp
10003796:	2201      	movs	r2, #1
10003798:	781b      	ldrb	r3, [r3, #0]
1000379a:	2101      	movs	r1, #1
1000379c:	4313      	orrs	r3, r2
1000379e:	465a      	mov	r2, fp
100037a0:	7013      	strb	r3, [r2, #0]
100037a2:	2333      	movs	r3, #51	; 0x33
100037a4:	4658      	mov	r0, fp
100037a6:	5cd2      	ldrb	r2, [r2, r3]
100037a8:	465e      	mov	r6, fp
100037aa:	438a      	bics	r2, r1
100037ac:	54c2      	strb	r2, [r0, r3]
100037ae:	5cc2      	ldrb	r2, [r0, r3]
100037b0:	2004      	movs	r0, #4
100037b2:	4382      	bics	r2, r0
100037b4:	54f2      	strb	r2, [r6, r3]
100037b6:	3301      	adds	r3, #1
100037b8:	5cf2      	ldrb	r2, [r6, r3]
100037ba:	7827      	ldrb	r7, [r4, #0]
100037bc:	438a      	bics	r2, r1
100037be:	54f2      	strb	r2, [r6, r3]
100037c0:	5cf2      	ldrb	r2, [r6, r3]
100037c2:	4382      	bics	r2, r0
100037c4:	54f2      	strb	r2, [r6, r3]
100037c6:	2000      	movs	r0, #0
100037c8:	f000 fdea 	bl	100043a0 <usbd_control_set_complete_callback>
100037cc:	2260      	movs	r2, #96	; 0x60
100037ce:	7923      	ldrb	r3, [r4, #4]
100037d0:	401a      	ands	r2, r3
100037d2:	2a60      	cmp	r2, #96	; 0x60
100037d4:	d00d      	beq.n	100037f2 <tud_task+0x11e>
100037d6:	2a40      	cmp	r2, #64	; 0x40
100037d8:	d100      	bne.n	100037dc <tud_task+0x108>
100037da:	e0f3      	b.n	100039c4 <tud_task+0x2f0>
100037dc:	06db      	lsls	r3, r3, #27
100037de:	0edb      	lsrs	r3, r3, #27
100037e0:	2b01      	cmp	r3, #1
100037e2:	d100      	bne.n	100037e6 <tud_task+0x112>
100037e4:	e16a      	b.n	10003abc <tud_task+0x3e8>
100037e6:	2b02      	cmp	r3, #2
100037e8:	d100      	bne.n	100037ec <tud_task+0x118>
100037ea:	e123      	b.n	10003a34 <tud_task+0x360>
100037ec:	2b00      	cmp	r3, #0
100037ee:	d100      	bne.n	100037f2 <tud_task+0x11e>
100037f0:	e0f7      	b.n	100039e2 <tud_task+0x30e>
100037f2:	7820      	ldrb	r0, [r4, #0]
100037f4:	2100      	movs	r1, #0
100037f6:	f7ff fcdb 	bl	100031b0 <dcd_edpt_stall>
100037fa:	2180      	movs	r1, #128	; 0x80
100037fc:	7820      	ldrb	r0, [r4, #0]
100037fe:	f7ff fcd7 	bl	100031b0 <dcd_edpt_stall>
10003802:	e777      	b.n	100036f4 <tud_task+0x20>
10003804:	4b7e      	ldr	r3, [pc, #504]	; (10003a00 <tud_task+0x32c>)
10003806:	781b      	ldrb	r3, [r3, #0]
10003808:	07db      	lsls	r3, r3, #31
1000380a:	d400      	bmi.n	1000380e <tud_task+0x13a>
1000380c:	e772      	b.n	100036f4 <tud_task+0x20>
1000380e:	4b82      	ldr	r3, [pc, #520]	; (10003a18 <tud_task+0x344>)
10003810:	2b00      	cmp	r3, #0
10003812:	d100      	bne.n	10003816 <tud_task+0x142>
10003814:	e76e      	b.n	100036f4 <tud_task+0x20>
10003816:	f7fc fd8f 	bl	10000338 <tud_resume_cb>
1000381a:	e76b      	b.n	100036f4 <tud_task+0x20>
1000381c:	4b78      	ldr	r3, [pc, #480]	; (10003a00 <tud_task+0x32c>)
1000381e:	781a      	ldrb	r2, [r3, #0]
10003820:	07d2      	lsls	r2, r2, #31
10003822:	d400      	bmi.n	10003826 <tud_task+0x152>
10003824:	e766      	b.n	100036f4 <tud_task+0x20>
10003826:	4a7d      	ldr	r2, [pc, #500]	; (10003a1c <tud_task+0x348>)
10003828:	2a00      	cmp	r2, #0
1000382a:	d100      	bne.n	1000382e <tud_task+0x15a>
1000382c:	e762      	b.n	100036f4 <tud_task+0x20>
1000382e:	7818      	ldrb	r0, [r3, #0]
10003830:	0700      	lsls	r0, r0, #28
10003832:	0fc0      	lsrs	r0, r0, #31
10003834:	f7fc fd78 	bl	10000328 <tud_suspend_cb>
10003838:	e75c      	b.n	100036f4 <tud_task+0x20>
1000383a:	4e75      	ldr	r6, [pc, #468]	; (10003a10 <tud_task+0x33c>)
1000383c:	4a73      	ldr	r2, [pc, #460]	; (10003a0c <tud_task+0x338>)
1000383e:	2700      	movs	r7, #0
10003840:	7833      	ldrb	r3, [r6, #0]
10003842:	2a00      	cmp	r2, #0
10003844:	d100      	bne.n	10003848 <tud_task+0x174>
10003846:	e0b7      	b.n	100039b8 <tud_task+0x2e4>
10003848:	4a75      	ldr	r2, [pc, #468]	; (10003a20 <tud_task+0x34c>)
1000384a:	4690      	mov	r8, r2
1000384c:	42bb      	cmp	r3, r7
1000384e:	d809      	bhi.n	10003864 <tud_task+0x190>
10003850:	42bb      	cmp	r3, r7
10003852:	d000      	beq.n	10003856 <tud_task+0x182>
10003854:	e0b3      	b.n	100039be <tud_task+0x2ea>
10003856:	3701      	adds	r7, #1
10003858:	b2ff      	uxtb	r7, r7
1000385a:	429f      	cmp	r7, r3
1000385c:	d900      	bls.n	10003860 <tud_task+0x18c>
1000385e:	e749      	b.n	100036f4 <tud_task+0x20>
10003860:	42bb      	cmp	r3, r7
10003862:	d9f5      	bls.n	10003850 <tud_task+0x17c>
10003864:	4641      	mov	r1, r8
10003866:	6809      	ldr	r1, [r1, #0]
10003868:	007a      	lsls	r2, r7, #1
1000386a:	468c      	mov	ip, r1
1000386c:	19d2      	adds	r2, r2, r7
1000386e:	00d2      	lsls	r2, r2, #3
10003870:	4462      	add	r2, ip
10003872:	6952      	ldr	r2, [r2, #20]
10003874:	2a00      	cmp	r2, #0
10003876:	d0ee      	beq.n	10003856 <tud_task+0x182>
10003878:	7820      	ldrb	r0, [r4, #0]
1000387a:	4790      	blx	r2
1000387c:	3701      	adds	r7, #1
1000387e:	7833      	ldrb	r3, [r6, #0]
10003880:	b2ff      	uxtb	r7, r7
10003882:	429f      	cmp	r7, r3
10003884:	d9e2      	bls.n	1000384c <tud_task+0x178>
10003886:	e735      	b.n	100036f4 <tud_task+0x20>
10003888:	7823      	ldrb	r3, [r4, #0]
1000388a:	4e61      	ldr	r6, [pc, #388]	; (10003a10 <tud_task+0x33c>)
1000388c:	4a5f      	ldr	r2, [pc, #380]	; (10003a0c <tud_task+0x338>)
1000388e:	4698      	mov	r8, r3
10003890:	2700      	movs	r7, #0
10003892:	7833      	ldrb	r3, [r6, #0]
10003894:	2a00      	cmp	r2, #0
10003896:	d100      	bne.n	1000389a <tud_task+0x1c6>
10003898:	e086      	b.n	100039a8 <tud_task+0x2d4>
1000389a:	4a62      	ldr	r2, [pc, #392]	; (10003a24 <tud_task+0x350>)
1000389c:	4691      	mov	r9, r2
1000389e:	4a60      	ldr	r2, [pc, #384]	; (10003a20 <tud_task+0x34c>)
100038a0:	4692      	mov	sl, r2
100038a2:	0032      	movs	r2, r6
100038a4:	4646      	mov	r6, r8
100038a6:	4690      	mov	r8, r2
100038a8:	42bb      	cmp	r3, r7
100038aa:	d85e      	bhi.n	1000396a <tud_task+0x296>
100038ac:	d000      	beq.n	100038b0 <tud_task+0x1dc>
100038ae:	e078      	b.n	100039a2 <tud_task+0x2ce>
100038b0:	464b      	mov	r3, r9
100038b2:	0030      	movs	r0, r6
100038b4:	4798      	blx	r3
100038b6:	4643      	mov	r3, r8
100038b8:	3701      	adds	r7, #1
100038ba:	781b      	ldrb	r3, [r3, #0]
100038bc:	b2ff      	uxtb	r7, r7
100038be:	42bb      	cmp	r3, r7
100038c0:	d2f2      	bcs.n	100038a8 <tud_task+0x1d4>
100038c2:	4e4f      	ldr	r6, [pc, #316]	; (10003a00 <tud_task+0x32c>)
100038c4:	2253      	movs	r2, #83	; 0x53
100038c6:	2100      	movs	r1, #0
100038c8:	0030      	movs	r0, r6
100038ca:	f7fe ff8f 	bl	100027ec <__wrap_memset>
100038ce:	2210      	movs	r2, #16
100038d0:	21ff      	movs	r1, #255	; 0xff
100038d2:	1cf0      	adds	r0, r6, #3
100038d4:	f7fe ff8a 	bl	100027ec <__wrap_memset>
100038d8:	0030      	movs	r0, r6
100038da:	2220      	movs	r2, #32
100038dc:	21ff      	movs	r1, #255	; 0xff
100038de:	3013      	adds	r0, #19
100038e0:	f7fe ff84 	bl	100027ec <__wrap_memset>
100038e4:	f000 fd52 	bl	1000438c <usbd_control_reset>
100038e8:	4b4f      	ldr	r3, [pc, #316]	; (10003a28 <tud_task+0x354>)
100038ea:	2b00      	cmp	r3, #0
100038ec:	d100      	bne.n	100038f0 <tud_task+0x21c>
100038ee:	e701      	b.n	100036f4 <tud_task+0x20>
100038f0:	f7fc fd14 	bl	1000031c <tud_umount_cb>
100038f4:	e6fe      	b.n	100036f4 <tud_task+0x20>
100038f6:	7823      	ldrb	r3, [r4, #0]
100038f8:	4e45      	ldr	r6, [pc, #276]	; (10003a10 <tud_task+0x33c>)
100038fa:	4a44      	ldr	r2, [pc, #272]	; (10003a0c <tud_task+0x338>)
100038fc:	4698      	mov	r8, r3
100038fe:	2700      	movs	r7, #0
10003900:	7833      	ldrb	r3, [r6, #0]
10003902:	2a00      	cmp	r2, #0
10003904:	d047      	beq.n	10003996 <tud_task+0x2c2>
10003906:	4a47      	ldr	r2, [pc, #284]	; (10003a24 <tud_task+0x350>)
10003908:	4691      	mov	r9, r2
1000390a:	4a45      	ldr	r2, [pc, #276]	; (10003a20 <tud_task+0x34c>)
1000390c:	4692      	mov	sl, r2
1000390e:	0032      	movs	r2, r6
10003910:	4646      	mov	r6, r8
10003912:	4690      	mov	r8, r2
10003914:	42bb      	cmp	r3, r7
10003916:	d81f      	bhi.n	10003958 <tud_task+0x284>
10003918:	d143      	bne.n	100039a2 <tud_task+0x2ce>
1000391a:	464b      	mov	r3, r9
1000391c:	0030      	movs	r0, r6
1000391e:	4798      	blx	r3
10003920:	4643      	mov	r3, r8
10003922:	3701      	adds	r7, #1
10003924:	781b      	ldrb	r3, [r3, #0]
10003926:	b2ff      	uxtb	r7, r7
10003928:	42bb      	cmp	r3, r7
1000392a:	d2f3      	bcs.n	10003914 <tud_task+0x240>
1000392c:	4e34      	ldr	r6, [pc, #208]	; (10003a00 <tud_task+0x32c>)
1000392e:	2253      	movs	r2, #83	; 0x53
10003930:	2100      	movs	r1, #0
10003932:	0030      	movs	r0, r6
10003934:	f7fe ff5a 	bl	100027ec <__wrap_memset>
10003938:	2210      	movs	r2, #16
1000393a:	21ff      	movs	r1, #255	; 0xff
1000393c:	1cf0      	adds	r0, r6, #3
1000393e:	f7fe ff55 	bl	100027ec <__wrap_memset>
10003942:	0030      	movs	r0, r6
10003944:	2220      	movs	r2, #32
10003946:	21ff      	movs	r1, #255	; 0xff
10003948:	3013      	adds	r0, #19
1000394a:	f7fe ff4f 	bl	100027ec <__wrap_memset>
1000394e:	f000 fd1d 	bl	1000438c <usbd_control_reset>
10003952:	7923      	ldrb	r3, [r4, #4]
10003954:	70b3      	strb	r3, [r6, #2]
10003956:	e6cd      	b.n	100036f4 <tud_task+0x20>
10003958:	4652      	mov	r2, sl
1000395a:	6812      	ldr	r2, [r2, #0]
1000395c:	007b      	lsls	r3, r7, #1
1000395e:	4694      	mov	ip, r2
10003960:	19db      	adds	r3, r3, r7
10003962:	00db      	lsls	r3, r3, #3
10003964:	4463      	add	r3, ip
10003966:	685b      	ldr	r3, [r3, #4]
10003968:	e7d8      	b.n	1000391c <tud_task+0x248>
1000396a:	4652      	mov	r2, sl
1000396c:	6812      	ldr	r2, [r2, #0]
1000396e:	007b      	lsls	r3, r7, #1
10003970:	4694      	mov	ip, r2
10003972:	19db      	adds	r3, r3, r7
10003974:	00db      	lsls	r3, r3, #3
10003976:	4463      	add	r3, ip
10003978:	685b      	ldr	r3, [r3, #4]
1000397a:	e79a      	b.n	100038b2 <tud_task+0x1de>
1000397c:	b009      	add	sp, #36	; 0x24
1000397e:	bc3c      	pop	{r2, r3, r4, r5}
10003980:	4690      	mov	r8, r2
10003982:	4699      	mov	r9, r3
10003984:	46a2      	mov	sl, r4
10003986:	46ab      	mov	fp, r5
10003988:	bdf0      	pop	{r4, r5, r6, r7, pc}
1000398a:	7962      	ldrb	r2, [r4, #5]
1000398c:	7820      	ldrb	r0, [r4, #0]
1000398e:	68a3      	ldr	r3, [r4, #8]
10003990:	f000 fd1a 	bl	100043c8 <usbd_control_xfer_cb>
10003994:	e6ae      	b.n	100036f4 <tud_task+0x20>
10003996:	4640      	mov	r0, r8
10003998:	f000 fe62 	bl	10004660 <audiod_reset>
1000399c:	7833      	ldrb	r3, [r6, #0]
1000399e:	2b00      	cmp	r3, #0
100039a0:	d0c4      	beq.n	1000392c <tud_task+0x258>
100039a2:	2300      	movs	r3, #0
100039a4:	685b      	ldr	r3, [r3, #4]
100039a6:	deff      	udf	#255	; 0xff
100039a8:	4640      	mov	r0, r8
100039aa:	f000 fe59 	bl	10004660 <audiod_reset>
100039ae:	7833      	ldrb	r3, [r6, #0]
100039b0:	2b00      	cmp	r3, #0
100039b2:	d100      	bne.n	100039b6 <tud_task+0x2e2>
100039b4:	e785      	b.n	100038c2 <tud_task+0x1ee>
100039b6:	e7f4      	b.n	100039a2 <tud_task+0x2ce>
100039b8:	2b00      	cmp	r3, #0
100039ba:	d100      	bne.n	100039be <tud_task+0x2ea>
100039bc:	e69a      	b.n	100036f4 <tud_task+0x20>
100039be:	2300      	movs	r3, #0
100039c0:	695b      	ldr	r3, [r3, #20]
100039c2:	deff      	udf	#255	; 0xff
100039c4:	4819      	ldr	r0, [pc, #100]	; (10003a2c <tud_task+0x358>)
100039c6:	2800      	cmp	r0, #0
100039c8:	d100      	bne.n	100039cc <tud_task+0x2f8>
100039ca:	e712      	b.n	100037f2 <tud_task+0x11e>
100039cc:	f000 fce8 	bl	100043a0 <usbd_control_set_complete_callback>
100039d0:	2100      	movs	r1, #0
100039d2:	0038      	movs	r0, r7
100039d4:	aa06      	add	r2, sp, #24
100039d6:	e000      	b.n	100039da <tud_task+0x306>
100039d8:	bf00      	nop
100039da:	2800      	cmp	r0, #0
100039dc:	d000      	beq.n	100039e0 <tud_task+0x30c>
100039de:	e689      	b.n	100036f4 <tud_task+0x20>
100039e0:	e707      	b.n	100037f2 <tud_task+0x11e>
100039e2:	2a20      	cmp	r2, #32
100039e4:	d100      	bne.n	100039e8 <tud_task+0x314>
100039e6:	e09e      	b.n	10003b26 <tud_task+0x452>
100039e8:	2a00      	cmp	r2, #0
100039ea:	d000      	beq.n	100039ee <tud_task+0x31a>
100039ec:	e701      	b.n	100037f2 <tud_task+0x11e>
100039ee:	7963      	ldrb	r3, [r4, #5]
100039f0:	2b09      	cmp	r3, #9
100039f2:	d900      	bls.n	100039f6 <tud_task+0x322>
100039f4:	e6fd      	b.n	100037f2 <tud_task+0x11e>
100039f6:	4a0e      	ldr	r2, [pc, #56]	; (10003a30 <tud_task+0x35c>)
100039f8:	009b      	lsls	r3, r3, #2
100039fa:	58d3      	ldr	r3, [r2, r3]
100039fc:	469f      	mov	pc, r3
100039fe:	46c0      	nop			; (mov r8, r8)
10003a00:	2000052c 	.word	0x2000052c
10003a04:	20000584 	.word	0x20000584
10003a08:	1000585c 	.word	0x1000585c
10003a0c:	00000000 	.word	0x00000000
10003a10:	20000a50 	.word	0x20000a50
10003a14:	10004ba9 	.word	0x10004ba9
10003a18:	10000339 	.word	0x10000339
10003a1c:	10000329 	.word	0x10000329
10003a20:	2000048c 	.word	0x2000048c
10003a24:	10004661 	.word	0x10004661
10003a28:	1000031d 	.word	0x1000031d
10003a2c:	00000000 	.word	0x00000000
10003a30:	10005880 	.word	0x10005880
10003a34:	2370      	movs	r3, #112	; 0x70
10003a36:	7a21      	ldrb	r1, [r4, #8]
10003a38:	420b      	tst	r3, r1
10003a3a:	d000      	beq.n	10003a3e <tud_task+0x36a>
10003a3c:	e6d9      	b.n	100037f2 <tud_task+0x11e>
10003a3e:	09c8      	lsrs	r0, r1, #7
10003a40:	4684      	mov	ip, r0
10003a42:	330f      	adds	r3, #15
10003a44:	400b      	ands	r3, r1
10003a46:	005b      	lsls	r3, r3, #1
10003a48:	18f0      	adds	r0, r6, r3
10003a4a:	4ec8      	ldr	r6, [pc, #800]	; (10003d6c <tud_task+0x698>)
10003a4c:	4460      	add	r0, ip
10003a4e:	7cc0      	ldrb	r0, [r0, #19]
10003a50:	2e00      	cmp	r6, #0
10003a52:	d006      	beq.n	10003a62 <tud_task+0x38e>
10003a54:	4ec6      	ldr	r6, [pc, #792]	; (10003d70 <tud_task+0x69c>)
10003a56:	7836      	ldrb	r6, [r6, #0]
10003a58:	42b0      	cmp	r0, r6
10003a5a:	d200      	bcs.n	10003a5e <tud_task+0x38a>
10003a5c:	e084      	b.n	10003b68 <tud_task+0x494>
10003a5e:	1b80      	subs	r0, r0, r6
10003a60:	b2c0      	uxtb	r0, r0
10003a62:	2800      	cmp	r0, #0
10003a64:	d17c      	bne.n	10003b60 <tud_task+0x48c>
10003a66:	2a00      	cmp	r2, #0
10003a68:	d170      	bne.n	10003b4c <tud_task+0x478>
10003a6a:	4ec2      	ldr	r6, [pc, #776]	; (10003d74 <tud_task+0x6a0>)
10003a6c:	7962      	ldrb	r2, [r4, #5]
10003a6e:	4692      	mov	sl, r2
10003a70:	2202      	movs	r2, #2
10003a72:	4690      	mov	r8, r2
10003a74:	4652      	mov	r2, sl
10003a76:	4640      	mov	r0, r8
10003a78:	4382      	bics	r2, r0
10003a7a:	2a01      	cmp	r2, #1
10003a7c:	d100      	bne.n	10003a80 <tud_task+0x3ac>
10003a7e:	e119      	b.n	10003cb4 <tud_task+0x5e0>
10003a80:	4652      	mov	r2, sl
10003a82:	2a00      	cmp	r2, #0
10003a84:	d000      	beq.n	10003a88 <tud_task+0x3b4>
10003a86:	e6b4      	b.n	100037f2 <tud_task+0x11e>
10003a88:	445b      	add	r3, fp
10003a8a:	4463      	add	r3, ip
10003a8c:	3330      	adds	r3, #48	; 0x30
10003a8e:	78db      	ldrb	r3, [r3, #3]
10003a90:	aa04      	add	r2, sp, #16
10003a92:	079b      	lsls	r3, r3, #30
10003a94:	0fdb      	lsrs	r3, r3, #31
10003a96:	3202      	adds	r2, #2
10003a98:	8013      	strh	r3, [r2, #0]
10003a9a:	0038      	movs	r0, r7
10003a9c:	2302      	movs	r3, #2
10003a9e:	a906      	add	r1, sp, #24
10003aa0:	f000 fc18 	bl	100042d4 <tud_control_xfer>
10003aa4:	e626      	b.n	100036f4 <tud_task+0x20>
10003aa6:	005a      	lsls	r2, r3, #1
10003aa8:	18d3      	adds	r3, r2, r3
10003aaa:	4ab3      	ldr	r2, [pc, #716]	; (10003d78 <tud_task+0x6a4>)
10003aac:	00db      	lsls	r3, r3, #3
10003aae:	6812      	ldr	r2, [r2, #0]
10003ab0:	18d3      	adds	r3, r2, r3
10003ab2:	2b00      	cmp	r3, #0
10003ab4:	d100      	bne.n	10003ab8 <tud_task+0x3e4>
10003ab6:	e761      	b.n	1000397c <tud_task+0x2a8>
10003ab8:	691e      	ldr	r6, [r3, #16]
10003aba:	e666      	b.n	1000378a <tud_task+0xb6>
10003abc:	7a23      	ldrb	r3, [r4, #8]
10003abe:	2b0f      	cmp	r3, #15
10003ac0:	d900      	bls.n	10003ac4 <tud_task+0x3f0>
10003ac2:	e696      	b.n	100037f2 <tud_task+0x11e>
10003ac4:	4aa9      	ldr	r2, [pc, #676]	; (10003d6c <tud_task+0x698>)
10003ac6:	445b      	add	r3, fp
10003ac8:	78db      	ldrb	r3, [r3, #3]
10003aca:	2a00      	cmp	r2, #0
10003acc:	d005      	beq.n	10003ada <tud_task+0x406>
10003ace:	4aa8      	ldr	r2, [pc, #672]	; (10003d70 <tud_task+0x69c>)
10003ad0:	7812      	ldrb	r2, [r2, #0]
10003ad2:	4293      	cmp	r3, r2
10003ad4:	d356      	bcc.n	10003b84 <tud_task+0x4b0>
10003ad6:	1a9b      	subs	r3, r3, r2
10003ad8:	b2db      	uxtb	r3, r3
10003ada:	2b00      	cmp	r3, #0
10003adc:	d000      	beq.n	10003ae0 <tud_task+0x40c>
10003ade:	e688      	b.n	100037f2 <tud_task+0x11e>
10003ae0:	48a6      	ldr	r0, [pc, #664]	; (10003d7c <tud_task+0x6a8>)
10003ae2:	4ea4      	ldr	r6, [pc, #656]	; (10003d74 <tud_task+0x6a0>)
10003ae4:	f000 fc5c 	bl	100043a0 <usbd_control_set_complete_callback>
10003ae8:	2100      	movs	r1, #0
10003aea:	0038      	movs	r0, r7
10003aec:	68f3      	ldr	r3, [r6, #12]
10003aee:	aa06      	add	r2, sp, #24
10003af0:	4798      	blx	r3
10003af2:	2800      	cmp	r0, #0
10003af4:	d000      	beq.n	10003af8 <tud_task+0x424>
10003af6:	e5fd      	b.n	100036f4 <tud_task+0x20>
10003af8:	2260      	movs	r2, #96	; 0x60
10003afa:	0016      	movs	r6, r2
10003afc:	7923      	ldrb	r3, [r4, #4]
10003afe:	401e      	ands	r6, r3
10003b00:	421a      	tst	r2, r3
10003b02:	d000      	beq.n	10003b06 <tud_task+0x432>
10003b04:	e675      	b.n	100037f2 <tud_task+0x11e>
10003b06:	7963      	ldrb	r3, [r4, #5]
10003b08:	3b0a      	subs	r3, #10
10003b0a:	2b01      	cmp	r3, #1
10003b0c:	d900      	bls.n	10003b10 <tud_task+0x43c>
10003b0e:	e670      	b.n	100037f2 <tud_task+0x11e>
10003b10:	f000 fc46 	bl	100043a0 <usbd_control_set_complete_callback>
10003b14:	7963      	ldrb	r3, [r4, #5]
10003b16:	2b0a      	cmp	r3, #10
10003b18:	d100      	bne.n	10003b1c <tud_task+0x448>
10003b1a:	e11e      	b.n	10003d5a <tud_task+0x686>
10003b1c:	0038      	movs	r0, r7
10003b1e:	a906      	add	r1, sp, #24
10003b20:	f000 fbc0 	bl	100042a4 <tud_control_status>
10003b24:	e5e6      	b.n	100036f4 <tud_task+0x20>
10003b26:	7a23      	ldrb	r3, [r4, #8]
10003b28:	2b0f      	cmp	r3, #15
10003b2a:	d900      	bls.n	10003b2e <tud_task+0x45a>
10003b2c:	e661      	b.n	100037f2 <tud_task+0x11e>
10003b2e:	4a8f      	ldr	r2, [pc, #572]	; (10003d6c <tud_task+0x698>)
10003b30:	445b      	add	r3, fp
10003b32:	78db      	ldrb	r3, [r3, #3]
10003b34:	2a00      	cmp	r2, #0
10003b36:	d006      	beq.n	10003b46 <tud_task+0x472>
10003b38:	4a8d      	ldr	r2, [pc, #564]	; (10003d70 <tud_task+0x69c>)
10003b3a:	7812      	ldrb	r2, [r2, #0]
10003b3c:	4293      	cmp	r3, r2
10003b3e:	d200      	bcs.n	10003b42 <tud_task+0x46e>
10003b40:	e0dc      	b.n	10003cfc <tud_task+0x628>
10003b42:	1a9b      	subs	r3, r3, r2
10003b44:	b2db      	uxtb	r3, r3
10003b46:	2b00      	cmp	r3, #0
10003b48:	d000      	beq.n	10003b4c <tud_task+0x478>
10003b4a:	e652      	b.n	100037f2 <tud_task+0x11e>
10003b4c:	488b      	ldr	r0, [pc, #556]	; (10003d7c <tud_task+0x6a8>)
10003b4e:	4e89      	ldr	r6, [pc, #548]	; (10003d74 <tud_task+0x6a0>)
10003b50:	f000 fc26 	bl	100043a0 <usbd_control_set_complete_callback>
10003b54:	2100      	movs	r1, #0
10003b56:	0038      	movs	r0, r7
10003b58:	68f3      	ldr	r3, [r6, #12]
10003b5a:	aa06      	add	r2, sp, #24
10003b5c:	4798      	blx	r3
10003b5e:	e73c      	b.n	100039da <tud_task+0x306>
10003b60:	2600      	movs	r6, #0
10003b62:	2a00      	cmp	r2, #0
10003b64:	d082      	beq.n	10003a6c <tud_task+0x398>
10003b66:	e644      	b.n	100037f2 <tud_task+0x11e>
10003b68:	0046      	lsls	r6, r0, #1
10003b6a:	1830      	adds	r0, r6, r0
10003b6c:	4e82      	ldr	r6, [pc, #520]	; (10003d78 <tud_task+0x6a4>)
10003b6e:	00c0      	lsls	r0, r0, #3
10003b70:	6836      	ldr	r6, [r6, #0]
10003b72:	1836      	adds	r6, r6, r0
10003b74:	2a00      	cmp	r2, #0
10003b76:	d100      	bne.n	10003b7a <tud_task+0x4a6>
10003b78:	e778      	b.n	10003a6c <tud_task+0x398>
10003b7a:	2e00      	cmp	r6, #0
10003b7c:	d100      	bne.n	10003b80 <tud_task+0x4ac>
10003b7e:	e638      	b.n	100037f2 <tud_task+0x11e>
10003b80:	68f0      	ldr	r0, [r6, #12]
10003b82:	e7e5      	b.n	10003b50 <tud_task+0x47c>
10003b84:	4a7c      	ldr	r2, [pc, #496]	; (10003d78 <tud_task+0x6a4>)
10003b86:	005e      	lsls	r6, r3, #1
10003b88:	18f3      	adds	r3, r6, r3
10003b8a:	6816      	ldr	r6, [r2, #0]
10003b8c:	00db      	lsls	r3, r3, #3
10003b8e:	18f6      	adds	r6, r6, r3
10003b90:	2e00      	cmp	r6, #0
10003b92:	d100      	bne.n	10003b96 <tud_task+0x4c2>
10003b94:	e62d      	b.n	100037f2 <tud_task+0x11e>
10003b96:	68f0      	ldr	r0, [r6, #12]
10003b98:	e7a4      	b.n	10003ae4 <tud_task+0x410>
10003b9a:	79a2      	ldrb	r2, [r4, #6]
10003b9c:	9201      	str	r2, [sp, #4]
10003b9e:	7873      	ldrb	r3, [r6, #1]
10003ba0:	429a      	cmp	r2, r3
10003ba2:	d007      	beq.n	10003bb4 <tud_task+0x4e0>
10003ba4:	7873      	ldrb	r3, [r6, #1]
10003ba6:	2b00      	cmp	r3, #0
10003ba8:	d000      	beq.n	10003bac <tud_task+0x4d8>
10003baa:	e153      	b.n	10003e54 <tud_task+0x780>
10003bac:	9b01      	ldr	r3, [sp, #4]
10003bae:	2b00      	cmp	r3, #0
10003bb0:	d000      	beq.n	10003bb4 <tud_task+0x4e0>
10003bb2:	e0ed      	b.n	10003d90 <tud_task+0x6bc>
10003bb4:	465b      	mov	r3, fp
10003bb6:	9a01      	ldr	r2, [sp, #4]
10003bb8:	0038      	movs	r0, r7
10003bba:	a906      	add	r1, sp, #24
10003bbc:	705a      	strb	r2, [r3, #1]
10003bbe:	f000 fb71 	bl	100042a4 <tud_control_status>
10003bc2:	e597      	b.n	100036f4 <tud_task+0x20>
10003bc4:	88e3      	ldrh	r3, [r4, #6]
10003bc6:	2b01      	cmp	r3, #1
10003bc8:	d000      	beq.n	10003bcc <tud_task+0x4f8>
10003bca:	e612      	b.n	100037f2 <tud_task+0x11e>
10003bcc:	2208      	movs	r2, #8
10003bce:	7833      	ldrb	r3, [r6, #0]
10003bd0:	4393      	bics	r3, r2
10003bd2:	465a      	mov	r2, fp
10003bd4:	7013      	strb	r3, [r2, #0]
10003bd6:	e7a1      	b.n	10003b1c <tud_task+0x448>
10003bd8:	2002      	movs	r0, #2
10003bda:	7831      	ldrb	r1, [r6, #0]
10003bdc:	ab04      	add	r3, sp, #16
10003bde:	1c9a      	adds	r2, r3, #2
10003be0:	068b      	lsls	r3, r1, #26
10003be2:	0889      	lsrs	r1, r1, #2
10003be4:	0fdb      	lsrs	r3, r3, #31
10003be6:	4001      	ands	r1, r0
10003be8:	430b      	orrs	r3, r1
10003bea:	e755      	b.n	10003a98 <tud_task+0x3c4>
10003bec:	7873      	ldrb	r3, [r6, #1]
10003bee:	aa04      	add	r2, sp, #16
10003bf0:	3202      	adds	r2, #2
10003bf2:	7013      	strb	r3, [r2, #0]
10003bf4:	0038      	movs	r0, r7
10003bf6:	2301      	movs	r3, #1
10003bf8:	a906      	add	r1, sp, #24
10003bfa:	f000 fb6b 	bl	100042d4 <tud_control_xfer>
10003bfe:	e579      	b.n	100036f4 <tud_task+0x20>
10003c00:	88e0      	ldrh	r0, [r4, #6]
10003c02:	0a03      	lsrs	r3, r0, #8
10003c04:	b2c0      	uxtb	r0, r0
10003c06:	2b0f      	cmp	r3, #15
10003c08:	d900      	bls.n	10003c0c <tud_task+0x538>
10003c0a:	e5f2      	b.n	100037f2 <tud_task+0x11e>
10003c0c:	495c      	ldr	r1, [pc, #368]	; (10003d80 <tud_task+0x6ac>)
10003c0e:	009a      	lsls	r2, r3, #2
10003c10:	588a      	ldr	r2, [r1, r2]
10003c12:	4697      	mov	pc, r2
10003c14:	a806      	add	r0, sp, #24
10003c16:	f000 fbc9 	bl	100043ac <usbd_control_set_request>
10003c1a:	0038      	movs	r0, r7
10003c1c:	79a1      	ldrb	r1, [r4, #6]
10003c1e:	f7ff f91b 	bl	10002e58 <dcd_set_address>
10003c22:	2202      	movs	r2, #2
10003c24:	7833      	ldrb	r3, [r6, #0]
10003c26:	4313      	orrs	r3, r2
10003c28:	7033      	strb	r3, [r6, #0]
10003c2a:	e563      	b.n	100036f4 <tud_task+0x20>
10003c2c:	88e3      	ldrh	r3, [r4, #6]
10003c2e:	2b01      	cmp	r3, #1
10003c30:	d000      	beq.n	10003c34 <tud_task+0x560>
10003c32:	e5de      	b.n	100037f2 <tud_task+0x11e>
10003c34:	2208      	movs	r2, #8
10003c36:	7833      	ldrb	r3, [r6, #0]
10003c38:	4313      	orrs	r3, r2
10003c3a:	e7ca      	b.n	10003bd2 <tud_task+0x4fe>
10003c3c:	4b51      	ldr	r3, [pc, #324]	; (10003d84 <tud_task+0x6b0>)
10003c3e:	2b00      	cmp	r3, #0
10003c40:	d100      	bne.n	10003c44 <tud_task+0x570>
10003c42:	e5d6      	b.n	100037f2 <tud_task+0x11e>
10003c44:	e000      	b.n	10003c48 <tud_task+0x574>
10003c46:	bf00      	nop
10003c48:	1e02      	subs	r2, r0, #0
10003c4a:	d100      	bne.n	10003c4e <tud_task+0x57a>
10003c4c:	e5d1      	b.n	100037f2 <tud_task+0x11e>
10003c4e:	0038      	movs	r0, r7
10003c50:	7813      	ldrb	r3, [r2, #0]
10003c52:	a906      	add	r1, sp, #24
10003c54:	f000 fb3e 	bl	100042d4 <tud_control_xfer>
10003c58:	e6bf      	b.n	100039da <tud_task+0x306>
10003c5a:	8921      	ldrh	r1, [r4, #8]
10003c5c:	f7fc fd46 	bl	100006ec <tud_descriptor_string_cb>
10003c60:	1e02      	subs	r2, r0, #0
10003c62:	d1f4      	bne.n	10003c4e <tud_task+0x57a>
10003c64:	e5c5      	b.n	100037f2 <tud_task+0x11e>
10003c66:	2b02      	cmp	r3, #2
10003c68:	d100      	bne.n	10003c6c <tud_task+0x598>
10003c6a:	e17d      	b.n	10003f68 <tud_task+0x894>
10003c6c:	4b46      	ldr	r3, [pc, #280]	; (10003d88 <tud_task+0x6b4>)
10003c6e:	2b00      	cmp	r3, #0
10003c70:	d100      	bne.n	10003c74 <tud_task+0x5a0>
10003c72:	e5be      	b.n	100037f2 <tud_task+0x11e>
10003c74:	e000      	b.n	10003c78 <tud_task+0x5a4>
10003c76:	bf00      	nop
10003c78:	0002      	movs	r2, r0
10003c7a:	2a00      	cmp	r2, #0
10003c7c:	d100      	bne.n	10003c80 <tud_task+0x5ac>
10003c7e:	e5b8      	b.n	100037f2 <tud_task+0x11e>
10003c80:	78d3      	ldrb	r3, [r2, #3]
10003c82:	7891      	ldrb	r1, [r2, #2]
10003c84:	021b      	lsls	r3, r3, #8
10003c86:	430b      	orrs	r3, r1
10003c88:	0038      	movs	r0, r7
10003c8a:	a906      	add	r1, sp, #24
10003c8c:	f000 fb22 	bl	100042d4 <tud_control_xfer>
10003c90:	e6a3      	b.n	100039da <tud_task+0x306>
10003c92:	f7fc fd23 	bl	100006dc <tud_descriptor_device_cb>
10003c96:	2312      	movs	r3, #18
10003c98:	0002      	movs	r2, r0
10003c9a:	a906      	add	r1, sp, #24
10003c9c:	0038      	movs	r0, r7
10003c9e:	f000 fb19 	bl	100042d4 <tud_control_xfer>
10003ca2:	e69a      	b.n	100039da <tud_task+0x306>
10003ca4:	4b39      	ldr	r3, [pc, #228]	; (10003d8c <tud_task+0x6b8>)
10003ca6:	2b00      	cmp	r3, #0
10003ca8:	d100      	bne.n	10003cac <tud_task+0x5d8>
10003caa:	e5a2      	b.n	100037f2 <tud_task+0x11e>
10003cac:	e000      	b.n	10003cb0 <tud_task+0x5dc>
10003cae:	bf00      	nop
10003cb0:	0002      	movs	r2, r0
10003cb2:	e7e5      	b.n	10003c80 <tud_task+0x5ac>
10003cb4:	88e2      	ldrh	r2, [r4, #6]
10003cb6:	2a00      	cmp	r2, #0
10003cb8:	d10b      	bne.n	10003cd2 <tud_task+0x5fe>
10003cba:	4652      	mov	r2, sl
10003cbc:	445b      	add	r3, fp
10003cbe:	4463      	add	r3, ip
10003cc0:	2a01      	cmp	r2, #1
10003cc2:	d025      	beq.n	10003d10 <tud_task+0x63c>
10003cc4:	2230      	movs	r2, #48	; 0x30
10003cc6:	4690      	mov	r8, r2
10003cc8:	4498      	add	r8, r3
10003cca:	4643      	mov	r3, r8
10003ccc:	78db      	ldrb	r3, [r3, #3]
10003cce:	079b      	lsls	r3, r3, #30
10003cd0:	d534      	bpl.n	10003d3c <tud_task+0x668>
10003cd2:	2e00      	cmp	r6, #0
10003cd4:	d100      	bne.n	10003cd8 <tud_task+0x604>
10003cd6:	e50d      	b.n	100036f4 <tud_task+0x20>
10003cd8:	68f0      	ldr	r0, [r6, #12]
10003cda:	f000 fb61 	bl	100043a0 <usbd_control_set_complete_callback>
10003cde:	68f3      	ldr	r3, [r6, #12]
10003ce0:	aa06      	add	r2, sp, #24
10003ce2:	2100      	movs	r1, #0
10003ce4:	0038      	movs	r0, r7
10003ce6:	4798      	blx	r3
10003ce8:	2000      	movs	r0, #0
10003cea:	f000 fb59 	bl	100043a0 <usbd_control_set_complete_callback>
10003cee:	2334      	movs	r3, #52	; 0x34
10003cf0:	465a      	mov	r2, fp
10003cf2:	5cd3      	ldrb	r3, [r2, r3]
10003cf4:	07db      	lsls	r3, r3, #31
10003cf6:	d500      	bpl.n	10003cfa <tud_task+0x626>
10003cf8:	e4fc      	b.n	100036f4 <tud_task+0x20>
10003cfa:	e70f      	b.n	10003b1c <tud_task+0x448>
10003cfc:	4a1e      	ldr	r2, [pc, #120]	; (10003d78 <tud_task+0x6a4>)
10003cfe:	005e      	lsls	r6, r3, #1
10003d00:	18f3      	adds	r3, r6, r3
10003d02:	6816      	ldr	r6, [r2, #0]
10003d04:	00db      	lsls	r3, r3, #3
10003d06:	18f6      	adds	r6, r6, r3
10003d08:	2e00      	cmp	r6, #0
10003d0a:	d100      	bne.n	10003d0e <tud_task+0x63a>
10003d0c:	e571      	b.n	100037f2 <tud_task+0x11e>
10003d0e:	e737      	b.n	10003b80 <tud_task+0x4ac>
10003d10:	322f      	adds	r2, #47	; 0x2f
10003d12:	4691      	mov	r9, r2
10003d14:	4499      	add	r9, r3
10003d16:	464b      	mov	r3, r9
10003d18:	78db      	ldrb	r3, [r3, #3]
10003d1a:	079b      	lsls	r3, r3, #30
10003d1c:	d5d9      	bpl.n	10003cd2 <tud_task+0x5fe>
10003d1e:	0038      	movs	r0, r7
10003d20:	f7ff fa62 	bl	100031e8 <dcd_edpt_clear_stall>
10003d24:	464b      	mov	r3, r9
10003d26:	4642      	mov	r2, r8
10003d28:	78db      	ldrb	r3, [r3, #3]
10003d2a:	4393      	bics	r3, r2
10003d2c:	464a      	mov	r2, r9
10003d2e:	70d3      	strb	r3, [r2, #3]
10003d30:	78d3      	ldrb	r3, [r2, #3]
10003d32:	4652      	mov	r2, sl
10003d34:	4393      	bics	r3, r2
10003d36:	464a      	mov	r2, r9
10003d38:	70d3      	strb	r3, [r2, #3]
10003d3a:	e7ca      	b.n	10003cd2 <tud_task+0x5fe>
10003d3c:	0038      	movs	r0, r7
10003d3e:	f7ff fa37 	bl	100031b0 <dcd_edpt_stall>
10003d42:	4643      	mov	r3, r8
10003d44:	2202      	movs	r2, #2
10003d46:	78db      	ldrb	r3, [r3, #3]
10003d48:	4313      	orrs	r3, r2
10003d4a:	4642      	mov	r2, r8
10003d4c:	70d3      	strb	r3, [r2, #3]
10003d4e:	78d3      	ldrb	r3, [r2, #3]
10003d50:	2201      	movs	r2, #1
10003d52:	4313      	orrs	r3, r2
10003d54:	4642      	mov	r2, r8
10003d56:	70d3      	strb	r3, [r2, #3]
10003d58:	e7bb      	b.n	10003cd2 <tud_task+0x5fe>
10003d5a:	ab04      	add	r3, sp, #16
10003d5c:	1c9a      	adds	r2, r3, #2
10003d5e:	0038      	movs	r0, r7
10003d60:	2301      	movs	r3, #1
10003d62:	a906      	add	r1, sp, #24
10003d64:	7016      	strb	r6, [r2, #0]
10003d66:	f000 fab5 	bl	100042d4 <tud_control_xfer>
10003d6a:	e4c3      	b.n	100036f4 <tud_task+0x20>
10003d6c:	00000000 	.word	0x00000000
10003d70:	20000a50 	.word	0x20000a50
10003d74:	100058e8 	.word	0x100058e8
10003d78:	2000048c 	.word	0x2000048c
10003d7c:	100046c9 	.word	0x100046c9
10003d80:	100058a8 	.word	0x100058a8
	...
10003d90:	1e58      	subs	r0, r3, #1
10003d92:	b2c0      	uxtb	r0, r0
10003d94:	f7fc fca6 	bl	100006e4 <tud_descriptor_configuration_cb>
10003d98:	2800      	cmp	r0, #0
10003d9a:	d100      	bne.n	10003d9e <tud_task+0x6ca>
10003d9c:	e529      	b.n	100037f2 <tud_task+0x11e>
10003d9e:	7843      	ldrb	r3, [r0, #1]
10003da0:	2b02      	cmp	r3, #2
10003da2:	d000      	beq.n	10003da6 <tud_task+0x6d2>
10003da4:	e525      	b.n	100037f2 <tud_task+0x11e>
10003da6:	2101      	movs	r1, #1
10003da8:	79c2      	ldrb	r2, [r0, #7]
10003daa:	46ba      	mov	sl, r7
10003dac:	1193      	asrs	r3, r2, #6
10003dae:	1152      	asrs	r2, r2, #5
10003db0:	400b      	ands	r3, r1
10003db2:	400a      	ands	r2, r1
10003db4:	0112      	lsls	r2, r2, #4
10003db6:	015b      	lsls	r3, r3, #5
10003db8:	4313      	orrs	r3, r2
10003dba:	465a      	mov	r2, fp
10003dbc:	7812      	ldrb	r2, [r2, #0]
10003dbe:	312f      	adds	r1, #47	; 0x2f
10003dc0:	438a      	bics	r2, r1
10003dc2:	4313      	orrs	r3, r2
10003dc4:	465a      	mov	r2, fp
10003dc6:	7013      	strb	r3, [r2, #0]
10003dc8:	2309      	movs	r3, #9
10003dca:	4698      	mov	r8, r3
10003dcc:	4480      	add	r8, r0
10003dce:	4647      	mov	r7, r8
10003dd0:	78c3      	ldrb	r3, [r0, #3]
10003dd2:	7882      	ldrb	r2, [r0, #2]
10003dd4:	021b      	lsls	r3, r3, #8
10003dd6:	4313      	orrs	r3, r2
10003dd8:	18c3      	adds	r3, r0, r3
10003dda:	9302      	str	r3, [sp, #8]
10003ddc:	9b02      	ldr	r3, [sp, #8]
10003dde:	42bb      	cmp	r3, r7
10003de0:	d800      	bhi.n	10003de4 <tud_task+0x710>
10003de2:	e0b9      	b.n	10003f58 <tud_task+0x884>
10003de4:	2201      	movs	r2, #1
10003de6:	787b      	ldrb	r3, [r7, #1]
10003de8:	9200      	str	r2, [sp, #0]
10003dea:	2b0b      	cmp	r3, #11
10003dec:	d104      	bne.n	10003df8 <tud_task+0x724>
10003dee:	78fb      	ldrb	r3, [r7, #3]
10003df0:	9300      	str	r3, [sp, #0]
10003df2:	783b      	ldrb	r3, [r7, #0]
10003df4:	18ff      	adds	r7, r7, r3
10003df6:	787b      	ldrb	r3, [r7, #1]
10003df8:	2b04      	cmp	r3, #4
10003dfa:	d000      	beq.n	10003dfe <tud_task+0x72a>
10003dfc:	e4f9      	b.n	100037f2 <tud_task+0x11e>
10003dfe:	9b02      	ldr	r3, [sp, #8]
10003e00:	4a5b      	ldr	r2, [pc, #364]	; (10003f70 <tud_task+0x89c>)
10003e02:	1bdb      	subs	r3, r3, r7
10003e04:	b29b      	uxth	r3, r3
10003e06:	4698      	mov	r8, r3
10003e08:	4b5a      	ldr	r3, [pc, #360]	; (10003f74 <tud_task+0x8a0>)
10003e0a:	2600      	movs	r6, #0
10003e0c:	781b      	ldrb	r3, [r3, #0]
10003e0e:	2a00      	cmp	r2, #0
10003e10:	d113      	bne.n	10003e3a <tud_task+0x766>
10003e12:	e060      	b.n	10003ed6 <tud_task+0x802>
10003e14:	42b3      	cmp	r3, r6
10003e16:	d16f      	bne.n	10003ef8 <tud_task+0x824>
10003e18:	4b57      	ldr	r3, [pc, #348]	; (10003f78 <tud_task+0x8a4>)
10003e1a:	4642      	mov	r2, r8
10003e1c:	0039      	movs	r1, r7
10003e1e:	4650      	mov	r0, sl
10003e20:	4798      	blx	r3
10003e22:	2808      	cmp	r0, #8
10003e24:	d902      	bls.n	10003e2c <tud_task+0x758>
10003e26:	4643      	mov	r3, r8
10003e28:	4283      	cmp	r3, r0
10003e2a:	d268      	bcs.n	10003efe <tud_task+0x82a>
10003e2c:	4b51      	ldr	r3, [pc, #324]	; (10003f74 <tud_task+0x8a0>)
10003e2e:	3601      	adds	r6, #1
10003e30:	781b      	ldrb	r3, [r3, #0]
10003e32:	b2f6      	uxtb	r6, r6
10003e34:	42b3      	cmp	r3, r6
10003e36:	d200      	bcs.n	10003e3a <tud_task+0x766>
10003e38:	e4db      	b.n	100037f2 <tud_task+0x11e>
10003e3a:	42b3      	cmp	r3, r6
10003e3c:	d9ea      	bls.n	10003e14 <tud_task+0x740>
10003e3e:	4b4f      	ldr	r3, [pc, #316]	; (10003f7c <tud_task+0x8a8>)
10003e40:	681b      	ldr	r3, [r3, #0]
10003e42:	9303      	str	r3, [sp, #12]
10003e44:	9a03      	ldr	r2, [sp, #12]
10003e46:	0073      	lsls	r3, r6, #1
10003e48:	4694      	mov	ip, r2
10003e4a:	199b      	adds	r3, r3, r6
10003e4c:	00db      	lsls	r3, r3, #3
10003e4e:	4463      	add	r3, ip
10003e50:	689b      	ldr	r3, [r3, #8]
10003e52:	e7e2      	b.n	10003e1a <tud_task+0x746>
10003e54:	0038      	movs	r0, r7
10003e56:	f7ff f93b 	bl	100030d0 <dcd_edpt_close_all>
10003e5a:	78b3      	ldrb	r3, [r6, #2]
10003e5c:	4a44      	ldr	r2, [pc, #272]	; (10003f70 <tud_task+0x89c>)
10003e5e:	4e45      	ldr	r6, [pc, #276]	; (10003f74 <tud_task+0x8a0>)
10003e60:	469a      	mov	sl, r3
10003e62:	2100      	movs	r1, #0
10003e64:	7833      	ldrb	r3, [r6, #0]
10003e66:	2a00      	cmp	r2, #0
10003e68:	d02e      	beq.n	10003ec8 <tud_task+0x7f4>
10003e6a:	4a44      	ldr	r2, [pc, #272]	; (10003f7c <tud_task+0x8a8>)
10003e6c:	4690      	mov	r8, r2
10003e6e:	0032      	movs	r2, r6
10003e70:	000e      	movs	r6, r1
10003e72:	4691      	mov	r9, r2
10003e74:	42b3      	cmp	r3, r6
10003e76:	d81e      	bhi.n	10003eb6 <tud_task+0x7e2>
10003e78:	d000      	beq.n	10003e7c <tud_task+0x7a8>
10003e7a:	e592      	b.n	100039a2 <tud_task+0x2ce>
10003e7c:	4b40      	ldr	r3, [pc, #256]	; (10003f80 <tud_task+0x8ac>)
10003e7e:	0038      	movs	r0, r7
10003e80:	4798      	blx	r3
10003e82:	464b      	mov	r3, r9
10003e84:	3601      	adds	r6, #1
10003e86:	781b      	ldrb	r3, [r3, #0]
10003e88:	b2f6      	uxtb	r6, r6
10003e8a:	42b3      	cmp	r3, r6
10003e8c:	d2f2      	bcs.n	10003e74 <tud_task+0x7a0>
10003e8e:	2253      	movs	r2, #83	; 0x53
10003e90:	2100      	movs	r1, #0
10003e92:	4658      	mov	r0, fp
10003e94:	f7fe fcaa 	bl	100027ec <__wrap_memset>
10003e98:	465b      	mov	r3, fp
10003e9a:	2210      	movs	r2, #16
10003e9c:	1cd8      	adds	r0, r3, #3
10003e9e:	21ff      	movs	r1, #255	; 0xff
10003ea0:	f7fe fca4 	bl	100027ec <__wrap_memset>
10003ea4:	2220      	movs	r2, #32
10003ea6:	21ff      	movs	r1, #255	; 0xff
10003ea8:	4836      	ldr	r0, [pc, #216]	; (10003f84 <tud_task+0x8b0>)
10003eaa:	f7fe fc9f 	bl	100027ec <__wrap_memset>
10003eae:	465b      	mov	r3, fp
10003eb0:	4652      	mov	r2, sl
10003eb2:	709a      	strb	r2, [r3, #2]
10003eb4:	e67a      	b.n	10003bac <tud_task+0x4d8>
10003eb6:	4642      	mov	r2, r8
10003eb8:	6812      	ldr	r2, [r2, #0]
10003eba:	0073      	lsls	r3, r6, #1
10003ebc:	4694      	mov	ip, r2
10003ebe:	199b      	adds	r3, r3, r6
10003ec0:	00db      	lsls	r3, r3, #3
10003ec2:	4463      	add	r3, ip
10003ec4:	685b      	ldr	r3, [r3, #4]
10003ec6:	e7da      	b.n	10003e7e <tud_task+0x7aa>
10003ec8:	0038      	movs	r0, r7
10003eca:	f000 fbc9 	bl	10004660 <audiod_reset>
10003ece:	7833      	ldrb	r3, [r6, #0]
10003ed0:	2b00      	cmp	r3, #0
10003ed2:	d0dc      	beq.n	10003e8e <tud_task+0x7ba>
10003ed4:	e565      	b.n	100039a2 <tud_task+0x2ce>
10003ed6:	4642      	mov	r2, r8
10003ed8:	0039      	movs	r1, r7
10003eda:	4650      	mov	r0, sl
10003edc:	f000 fbd2 	bl	10004684 <audiod_open>
10003ee0:	4646      	mov	r6, r8
10003ee2:	4681      	mov	r9, r0
10003ee4:	4680      	mov	r8, r0
10003ee6:	2808      	cmp	r0, #8
10003ee8:	d901      	bls.n	10003eee <tud_task+0x81a>
10003eea:	42b0      	cmp	r0, r6
10003eec:	d928      	bls.n	10003f40 <tud_task+0x86c>
10003eee:	4b21      	ldr	r3, [pc, #132]	; (10003f74 <tud_task+0x8a0>)
10003ef0:	781b      	ldrb	r3, [r3, #0]
10003ef2:	2b00      	cmp	r3, #0
10003ef4:	d100      	bne.n	10003ef8 <tud_task+0x824>
10003ef6:	e47c      	b.n	100037f2 <tud_task+0x11e>
10003ef8:	2300      	movs	r3, #0
10003efa:	689b      	ldr	r3, [r3, #8]
10003efc:	deff      	udf	#255	; 0xff
10003efe:	9b00      	ldr	r3, [sp, #0]
10003f00:	4681      	mov	r9, r0
10003f02:	2b00      	cmp	r3, #0
10003f04:	d00f      	beq.n	10003f26 <tud_task+0x852>
10003f06:	78bb      	ldrb	r3, [r7, #2]
10003f08:	9a00      	ldr	r2, [sp, #0]
10003f0a:	189a      	adds	r2, r3, r2
10003f0c:	b2d2      	uxtb	r2, r2
10003f0e:	e004      	b.n	10003f1a <tud_task+0x846>
10003f10:	3301      	adds	r3, #1
10003f12:	b2db      	uxtb	r3, r3
10003f14:	70ce      	strb	r6, [r1, #3]
10003f16:	429a      	cmp	r2, r3
10003f18:	d005      	beq.n	10003f26 <tud_task+0x852>
10003f1a:	4659      	mov	r1, fp
10003f1c:	18c9      	adds	r1, r1, r3
10003f1e:	78c8      	ldrb	r0, [r1, #3]
10003f20:	28ff      	cmp	r0, #255	; 0xff
10003f22:	d0f5      	beq.n	10003f10 <tud_task+0x83c>
10003f24:	e465      	b.n	100037f2 <tud_task+0x11e>
10003f26:	0033      	movs	r3, r6
10003f28:	0039      	movs	r1, r7
10003f2a:	464a      	mov	r2, r9
10003f2c:	4815      	ldr	r0, [pc, #84]	; (10003f84 <tud_task+0x8b0>)
10003f2e:	f000 ff95 	bl	10004e5c <tu_edpt_bind_driver>
10003f32:	4b10      	ldr	r3, [pc, #64]	; (10003f74 <tud_task+0x8a0>)
10003f34:	444f      	add	r7, r9
10003f36:	781b      	ldrb	r3, [r3, #0]
10003f38:	42b3      	cmp	r3, r6
10003f3a:	d300      	bcc.n	10003f3e <tud_task+0x86a>
10003f3c:	e74e      	b.n	10003ddc <tud_task+0x708>
10003f3e:	e458      	b.n	100037f2 <tud_task+0x11e>
10003f40:	9b00      	ldr	r3, [sp, #0]
10003f42:	4e0b      	ldr	r6, [pc, #44]	; (10003f70 <tud_task+0x89c>)
10003f44:	2b00      	cmp	r3, #0
10003f46:	d1de      	bne.n	10003f06 <tud_task+0x832>
10003f48:	0039      	movs	r1, r7
10003f4a:	4642      	mov	r2, r8
10003f4c:	4b08      	ldr	r3, [pc, #32]	; (10003f70 <tud_task+0x89c>)
10003f4e:	480d      	ldr	r0, [pc, #52]	; (10003f84 <tud_task+0x8b0>)
10003f50:	f000 ff84 	bl	10004e5c <tu_edpt_bind_driver>
10003f54:	4447      	add	r7, r8
10003f56:	e741      	b.n	10003ddc <tud_task+0x708>
10003f58:	4b0b      	ldr	r3, [pc, #44]	; (10003f88 <tud_task+0x8b4>)
10003f5a:	4657      	mov	r7, sl
10003f5c:	2b00      	cmp	r3, #0
10003f5e:	d100      	bne.n	10003f62 <tud_task+0x88e>
10003f60:	e628      	b.n	10003bb4 <tud_task+0x4e0>
10003f62:	f7fc f9d3 	bl	1000030c <tud_mount_cb>
10003f66:	e625      	b.n	10003bb4 <tud_task+0x4e0>
10003f68:	f7fc fbbc 	bl	100006e4 <tud_descriptor_configuration_cb>
10003f6c:	0002      	movs	r2, r0
10003f6e:	e684      	b.n	10003c7a <tud_task+0x5a6>
10003f70:	00000000 	.word	0x00000000
10003f74:	20000a50 	.word	0x20000a50
10003f78:	10004685 	.word	0x10004685
10003f7c:	2000048c 	.word	0x2000048c
10003f80:	10004661 	.word	0x10004661
10003f84:	2000053f 	.word	0x2000053f
10003f88:	1000030d 	.word	0x1000030d

10003f8c <dcd_event_bus_signal>:
10003f8c:	b530      	push	{r4, r5, lr}
10003f8e:	b087      	sub	sp, #28
10003f90:	0005      	movs	r5, r0
10003f92:	000c      	movs	r4, r1
10003f94:	220c      	movs	r2, #12
10003f96:	2100      	movs	r1, #0
10003f98:	4668      	mov	r0, sp
10003f9a:	f7fe fc27 	bl	100027ec <__wrap_memset>
10003f9e:	466b      	mov	r3, sp
10003fa0:	701d      	strb	r5, [r3, #0]
10003fa2:	705c      	strb	r4, [r3, #1]
10003fa4:	2c04      	cmp	r4, #4
10003fa6:	d04f      	beq.n	10004048 <dcd_event_bus_signal+0xbc>
10003fa8:	d809      	bhi.n	10003fbe <dcd_event_bus_signal+0x32>
10003faa:	2c02      	cmp	r4, #2
10003fac:	d034      	beq.n	10004018 <dcd_event_bus_signal+0x8c>
10003fae:	2c03      	cmp	r4, #3
10003fb0:	d128      	bne.n	10004004 <dcd_event_bus_signal+0x78>
10003fb2:	4b3c      	ldr	r3, [pc, #240]	; (100040a4 <dcd_event_bus_signal+0x118>)
10003fb4:	781a      	ldrb	r2, [r3, #0]
10003fb6:	0752      	lsls	r2, r2, #29
10003fb8:	d458      	bmi.n	1000406c <dcd_event_bus_signal+0xe0>
10003fba:	b007      	add	sp, #28
10003fbc:	bd30      	pop	{r4, r5, pc}
10003fbe:	2c05      	cmp	r4, #5
10003fc0:	d120      	bne.n	10004004 <dcd_event_bus_signal+0x78>
10003fc2:	4b38      	ldr	r3, [pc, #224]	; (100040a4 <dcd_event_bus_signal+0x118>)
10003fc4:	781a      	ldrb	r2, [r3, #0]
10003fc6:	07d2      	lsls	r2, r2, #31
10003fc8:	d5f7      	bpl.n	10003fba <dcd_event_bus_signal+0x2e>
10003fca:	2104      	movs	r1, #4
10003fcc:	781a      	ldrb	r2, [r3, #0]
10003fce:	438a      	bics	r2, r1
10003fd0:	701a      	strb	r2, [r3, #0]
10003fd2:	4b35      	ldr	r3, [pc, #212]	; (100040a8 <dcd_event_bus_signal+0x11c>)
10003fd4:	681c      	ldr	r4, [r3, #0]
10003fd6:	69e2      	ldr	r2, [r4, #28]
10003fd8:	f3ef 8110 	mrs	r1, PRIMASK
10003fdc:	b672      	cpsid	i
10003fde:	6813      	ldr	r3, [r2, #0]
10003fe0:	2b00      	cmp	r3, #0
10003fe2:	d0fc      	beq.n	10003fde <dcd_event_bus_signal+0x52>
10003fe4:	f3bf 8f5f 	dmb	sy
10003fe8:	6221      	str	r1, [r4, #32]
10003fea:	4669      	mov	r1, sp
10003fec:	0020      	movs	r0, r4
10003fee:	f001 f865 	bl	100050bc <tu_fifo_write>
10003ff2:	69e2      	ldr	r2, [r4, #28]
10003ff4:	6a23      	ldr	r3, [r4, #32]
10003ff6:	f3bf 8f5f 	dmb	sy
10003ffa:	2100      	movs	r1, #0
10003ffc:	6011      	str	r1, [r2, #0]
10003ffe:	f383 8810 	msr	PRIMASK, r3
10004002:	e7da      	b.n	10003fba <dcd_event_bus_signal+0x2e>
10004004:	4b28      	ldr	r3, [pc, #160]	; (100040a8 <dcd_event_bus_signal+0x11c>)
10004006:	681c      	ldr	r4, [r3, #0]
10004008:	69e2      	ldr	r2, [r4, #28]
1000400a:	f3ef 8110 	mrs	r1, PRIMASK
1000400e:	b672      	cpsid	i
10004010:	6813      	ldr	r3, [r2, #0]
10004012:	2b00      	cmp	r3, #0
10004014:	d1e6      	bne.n	10003fe4 <dcd_event_bus_signal+0x58>
10004016:	e7fb      	b.n	10004010 <dcd_event_bus_signal+0x84>
10004018:	2101      	movs	r1, #1
1000401a:	4b22      	ldr	r3, [pc, #136]	; (100040a4 <dcd_event_bus_signal+0x118>)
1000401c:	781a      	ldrb	r2, [r3, #0]
1000401e:	438a      	bics	r2, r1
10004020:	701a      	strb	r2, [r3, #0]
10004022:	781a      	ldrb	r2, [r3, #0]
10004024:	3103      	adds	r1, #3
10004026:	43a2      	bics	r2, r4
10004028:	701a      	strb	r2, [r3, #0]
1000402a:	2200      	movs	r2, #0
1000402c:	705a      	strb	r2, [r3, #1]
1000402e:	781a      	ldrb	r2, [r3, #0]
10004030:	438a      	bics	r2, r1
10004032:	701a      	strb	r2, [r3, #0]
10004034:	4b1c      	ldr	r3, [pc, #112]	; (100040a8 <dcd_event_bus_signal+0x11c>)
10004036:	681c      	ldr	r4, [r3, #0]
10004038:	69e2      	ldr	r2, [r4, #28]
1000403a:	f3ef 8110 	mrs	r1, PRIMASK
1000403e:	b672      	cpsid	i
10004040:	6813      	ldr	r3, [r2, #0]
10004042:	2b00      	cmp	r3, #0
10004044:	d1ce      	bne.n	10003fe4 <dcd_event_bus_signal+0x58>
10004046:	e7fb      	b.n	10004040 <dcd_event_bus_signal+0xb4>
10004048:	4b16      	ldr	r3, [pc, #88]	; (100040a4 <dcd_event_bus_signal+0x118>)
1000404a:	781a      	ldrb	r2, [r3, #0]
1000404c:	07d2      	lsls	r2, r2, #31
1000404e:	d5b4      	bpl.n	10003fba <dcd_event_bus_signal+0x2e>
10004050:	2104      	movs	r1, #4
10004052:	781a      	ldrb	r2, [r3, #0]
10004054:	430a      	orrs	r2, r1
10004056:	701a      	strb	r2, [r3, #0]
10004058:	4b13      	ldr	r3, [pc, #76]	; (100040a8 <dcd_event_bus_signal+0x11c>)
1000405a:	681c      	ldr	r4, [r3, #0]
1000405c:	69e2      	ldr	r2, [r4, #28]
1000405e:	f3ef 8110 	mrs	r1, PRIMASK
10004062:	b672      	cpsid	i
10004064:	6813      	ldr	r3, [r2, #0]
10004066:	2b00      	cmp	r3, #0
10004068:	d1bc      	bne.n	10003fe4 <dcd_event_bus_signal+0x58>
1000406a:	e7fb      	b.n	10004064 <dcd_event_bus_signal+0xd8>
1000406c:	2104      	movs	r1, #4
1000406e:	781a      	ldrb	r2, [r3, #0]
10004070:	a803      	add	r0, sp, #12
10004072:	438a      	bics	r2, r1
10004074:	701a      	strb	r2, [r3, #0]
10004076:	2100      	movs	r1, #0
10004078:	220c      	movs	r2, #12
1000407a:	f7fe fbb7 	bl	100027ec <__wrap_memset>
1000407e:	466b      	mov	r3, sp
10004080:	466a      	mov	r2, sp
10004082:	731d      	strb	r5, [r3, #12]
10004084:	2305      	movs	r3, #5
10004086:	7353      	strb	r3, [r2, #13]
10004088:	4b07      	ldr	r3, [pc, #28]	; (100040a8 <dcd_event_bus_signal+0x11c>)
1000408a:	681c      	ldr	r4, [r3, #0]
1000408c:	69e2      	ldr	r2, [r4, #28]
1000408e:	f3ef 8110 	mrs	r1, PRIMASK
10004092:	b672      	cpsid	i
10004094:	6813      	ldr	r3, [r2, #0]
10004096:	2b00      	cmp	r3, #0
10004098:	d0fc      	beq.n	10004094 <dcd_event_bus_signal+0x108>
1000409a:	f3bf 8f5f 	dmb	sy
1000409e:	6221      	str	r1, [r4, #32]
100040a0:	a903      	add	r1, sp, #12
100040a2:	e7a3      	b.n	10003fec <dcd_event_bus_signal+0x60>
100040a4:	2000052c 	.word	0x2000052c
100040a8:	20000584 	.word	0x20000584

100040ac <dcd_event_bus_reset>:
100040ac:	b570      	push	{r4, r5, r6, lr}
100040ae:	b084      	sub	sp, #16
100040b0:	ac01      	add	r4, sp, #4
100040b2:	0006      	movs	r6, r0
100040b4:	000d      	movs	r5, r1
100040b6:	220c      	movs	r2, #12
100040b8:	2100      	movs	r1, #0
100040ba:	0020      	movs	r0, r4
100040bc:	f7fe fb96 	bl	100027ec <__wrap_memset>
100040c0:	2301      	movs	r3, #1
100040c2:	7063      	strb	r3, [r4, #1]
100040c4:	4b0d      	ldr	r3, [pc, #52]	; (100040fc <dcd_event_bus_reset+0x50>)
100040c6:	7125      	strb	r5, [r4, #4]
100040c8:	681d      	ldr	r5, [r3, #0]
100040ca:	7026      	strb	r6, [r4, #0]
100040cc:	69ea      	ldr	r2, [r5, #28]
100040ce:	f3ef 8310 	mrs	r3, PRIMASK
100040d2:	b672      	cpsid	i
100040d4:	6811      	ldr	r1, [r2, #0]
100040d6:	2900      	cmp	r1, #0
100040d8:	d0fc      	beq.n	100040d4 <dcd_event_bus_reset+0x28>
100040da:	f3bf 8f5f 	dmb	sy
100040de:	622b      	str	r3, [r5, #32]
100040e0:	0021      	movs	r1, r4
100040e2:	0028      	movs	r0, r5
100040e4:	f000 ffea 	bl	100050bc <tu_fifo_write>
100040e8:	69ea      	ldr	r2, [r5, #28]
100040ea:	6a2b      	ldr	r3, [r5, #32]
100040ec:	f3bf 8f5f 	dmb	sy
100040f0:	2100      	movs	r1, #0
100040f2:	6011      	str	r1, [r2, #0]
100040f4:	f383 8810 	msr	PRIMASK, r3
100040f8:	b004      	add	sp, #16
100040fa:	bd70      	pop	{r4, r5, r6, pc}
100040fc:	20000584 	.word	0x20000584

10004100 <dcd_event_setup_received>:
10004100:	2300      	movs	r3, #0
10004102:	b530      	push	{r4, r5, lr}
10004104:	b085      	sub	sp, #20
10004106:	ad01      	add	r5, sp, #4
10004108:	806b      	strh	r3, [r5, #2]
1000410a:	7028      	strb	r0, [r5, #0]
1000410c:	3306      	adds	r3, #6
1000410e:	2208      	movs	r2, #8
10004110:	a802      	add	r0, sp, #8
10004112:	706b      	strb	r3, [r5, #1]
10004114:	f7fe fb70 	bl	100027f8 <__wrap___aeabi_memcpy>
10004118:	4b0c      	ldr	r3, [pc, #48]	; (1000414c <dcd_event_setup_received+0x4c>)
1000411a:	681c      	ldr	r4, [r3, #0]
1000411c:	69e2      	ldr	r2, [r4, #28]
1000411e:	f3ef 8310 	mrs	r3, PRIMASK
10004122:	b672      	cpsid	i
10004124:	6811      	ldr	r1, [r2, #0]
10004126:	2900      	cmp	r1, #0
10004128:	d0fc      	beq.n	10004124 <dcd_event_setup_received+0x24>
1000412a:	f3bf 8f5f 	dmb	sy
1000412e:	6223      	str	r3, [r4, #32]
10004130:	0029      	movs	r1, r5
10004132:	0020      	movs	r0, r4
10004134:	f000 ffc2 	bl	100050bc <tu_fifo_write>
10004138:	69e2      	ldr	r2, [r4, #28]
1000413a:	6a23      	ldr	r3, [r4, #32]
1000413c:	f3bf 8f5f 	dmb	sy
10004140:	2100      	movs	r1, #0
10004142:	6011      	str	r1, [r2, #0]
10004144:	f383 8810 	msr	PRIMASK, r3
10004148:	b005      	add	sp, #20
1000414a:	bd30      	pop	{r4, r5, pc}
1000414c:	20000584 	.word	0x20000584

10004150 <dcd_event_xfer_complete>:
10004150:	b5f0      	push	{r4, r5, r6, r7, lr}
10004152:	46c6      	mov	lr, r8
10004154:	4680      	mov	r8, r0
10004156:	b500      	push	{lr}
10004158:	b084      	sub	sp, #16
1000415a:	ac01      	add	r4, sp, #4
1000415c:	000f      	movs	r7, r1
1000415e:	0016      	movs	r6, r2
10004160:	2100      	movs	r1, #0
10004162:	2208      	movs	r2, #8
10004164:	0020      	movs	r0, r4
10004166:	001d      	movs	r5, r3
10004168:	f7fe fb40 	bl	100027ec <__wrap_memset>
1000416c:	4643      	mov	r3, r8
1000416e:	7023      	strb	r3, [r4, #0]
10004170:	2307      	movs	r3, #7
10004172:	7063      	strb	r3, [r4, #1]
10004174:	4b0f      	ldr	r3, [pc, #60]	; (100041b4 <dcd_event_xfer_complete+0x64>)
10004176:	7165      	strb	r5, [r4, #5]
10004178:	681d      	ldr	r5, [r3, #0]
1000417a:	7127      	strb	r7, [r4, #4]
1000417c:	60a6      	str	r6, [r4, #8]
1000417e:	69ea      	ldr	r2, [r5, #28]
10004180:	f3ef 8310 	mrs	r3, PRIMASK
10004184:	b672      	cpsid	i
10004186:	6811      	ldr	r1, [r2, #0]
10004188:	2900      	cmp	r1, #0
1000418a:	d0fc      	beq.n	10004186 <dcd_event_xfer_complete+0x36>
1000418c:	f3bf 8f5f 	dmb	sy
10004190:	622b      	str	r3, [r5, #32]
10004192:	0021      	movs	r1, r4
10004194:	0028      	movs	r0, r5
10004196:	f000 ff91 	bl	100050bc <tu_fifo_write>
1000419a:	69ea      	ldr	r2, [r5, #28]
1000419c:	6a2b      	ldr	r3, [r5, #32]
1000419e:	f3bf 8f5f 	dmb	sy
100041a2:	2100      	movs	r1, #0
100041a4:	6011      	str	r1, [r2, #0]
100041a6:	f383 8810 	msr	PRIMASK, r3
100041aa:	b004      	add	sp, #16
100041ac:	bc04      	pop	{r2}
100041ae:	4690      	mov	r8, r2
100041b0:	bdf0      	pop	{r4, r5, r6, r7, pc}
100041b2:	46c0      	nop			; (mov r8, r8)
100041b4:	20000584 	.word	0x20000584

100041b8 <usbd_edpt_open>:
100041b8:	2270      	movs	r2, #112	; 0x70
100041ba:	b570      	push	{r4, r5, r6, lr}
100041bc:	788b      	ldrb	r3, [r1, #2]
100041be:	0005      	movs	r5, r0
100041c0:	000c      	movs	r4, r1
100041c2:	421a      	tst	r2, r3
100041c4:	d001      	beq.n	100041ca <usbd_edpt_open+0x12>
100041c6:	2000      	movs	r0, #0
100041c8:	bd70      	pop	{r4, r5, r6, pc}
100041ca:	4b06      	ldr	r3, [pc, #24]	; (100041e4 <usbd_edpt_open+0x2c>)
100041cc:	0020      	movs	r0, r4
100041ce:	7899      	ldrb	r1, [r3, #2]
100041d0:	f000 fe08 	bl	10004de4 <tu_edpt_validate>
100041d4:	2800      	cmp	r0, #0
100041d6:	d0f6      	beq.n	100041c6 <usbd_edpt_open+0xe>
100041d8:	0021      	movs	r1, r4
100041da:	0028      	movs	r0, r5
100041dc:	f7fe ff00 	bl	10002fe0 <dcd_edpt_open>
100041e0:	e7f2      	b.n	100041c8 <usbd_edpt_open+0x10>
100041e2:	46c0      	nop			; (mov r8, r8)
100041e4:	2000052c 	.word	0x2000052c

100041e8 <usbd_edpt_xfer>:
100041e8:	b570      	push	{r4, r5, r6, lr}
100041ea:	247f      	movs	r4, #127	; 0x7f
100041ec:	400c      	ands	r4, r1
100041ee:	0065      	lsls	r5, r4, #1
100041f0:	4c0e      	ldr	r4, [pc, #56]	; (1000422c <usbd_edpt_xfer+0x44>)
100041f2:	0006      	movs	r6, r0
100041f4:	1964      	adds	r4, r4, r5
100041f6:	09c8      	lsrs	r0, r1, #7
100041f8:	1824      	adds	r4, r4, r0
100041fa:	3430      	adds	r4, #48	; 0x30
100041fc:	78e5      	ldrb	r5, [r4, #3]
100041fe:	2000      	movs	r0, #0
10004200:	07ed      	lsls	r5, r5, #31
10004202:	d500      	bpl.n	10004206 <usbd_edpt_xfer+0x1e>
10004204:	bd70      	pop	{r4, r5, r6, pc}
10004206:	2501      	movs	r5, #1
10004208:	78e0      	ldrb	r0, [r4, #3]
1000420a:	4328      	orrs	r0, r5
1000420c:	70e0      	strb	r0, [r4, #3]
1000420e:	0030      	movs	r0, r6
10004210:	f7fe ffbc 	bl	1000318c <dcd_edpt_xfer>
10004214:	2800      	cmp	r0, #0
10004216:	d1f5      	bne.n	10004204 <usbd_edpt_xfer+0x1c>
10004218:	2201      	movs	r2, #1
1000421a:	78e3      	ldrb	r3, [r4, #3]
1000421c:	4393      	bics	r3, r2
1000421e:	70e3      	strb	r3, [r4, #3]
10004220:	78e3      	ldrb	r3, [r4, #3]
10004222:	3203      	adds	r2, #3
10004224:	4393      	bics	r3, r2
10004226:	70e3      	strb	r3, [r4, #3]
10004228:	e7ec      	b.n	10004204 <usbd_edpt_xfer+0x1c>
1000422a:	46c0      	nop			; (mov r8, r8)
1000422c:	2000052c 	.word	0x2000052c

10004230 <usbd_edpt_clear_stall>:
10004230:	b510      	push	{r4, lr}
10004232:	247f      	movs	r4, #127	; 0x7f
10004234:	400c      	ands	r4, r1
10004236:	0063      	lsls	r3, r4, #1
10004238:	4c09      	ldr	r4, [pc, #36]	; (10004260 <usbd_edpt_clear_stall+0x30>)
1000423a:	09ca      	lsrs	r2, r1, #7
1000423c:	18e4      	adds	r4, r4, r3
1000423e:	18a4      	adds	r4, r4, r2
10004240:	3430      	adds	r4, #48	; 0x30
10004242:	78e3      	ldrb	r3, [r4, #3]
10004244:	079b      	lsls	r3, r3, #30
10004246:	d400      	bmi.n	1000424a <usbd_edpt_clear_stall+0x1a>
10004248:	bd10      	pop	{r4, pc}
1000424a:	f7fe ffcd 	bl	100031e8 <dcd_edpt_clear_stall>
1000424e:	2202      	movs	r2, #2
10004250:	78e3      	ldrb	r3, [r4, #3]
10004252:	4393      	bics	r3, r2
10004254:	70e3      	strb	r3, [r4, #3]
10004256:	78e3      	ldrb	r3, [r4, #3]
10004258:	3a01      	subs	r2, #1
1000425a:	4393      	bics	r3, r2
1000425c:	70e3      	strb	r3, [r4, #3]
1000425e:	e7f3      	b.n	10004248 <usbd_edpt_clear_stall+0x18>
10004260:	2000052c 	.word	0x2000052c

10004264 <usbd_edpt_close>:
10004264:	4b0d      	ldr	r3, [pc, #52]	; (1000429c <usbd_edpt_close+0x38>)
10004266:	b510      	push	{r4, lr}
10004268:	000c      	movs	r4, r1
1000426a:	2b00      	cmp	r3, #0
1000426c:	d015      	beq.n	1000429a <usbd_edpt_close+0x36>
1000426e:	f7fe ffd3 	bl	10003218 <dcd_edpt_close>
10004272:	217f      	movs	r1, #127	; 0x7f
10004274:	2202      	movs	r2, #2
10004276:	4021      	ands	r1, r4
10004278:	004b      	lsls	r3, r1, #1
1000427a:	4909      	ldr	r1, [pc, #36]	; (100042a0 <usbd_edpt_close+0x3c>)
1000427c:	09e4      	lsrs	r4, r4, #7
1000427e:	18c9      	adds	r1, r1, r3
10004280:	1909      	adds	r1, r1, r4
10004282:	3130      	adds	r1, #48	; 0x30
10004284:	78cb      	ldrb	r3, [r1, #3]
10004286:	4393      	bics	r3, r2
10004288:	70cb      	strb	r3, [r1, #3]
1000428a:	78cb      	ldrb	r3, [r1, #3]
1000428c:	3a01      	subs	r2, #1
1000428e:	4393      	bics	r3, r2
10004290:	70cb      	strb	r3, [r1, #3]
10004292:	78cb      	ldrb	r3, [r1, #3]
10004294:	3203      	adds	r2, #3
10004296:	4393      	bics	r3, r2
10004298:	70cb      	strb	r3, [r1, #3]
1000429a:	bd10      	pop	{r4, pc}
1000429c:	10003219 	.word	0x10003219
100042a0:	2000052c 	.word	0x2000052c

100042a4 <tud_control_status>:
100042a4:	b570      	push	{r4, r5, r6, lr}
100042a6:	4e0a      	ldr	r6, [pc, #40]	; (100042d0 <tud_control_status+0x2c>)
100042a8:	0005      	movs	r5, r0
100042aa:	2208      	movs	r2, #8
100042ac:	0030      	movs	r0, r6
100042ae:	000c      	movs	r4, r1
100042b0:	f7fe faa2 	bl	100027f8 <__wrap___aeabi_memcpy>
100042b4:	2100      	movs	r1, #0
100042b6:	5661      	ldrsb	r1, [r4, r1]
100042b8:	2300      	movs	r3, #0
100042ba:	43c9      	mvns	r1, r1
100042bc:	0fc9      	lsrs	r1, r1, #31
100042be:	0028      	movs	r0, r5
100042c0:	60f3      	str	r3, [r6, #12]
100042c2:	2200      	movs	r2, #0
100042c4:	01c9      	lsls	r1, r1, #7
100042c6:	60b3      	str	r3, [r6, #8]
100042c8:	f7ff ff8e 	bl	100041e8 <usbd_edpt_xfer>
100042cc:	bd70      	pop	{r4, r5, r6, pc}
100042ce:	46c0      	nop			; (mov r8, r8)
100042d0:	20000490 	.word	0x20000490

100042d4 <tud_control_xfer>:
100042d4:	b5f8      	push	{r3, r4, r5, r6, r7, lr}
100042d6:	46ce      	mov	lr, r9
100042d8:	4647      	mov	r7, r8
100042da:	4690      	mov	r8, r2
100042dc:	4e29      	ldr	r6, [pc, #164]	; (10004384 <tud_control_xfer+0xb0>)
100042de:	b580      	push	{r7, lr}
100042e0:	4681      	mov	r9, r0
100042e2:	2208      	movs	r2, #8
100042e4:	0030      	movs	r0, r6
100042e6:	000d      	movs	r5, r1
100042e8:	001f      	movs	r7, r3
100042ea:	f7fe fa85 	bl	100027f8 <__wrap___aeabi_memcpy>
100042ee:	4643      	mov	r3, r8
100042f0:	60b3      	str	r3, [r6, #8]
100042f2:	2300      	movs	r3, #0
100042f4:	81f3      	strh	r3, [r6, #14]
100042f6:	79ec      	ldrb	r4, [r5, #7]
100042f8:	79ab      	ldrb	r3, [r5, #6]
100042fa:	0224      	lsls	r4, r4, #8
100042fc:	431c      	orrs	r4, r3
100042fe:	1c23      	adds	r3, r4, #0
10004300:	42bc      	cmp	r4, r7
10004302:	d900      	bls.n	10004306 <tud_control_xfer+0x32>
10004304:	1c3b      	adds	r3, r7, #0
10004306:	b29f      	uxth	r7, r3
10004308:	81b3      	strh	r3, [r6, #12]
1000430a:	2c00      	cmp	r4, #0
1000430c:	d012      	beq.n	10004334 <tud_control_xfer+0x60>
1000430e:	2f00      	cmp	r7, #0
10004310:	d01e      	beq.n	10004350 <tud_control_xfer+0x7c>
10004312:	4643      	mov	r3, r8
10004314:	2b00      	cmp	r3, #0
10004316:	d032      	beq.n	1000437e <tud_control_xfer+0xaa>
10004318:	1c3b      	adds	r3, r7, #0
1000431a:	2f40      	cmp	r7, #64	; 0x40
1000431c:	d81e      	bhi.n	1000435c <tud_control_xfer+0x88>
1000431e:	b29f      	uxth	r7, r3
10004320:	7833      	ldrb	r3, [r6, #0]
10004322:	2b7f      	cmp	r3, #127	; 0x7f
10004324:	d81f      	bhi.n	10004366 <tud_control_xfer+0x92>
10004326:	2100      	movs	r1, #0
10004328:	4a17      	ldr	r2, [pc, #92]	; (10004388 <tud_control_xfer+0xb4>)
1000432a:	003b      	movs	r3, r7
1000432c:	4648      	mov	r0, r9
1000432e:	f7ff ff5b 	bl	100041e8 <usbd_edpt_xfer>
10004332:	e009      	b.n	10004348 <tud_control_xfer+0x74>
10004334:	2100      	movs	r1, #0
10004336:	5669      	ldrsb	r1, [r5, r1]
10004338:	2300      	movs	r3, #0
1000433a:	43c9      	mvns	r1, r1
1000433c:	0fc9      	lsrs	r1, r1, #31
1000433e:	2200      	movs	r2, #0
10004340:	4648      	mov	r0, r9
10004342:	01c9      	lsls	r1, r1, #7
10004344:	f7ff ff50 	bl	100041e8 <usbd_edpt_xfer>
10004348:	bc0c      	pop	{r2, r3}
1000434a:	4690      	mov	r8, r2
1000434c:	4699      	mov	r9, r3
1000434e:	bdf8      	pop	{r3, r4, r5, r6, r7, pc}
10004350:	7833      	ldrb	r3, [r6, #0]
10004352:	2b7f      	cmp	r3, #127	; 0x7f
10004354:	d910      	bls.n	10004378 <tud_control_xfer+0xa4>
10004356:	2180      	movs	r1, #128	; 0x80
10004358:	2200      	movs	r2, #0
1000435a:	e7e6      	b.n	1000432a <tud_control_xfer+0x56>
1000435c:	2340      	movs	r3, #64	; 0x40
1000435e:	b29f      	uxth	r7, r3
10004360:	7833      	ldrb	r3, [r6, #0]
10004362:	2b7f      	cmp	r3, #127	; 0x7f
10004364:	d9df      	bls.n	10004326 <tud_control_xfer+0x52>
10004366:	4c08      	ldr	r4, [pc, #32]	; (10004388 <tud_control_xfer+0xb4>)
10004368:	003a      	movs	r2, r7
1000436a:	4641      	mov	r1, r8
1000436c:	0020      	movs	r0, r4
1000436e:	f7fe fa43 	bl	100027f8 <__wrap___aeabi_memcpy>
10004372:	2180      	movs	r1, #128	; 0x80
10004374:	0022      	movs	r2, r4
10004376:	e7d8      	b.n	1000432a <tud_control_xfer+0x56>
10004378:	2100      	movs	r1, #0
1000437a:	2200      	movs	r2, #0
1000437c:	e7d5      	b.n	1000432a <tud_control_xfer+0x56>
1000437e:	2000      	movs	r0, #0
10004380:	e7e2      	b.n	10004348 <tud_control_xfer+0x74>
10004382:	46c0      	nop			; (mov r8, r8)
10004384:	20000490 	.word	0x20000490
10004388:	200004ec 	.word	0x200004ec

1000438c <usbd_control_reset>:
1000438c:	b510      	push	{r4, lr}
1000438e:	2214      	movs	r2, #20
10004390:	2100      	movs	r1, #0
10004392:	4802      	ldr	r0, [pc, #8]	; (1000439c <usbd_control_reset+0x10>)
10004394:	f7fe fa2a 	bl	100027ec <__wrap_memset>
10004398:	bd10      	pop	{r4, pc}
1000439a:	46c0      	nop			; (mov r8, r8)
1000439c:	20000490 	.word	0x20000490

100043a0 <usbd_control_set_complete_callback>:
100043a0:	4b01      	ldr	r3, [pc, #4]	; (100043a8 <usbd_control_set_complete_callback+0x8>)
100043a2:	6118      	str	r0, [r3, #16]
100043a4:	4770      	bx	lr
100043a6:	46c0      	nop			; (mov r8, r8)
100043a8:	20000490 	.word	0x20000490

100043ac <usbd_control_set_request>:
100043ac:	b510      	push	{r4, lr}
100043ae:	4c05      	ldr	r4, [pc, #20]	; (100043c4 <usbd_control_set_request+0x18>)
100043b0:	0001      	movs	r1, r0
100043b2:	2208      	movs	r2, #8
100043b4:	0020      	movs	r0, r4
100043b6:	f7fe fa1f 	bl	100027f8 <__wrap___aeabi_memcpy>
100043ba:	2300      	movs	r3, #0
100043bc:	60a3      	str	r3, [r4, #8]
100043be:	60e3      	str	r3, [r4, #12]
100043c0:	bd10      	pop	{r4, pc}
100043c2:	46c0      	nop			; (mov r8, r8)
100043c4:	20000490 	.word	0x20000490

100043c8 <usbd_control_xfer_cb>:
100043c8:	b5f8      	push	{r3, r4, r5, r6, r7, lr}
100043ca:	4c3a      	ldr	r4, [pc, #232]	; (100044b4 <usbd_control_xfer_cb+0xec>)
100043cc:	001d      	movs	r5, r3
100043ce:	7823      	ldrb	r3, [r4, #0]
100043d0:	0006      	movs	r6, r0
100043d2:	09da      	lsrs	r2, r3, #7
100043d4:	09c9      	lsrs	r1, r1, #7
100043d6:	428a      	cmp	r2, r1
100043d8:	d013      	beq.n	10004402 <usbd_control_xfer_cb+0x3a>
100043da:	2000      	movs	r0, #0
100043dc:	2d00      	cmp	r5, #0
100043de:	d000      	beq.n	100043e2 <usbd_control_xfer_cb+0x1a>
100043e0:	bdf8      	pop	{r3, r4, r5, r6, r7, pc}
100043e2:	4b35      	ldr	r3, [pc, #212]	; (100044b8 <usbd_control_xfer_cb+0xf0>)
100043e4:	2b00      	cmp	r3, #0
100043e6:	d003      	beq.n	100043f0 <usbd_control_xfer_cb+0x28>
100043e8:	0021      	movs	r1, r4
100043ea:	0030      	movs	r0, r6
100043ec:	f7fe fdea 	bl	10002fc4 <dcd_edpt0_status_complete>
100043f0:	6923      	ldr	r3, [r4, #16]
100043f2:	2b00      	cmp	r3, #0
100043f4:	d043      	beq.n	1000447e <usbd_control_xfer_cb+0xb6>
100043f6:	0022      	movs	r2, r4
100043f8:	2102      	movs	r1, #2
100043fa:	0030      	movs	r0, r6
100043fc:	4798      	blx	r3
100043fe:	2001      	movs	r0, #1
10004400:	e7ee      	b.n	100043e0 <usbd_control_xfer_cb+0x18>
10004402:	2b7f      	cmp	r3, #127	; 0x7f
10004404:	d806      	bhi.n	10004414 <usbd_control_xfer_cb+0x4c>
10004406:	68a0      	ldr	r0, [r4, #8]
10004408:	2800      	cmp	r0, #0
1000440a:	d036      	beq.n	1000447a <usbd_control_xfer_cb+0xb2>
1000440c:	002a      	movs	r2, r5
1000440e:	492b      	ldr	r1, [pc, #172]	; (100044bc <usbd_control_xfer_cb+0xf4>)
10004410:	f7fe f9f2 	bl	100027f8 <__wrap___aeabi_memcpy>
10004414:	68a3      	ldr	r3, [r4, #8]
10004416:	89e2      	ldrh	r2, [r4, #14]
10004418:	1959      	adds	r1, r3, r5
1000441a:	1952      	adds	r2, r2, r5
1000441c:	88e3      	ldrh	r3, [r4, #6]
1000441e:	b292      	uxth	r2, r2
10004420:	81e2      	strh	r2, [r4, #14]
10004422:	60a1      	str	r1, [r4, #8]
10004424:	4293      	cmp	r3, r2
10004426:	d014      	beq.n	10004452 <usbd_control_xfer_cb+0x8a>
10004428:	2d3f      	cmp	r5, #63	; 0x3f
1000442a:	d912      	bls.n	10004452 <usbd_control_xfer_cb+0x8a>
1000442c:	89a5      	ldrh	r5, [r4, #12]
1000442e:	1aa8      	subs	r0, r5, r2
10004430:	1c07      	adds	r7, r0, #0
10004432:	b280      	uxth	r0, r0
10004434:	2840      	cmp	r0, #64	; 0x40
10004436:	d82e      	bhi.n	10004496 <usbd_control_xfer_cb+0xce>
10004438:	7823      	ldrb	r3, [r4, #0]
1000443a:	b2bf      	uxth	r7, r7
1000443c:	2b7f      	cmp	r3, #127	; 0x7f
1000443e:	d82c      	bhi.n	1000449a <usbd_control_xfer_cb+0xd2>
10004440:	2100      	movs	r1, #0
10004442:	42aa      	cmp	r2, r5
10004444:	d034      	beq.n	100044b0 <usbd_control_xfer_cb+0xe8>
10004446:	4a1d      	ldr	r2, [pc, #116]	; (100044bc <usbd_control_xfer_cb+0xf4>)
10004448:	003b      	movs	r3, r7
1000444a:	0030      	movs	r0, r6
1000444c:	f7ff fecc 	bl	100041e8 <usbd_edpt_xfer>
10004450:	e7c6      	b.n	100043e0 <usbd_control_xfer_cb+0x18>
10004452:	6923      	ldr	r3, [r4, #16]
10004454:	2b00      	cmp	r3, #0
10004456:	d005      	beq.n	10004464 <usbd_control_xfer_cb+0x9c>
10004458:	0022      	movs	r2, r4
1000445a:	2101      	movs	r1, #1
1000445c:	0030      	movs	r0, r6
1000445e:	4798      	blx	r3
10004460:	2800      	cmp	r0, #0
10004462:	d00e      	beq.n	10004482 <usbd_control_xfer_cb+0xba>
10004464:	2100      	movs	r1, #0
10004466:	5661      	ldrsb	r1, [r4, r1]
10004468:	2300      	movs	r3, #0
1000446a:	43c9      	mvns	r1, r1
1000446c:	0fc9      	lsrs	r1, r1, #31
1000446e:	2200      	movs	r2, #0
10004470:	0030      	movs	r0, r6
10004472:	01c9      	lsls	r1, r1, #7
10004474:	f7ff feb8 	bl	100041e8 <usbd_edpt_xfer>
10004478:	e7b2      	b.n	100043e0 <usbd_control_xfer_cb+0x18>
1000447a:	2000      	movs	r0, #0
1000447c:	e7b0      	b.n	100043e0 <usbd_control_xfer_cb+0x18>
1000447e:	2001      	movs	r0, #1
10004480:	e7ae      	b.n	100043e0 <usbd_control_xfer_cb+0x18>
10004482:	2100      	movs	r1, #0
10004484:	0030      	movs	r0, r6
10004486:	f7fe fe93 	bl	100031b0 <dcd_edpt_stall>
1000448a:	0030      	movs	r0, r6
1000448c:	2180      	movs	r1, #128	; 0x80
1000448e:	f7fe fe8f 	bl	100031b0 <dcd_edpt_stall>
10004492:	2001      	movs	r0, #1
10004494:	e7a4      	b.n	100043e0 <usbd_control_xfer_cb+0x18>
10004496:	2740      	movs	r7, #64	; 0x40
10004498:	e7ce      	b.n	10004438 <usbd_control_xfer_cb+0x70>
1000449a:	42aa      	cmp	r2, r5
1000449c:	d007      	beq.n	100044ae <usbd_control_xfer_cb+0xe6>
1000449e:	4c07      	ldr	r4, [pc, #28]	; (100044bc <usbd_control_xfer_cb+0xf4>)
100044a0:	003a      	movs	r2, r7
100044a2:	0020      	movs	r0, r4
100044a4:	f7fe f9a8 	bl	100027f8 <__wrap___aeabi_memcpy>
100044a8:	2180      	movs	r1, #128	; 0x80
100044aa:	0022      	movs	r2, r4
100044ac:	e7cc      	b.n	10004448 <usbd_control_xfer_cb+0x80>
100044ae:	2180      	movs	r1, #128	; 0x80
100044b0:	2200      	movs	r2, #0
100044b2:	e7c9      	b.n	10004448 <usbd_control_xfer_cb+0x80>
100044b4:	20000490 	.word	0x20000490
100044b8:	10002fc5 	.word	0x10002fc5
100044bc:	200004ec 	.word	0x200004ec

100044c0 <audiod_tx_done_cb.constprop.0>:
100044c0:	b5f0      	push	{r4, r5, r6, r7, lr}
100044c2:	4c30      	ldr	r4, [pc, #192]	; (10004584 <audiod_tx_done_cb.constprop.0+0xc4>)
100044c4:	0006      	movs	r6, r0
100044c6:	6863      	ldr	r3, [r4, #4]
100044c8:	b083      	sub	sp, #12
100044ca:	2b00      	cmp	r3, #0
100044cc:	d021      	beq.n	10004512 <audiod_tx_done_cb.constprop.0+0x52>
100044ce:	8a62      	ldrh	r2, [r4, #18]
100044d0:	7819      	ldrb	r1, [r3, #0]
100044d2:	3a08      	subs	r2, #8
100044d4:	189a      	adds	r2, r3, r2
100044d6:	185b      	adds	r3, r3, r1
100044d8:	79d9      	ldrb	r1, [r3, #7]
100044da:	7998      	ldrb	r0, [r3, #6]
100044dc:	0209      	lsls	r1, r1, #8
100044de:	4301      	orrs	r1, r0
100044e0:	185b      	adds	r3, r3, r1
100044e2:	429a      	cmp	r2, r3
100044e4:	d915      	bls.n	10004512 <audiod_tx_done_cb.constprop.0+0x52>
100044e6:	2500      	movs	r5, #0
100044e8:	7b20      	ldrb	r0, [r4, #12]
100044ea:	e003      	b.n	100044f4 <audiod_tx_done_cb.constprop.0+0x34>
100044ec:	7819      	ldrb	r1, [r3, #0]
100044ee:	185b      	adds	r3, r3, r1
100044f0:	429a      	cmp	r2, r3
100044f2:	d90e      	bls.n	10004512 <audiod_tx_done_cb.constprop.0+0x52>
100044f4:	7859      	ldrb	r1, [r3, #1]
100044f6:	2904      	cmp	r1, #4
100044f8:	d1f8      	bne.n	100044ec <audiod_tx_done_cb.constprop.0+0x2c>
100044fa:	78d9      	ldrb	r1, [r3, #3]
100044fc:	2900      	cmp	r1, #0
100044fe:	d1f5      	bne.n	100044ec <audiod_tx_done_cb.constprop.0+0x2c>
10004500:	7899      	ldrb	r1, [r3, #2]
10004502:	4281      	cmp	r1, r0
10004504:	d008      	beq.n	10004518 <audiod_tx_done_cb.constprop.0+0x58>
10004506:	7819      	ldrb	r1, [r3, #0]
10004508:	3501      	adds	r5, #1
1000450a:	185b      	adds	r3, r3, r1
1000450c:	b2ed      	uxtb	r5, r5
1000450e:	429a      	cmp	r2, r3
10004510:	d8f0      	bhi.n	100044f4 <audiod_tx_done_cb.constprop.0+0x34>
10004512:	2000      	movs	r0, #0
10004514:	b003      	add	sp, #12
10004516:	bdf0      	pop	{r4, r5, r6, r7, pc}
10004518:	69e3      	ldr	r3, [r4, #28]
1000451a:	5d5b      	ldrb	r3, [r3, r5]
1000451c:	2b00      	cmp	r3, #0
1000451e:	d0f8      	beq.n	10004512 <audiod_tx_done_cb.constprop.0+0x52>
10004520:	4a19      	ldr	r2, [pc, #100]	; (10004588 <audiod_tx_done_cb.constprop.0+0xc8>)
10004522:	2a00      	cmp	r2, #0
10004524:	d006      	beq.n	10004534 <audiod_tx_done_cb.constprop.0+0x74>
10004526:	2100      	movs	r1, #0
10004528:	0030      	movs	r0, r6
1000452a:	7a22      	ldrb	r2, [r4, #8]
1000452c:	f7fc f842 	bl	100005b4 <tud_audio_tx_done_pre_load_cb>
10004530:	2800      	cmp	r0, #0
10004532:	d0ee      	beq.n	10004512 <audiod_tx_done_cb.constprop.0+0x52>
10004534:	4f15      	ldr	r7, [pc, #84]	; (1000458c <audiod_tx_done_cb.constprop.0+0xcc>)
10004536:	0038      	movs	r0, r7
10004538:	f000 fce2 	bl	10004f00 <tu_fifo_count>
1000453c:	3f3c      	subs	r7, #60	; 0x3c
1000453e:	897b      	ldrh	r3, [r7, #10]
10004540:	1c1f      	adds	r7, r3, #0
10004542:	4283      	cmp	r3, r0
10004544:	d81b      	bhi.n	1000457e <audiod_tx_done_cb.constprop.0+0xbe>
10004546:	0020      	movs	r0, r4
10004548:	b2bf      	uxth	r7, r7
1000454a:	003a      	movs	r2, r7
1000454c:	6de1      	ldr	r1, [r4, #92]	; 0x5c
1000454e:	303c      	adds	r0, #60	; 0x3c
10004550:	f000 fd34 	bl	10004fbc <tu_fifo_read_n>
10004554:	003b      	movs	r3, r7
10004556:	0030      	movs	r0, r6
10004558:	7a21      	ldrb	r1, [r4, #8]
1000455a:	6de2      	ldr	r2, [r4, #92]	; 0x5c
1000455c:	f7ff fe44 	bl	100041e8 <usbd_edpt_xfer>
10004560:	2800      	cmp	r0, #0
10004562:	d0d6      	beq.n	10004512 <audiod_tx_done_cb.constprop.0+0x52>
10004564:	4b0a      	ldr	r3, [pc, #40]	; (10004590 <audiod_tx_done_cb.constprop.0+0xd0>)
10004566:	2b00      	cmp	r3, #0
10004568:	d0d4      	beq.n	10004514 <audiod_tx_done_cb.constprop.0+0x54>
1000456a:	69e2      	ldr	r2, [r4, #28]
1000456c:	7a23      	ldrb	r3, [r4, #8]
1000456e:	5d52      	ldrb	r2, [r2, r5]
10004570:	0039      	movs	r1, r7
10004572:	9200      	str	r2, [sp, #0]
10004574:	0030      	movs	r0, r6
10004576:	2200      	movs	r2, #0
10004578:	e000      	b.n	1000457c <audiod_tx_done_cb.constprop.0+0xbc>
1000457a:	bf00      	nop
1000457c:	e7ca      	b.n	10004514 <audiod_tx_done_cb.constprop.0+0x54>
1000457e:	1c07      	adds	r7, r0, #0
10004580:	e7e1      	b.n	10004546 <audiod_tx_done_cb.constprop.0+0x86>
10004582:	46c0      	nop			; (mov r8, r8)
10004584:	20002134 	.word	0x20002134
10004588:	100005b5 	.word	0x100005b5
1000458c:	20002170 	.word	0x20002170
10004590:	00000000 	.word	0x00000000

10004594 <tud_audio_n_read>:
10004594:	b510      	push	{r4, lr}
10004596:	2800      	cmp	r0, #0
10004598:	d107      	bne.n	100045aa <tud_audio_n_read+0x16>
1000459a:	4805      	ldr	r0, [pc, #20]	; (100045b0 <tud_audio_n_read+0x1c>)
1000459c:	6843      	ldr	r3, [r0, #4]
1000459e:	2b00      	cmp	r3, #0
100045a0:	d003      	beq.n	100045aa <tud_audio_n_read+0x16>
100045a2:	3020      	adds	r0, #32
100045a4:	f000 fd0a 	bl	10004fbc <tu_fifo_read_n>
100045a8:	e000      	b.n	100045ac <tud_audio_n_read+0x18>
100045aa:	2000      	movs	r0, #0
100045ac:	bd10      	pop	{r4, pc}
100045ae:	46c0      	nop			; (mov r8, r8)
100045b0:	20002134 	.word	0x20002134

100045b4 <tud_audio_n_write>:
100045b4:	b510      	push	{r4, lr}
100045b6:	2800      	cmp	r0, #0
100045b8:	d107      	bne.n	100045ca <tud_audio_n_write+0x16>
100045ba:	4805      	ldr	r0, [pc, #20]	; (100045d0 <tud_audio_n_write+0x1c>)
100045bc:	6843      	ldr	r3, [r0, #4]
100045be:	2b00      	cmp	r3, #0
100045c0:	d003      	beq.n	100045ca <tud_audio_n_write+0x16>
100045c2:	303c      	adds	r0, #60	; 0x3c
100045c4:	f000 fdb8 	bl	10005138 <tu_fifo_write_n>
100045c8:	e000      	b.n	100045cc <tud_audio_n_write+0x18>
100045ca:	2000      	movs	r0, #0
100045cc:	bd10      	pop	{r4, pc}
100045ce:	46c0      	nop			; (mov r8, r8)
100045d0:	20002134 	.word	0x20002134

100045d4 <audiod_init>:
100045d4:	b570      	push	{r4, r5, r6, lr}
100045d6:	4c19      	ldr	r4, [pc, #100]	; (1000463c <audiod_init+0x68>)
100045d8:	b082      	sub	sp, #8
100045da:	2260      	movs	r2, #96	; 0x60
100045dc:	2100      	movs	r1, #0
100045de:	0020      	movs	r0, r4
100045e0:	f7fe f904 	bl	100027ec <__wrap_memset>
100045e4:	4b16      	ldr	r3, [pc, #88]	; (10004640 <audiod_init+0x6c>)
100045e6:	2501      	movs	r5, #1
100045e8:	6163      	str	r3, [r4, #20]
100045ea:	2340      	movs	r3, #64	; 0x40
100045ec:	0020      	movs	r0, r4
100045ee:	22c2      	movs	r2, #194	; 0xc2
100045f0:	7623      	strb	r3, [r4, #24]
100045f2:	4b14      	ldr	r3, [pc, #80]	; (10004644 <audiod_init+0x70>)
100045f4:	4914      	ldr	r1, [pc, #80]	; (10004648 <audiod_init+0x74>)
100045f6:	61e3      	str	r3, [r4, #28]
100045f8:	0092      	lsls	r2, r2, #2
100045fa:	2301      	movs	r3, #1
100045fc:	9500      	str	r5, [sp, #0]
100045fe:	303c      	adds	r0, #60	; 0x3c
10004600:	f000 fc42 	bl	10004e88 <tu_fifo_config>
10004604:	4e11      	ldr	r6, [pc, #68]	; (1000464c <audiod_init+0x78>)
10004606:	0030      	movs	r0, r6
10004608:	f7fc ff66 	bl	100014d8 <mutex_init>
1000460c:	6526      	str	r6, [r4, #80]	; 0x50
1000460e:	0020      	movs	r0, r4
10004610:	2600      	movs	r6, #0
10004612:	22c2      	movs	r2, #194	; 0xc2
10004614:	4b0e      	ldr	r3, [pc, #56]	; (10004650 <audiod_init+0x7c>)
10004616:	490f      	ldr	r1, [pc, #60]	; (10004654 <audiod_init+0x80>)
10004618:	65e3      	str	r3, [r4, #92]	; 0x5c
1000461a:	6566      	str	r6, [r4, #84]	; 0x54
1000461c:	2301      	movs	r3, #1
1000461e:	9500      	str	r5, [sp, #0]
10004620:	00d2      	lsls	r2, r2, #3
10004622:	3020      	adds	r0, #32
10004624:	f000 fc30 	bl	10004e88 <tu_fifo_config>
10004628:	4d0b      	ldr	r5, [pc, #44]	; (10004658 <audiod_init+0x84>)
1000462a:	0028      	movs	r0, r5
1000462c:	f7fc ff54 	bl	100014d8 <mutex_init>
10004630:	4b0a      	ldr	r3, [pc, #40]	; (1000465c <audiod_init+0x88>)
10004632:	6366      	str	r6, [r4, #52]	; 0x34
10004634:	63a5      	str	r5, [r4, #56]	; 0x38
10004636:	65a3      	str	r3, [r4, #88]	; 0x58
10004638:	b002      	add	sp, #8
1000463a:	bd70      	pop	{r4, r5, r6, pc}
1000463c:	20002134 	.word	0x20002134
10004640:	20001de4 	.word	0x20001de4
10004644:	20001de0 	.word	0x20001de0
10004648:	20002194 	.word	0x20002194
1000464c:	2000212c 	.word	0x2000212c
10004650:	20001644 	.word	0x20001644
10004654:	200017c8 	.word	0x200017c8
10004658:	20001dd8 	.word	0x20001dd8
1000465c:	20001e24 	.word	0x20001e24

10004660 <audiod_reset>:
10004660:	b510      	push	{r4, lr}
10004662:	4c07      	ldr	r4, [pc, #28]	; (10004680 <audiod_reset+0x20>)
10004664:	2214      	movs	r2, #20
10004666:	2100      	movs	r1, #0
10004668:	0020      	movs	r0, r4
1000466a:	f7fe f8bf 	bl	100027ec <__wrap_memset>
1000466e:	0020      	movs	r0, r4
10004670:	303c      	adds	r0, #60	; 0x3c
10004672:	f000 fddd 	bl	10005230 <tu_fifo_clear>
10004676:	0020      	movs	r0, r4
10004678:	3020      	adds	r0, #32
1000467a:	f000 fdd9 	bl	10005230 <tu_fifo_clear>
1000467e:	bd10      	pop	{r4, pc}
10004680:	20002134 	.word	0x20002134

10004684 <audiod_open>:
10004684:	794a      	ldrb	r2, [r1, #5]
10004686:	0003      	movs	r3, r0
10004688:	b510      	push	{r4, lr}
1000468a:	2000      	movs	r0, #0
1000468c:	2a01      	cmp	r2, #1
1000468e:	d102      	bne.n	10004696 <audiod_open+0x12>
10004690:	798a      	ldrb	r2, [r1, #6]
10004692:	2a01      	cmp	r2, #1
10004694:	d000      	beq.n	10004698 <audiod_open+0x14>
10004696:	bd10      	pop	{r4, pc}
10004698:	79ca      	ldrb	r2, [r1, #7]
1000469a:	2a20      	cmp	r2, #32
1000469c:	d1fb      	bne.n	10004696 <audiod_open+0x12>
1000469e:	790a      	ldrb	r2, [r1, #4]
100046a0:	2a01      	cmp	r2, #1
100046a2:	d0f8      	beq.n	10004696 <audiod_open+0x12>
100046a4:	78ca      	ldrb	r2, [r1, #3]
100046a6:	2a00      	cmp	r2, #0
100046a8:	d1f5      	bne.n	10004696 <audiod_open+0x12>
100046aa:	4a06      	ldr	r2, [pc, #24]	; (100046c4 <audiod_open+0x40>)
100046ac:	6854      	ldr	r4, [r2, #4]
100046ae:	2c00      	cmp	r4, #0
100046b0:	d1f1      	bne.n	10004696 <audiod_open+0x12>
100046b2:	7013      	strb	r3, [r2, #0]
100046b4:	239c      	movs	r3, #156	; 0x9c
100046b6:	3031      	adds	r0, #49	; 0x31
100046b8:	005b      	lsls	r3, r3, #1
100046ba:	6051      	str	r1, [r2, #4]
100046bc:	8253      	strh	r3, [r2, #18]
100046be:	30ff      	adds	r0, #255	; 0xff
100046c0:	e7e9      	b.n	10004696 <audiod_open+0x12>
100046c2:	46c0      	nop			; (mov r8, r8)
100046c4:	20002134 	.word	0x20002134

100046c8 <audiod_control_xfer_cb>:
100046c8:	b5f0      	push	{r4, r5, r6, r7, lr}
100046ca:	464e      	mov	r6, r9
100046cc:	4645      	mov	r5, r8
100046ce:	46de      	mov	lr, fp
100046d0:	4657      	mov	r7, sl
100046d2:	b5e0      	push	{r5, r6, r7, lr}
100046d4:	0006      	movs	r6, r0
100046d6:	0015      	movs	r5, r2
100046d8:	b083      	sub	sp, #12
100046da:	2900      	cmp	r1, #0
100046dc:	d009      	beq.n	100046f2 <audiod_control_xfer_cb+0x2a>
100046de:	2001      	movs	r0, #1
100046e0:	2901      	cmp	r1, #1
100046e2:	d03d      	beq.n	10004760 <audiod_control_xfer_cb+0x98>
100046e4:	b003      	add	sp, #12
100046e6:	bc3c      	pop	{r2, r3, r4, r5}
100046e8:	4690      	mov	r8, r2
100046ea:	4699      	mov	r9, r3
100046ec:	46a2      	mov	sl, r4
100046ee:	46ab      	mov	fp, r5
100046f0:	bdf0      	pop	{r4, r5, r6, r7, pc}
100046f2:	2360      	movs	r3, #96	; 0x60
100046f4:	7811      	ldrb	r1, [r2, #0]
100046f6:	001a      	movs	r2, r3
100046f8:	400a      	ands	r2, r1
100046fa:	4690      	mov	r8, r2
100046fc:	420b      	tst	r3, r1
100046fe:	d12b      	bne.n	10004758 <audiod_control_xfer_cb+0x90>
10004700:	786b      	ldrb	r3, [r5, #1]
10004702:	2b0a      	cmp	r3, #10
10004704:	d100      	bne.n	10004708 <audiod_control_xfer_cb+0x40>
10004706:	e090      	b.n	1000482a <audiod_control_xfer_cb+0x162>
10004708:	2b0b      	cmp	r3, #11
1000470a:	d127      	bne.n	1000475c <audiod_control_xfer_cb+0x94>
1000470c:	4fb5      	ldr	r7, [pc, #724]	; (100049e4 <audiod_control_xfer_cb+0x31c>)
1000470e:	687c      	ldr	r4, [r7, #4]
10004710:	2c00      	cmp	r4, #0
10004712:	d023      	beq.n	1000475c <audiod_control_xfer_cb+0x94>
10004714:	8a79      	ldrh	r1, [r7, #18]
10004716:	7823      	ldrb	r3, [r4, #0]
10004718:	3908      	subs	r1, #8
1000471a:	1861      	adds	r1, r4, r1
1000471c:	18e4      	adds	r4, r4, r3
1000471e:	79e3      	ldrb	r3, [r4, #7]
10004720:	79a2      	ldrb	r2, [r4, #6]
10004722:	021b      	lsls	r3, r3, #8
10004724:	4313      	orrs	r3, r2
10004726:	18e4      	adds	r4, r4, r3
10004728:	42a1      	cmp	r1, r4
1000472a:	d917      	bls.n	1000475c <audiod_control_xfer_cb+0x94>
1000472c:	792b      	ldrb	r3, [r5, #4]
1000472e:	46ac      	mov	ip, r5
10004730:	4642      	mov	r2, r8
10004732:	001d      	movs	r5, r3
10004734:	e003      	b.n	1000473e <audiod_control_xfer_cb+0x76>
10004736:	7823      	ldrb	r3, [r4, #0]
10004738:	18e4      	adds	r4, r4, r3
1000473a:	42a1      	cmp	r1, r4
1000473c:	d90e      	bls.n	1000475c <audiod_control_xfer_cb+0x94>
1000473e:	7863      	ldrb	r3, [r4, #1]
10004740:	2b04      	cmp	r3, #4
10004742:	d1f8      	bne.n	10004736 <audiod_control_xfer_cb+0x6e>
10004744:	78e3      	ldrb	r3, [r4, #3]
10004746:	2b00      	cmp	r3, #0
10004748:	d1f5      	bne.n	10004736 <audiod_control_xfer_cb+0x6e>
1000474a:	78a0      	ldrb	r0, [r4, #2]
1000474c:	42a8      	cmp	r0, r5
1000474e:	d100      	bne.n	10004752 <audiod_control_xfer_cb+0x8a>
10004750:	e08f      	b.n	10004872 <audiod_control_xfer_cb+0x1aa>
10004752:	3201      	adds	r2, #1
10004754:	b2d2      	uxtb	r2, r2
10004756:	e7ee      	b.n	10004736 <audiod_control_xfer_cb+0x6e>
10004758:	2a20      	cmp	r2, #32
1000475a:	d032      	beq.n	100047c2 <audiod_control_xfer_cb+0xfa>
1000475c:	2000      	movs	r0, #0
1000475e:	e7c1      	b.n	100046e4 <audiod_control_xfer_cb+0x1c>
10004760:	7813      	ldrb	r3, [r2, #0]
10004762:	221f      	movs	r2, #31
10004764:	0019      	movs	r1, r3
10004766:	4391      	bics	r1, r2
10004768:	2920      	cmp	r1, #32
1000476a:	d1bb      	bne.n	100046e4 <audiod_control_xfer_cb+0x1c>
1000476c:	06db      	lsls	r3, r3, #27
1000476e:	0edb      	lsrs	r3, r3, #27
10004770:	2b01      	cmp	r3, #1
10004772:	d100      	bne.n	10004776 <audiod_control_xfer_cb+0xae>
10004774:	e155      	b.n	10004a22 <audiod_control_xfer_cb+0x35a>
10004776:	2b02      	cmp	r3, #2
10004778:	d1f0      	bne.n	1000475c <audiod_control_xfer_cb+0x94>
1000477a:	4b9b      	ldr	r3, [pc, #620]	; (100049e8 <audiod_control_xfer_cb+0x320>)
1000477c:	7928      	ldrb	r0, [r5, #4]
1000477e:	2b00      	cmp	r3, #0
10004780:	d0ec      	beq.n	1000475c <audiod_control_xfer_cb+0x94>
10004782:	4f98      	ldr	r7, [pc, #608]	; (100049e4 <audiod_control_xfer_cb+0x31c>)
10004784:	687b      	ldr	r3, [r7, #4]
10004786:	2b00      	cmp	r3, #0
10004788:	d0e8      	beq.n	1000475c <audiod_control_xfer_cb+0x94>
1000478a:	781a      	ldrb	r2, [r3, #0]
1000478c:	8a79      	ldrh	r1, [r7, #18]
1000478e:	1859      	adds	r1, r3, r1
10004790:	189b      	adds	r3, r3, r2
10004792:	79da      	ldrb	r2, [r3, #7]
10004794:	799c      	ldrb	r4, [r3, #6]
10004796:	0212      	lsls	r2, r2, #8
10004798:	4322      	orrs	r2, r4
1000479a:	189b      	adds	r3, r3, r2
1000479c:	4299      	cmp	r1, r3
1000479e:	d804      	bhi.n	100047aa <audiod_control_xfer_cb+0xe2>
100047a0:	e7dc      	b.n	1000475c <audiod_control_xfer_cb+0x94>
100047a2:	781a      	ldrb	r2, [r3, #0]
100047a4:	189b      	adds	r3, r3, r2
100047a6:	4299      	cmp	r1, r3
100047a8:	d9d8      	bls.n	1000475c <audiod_control_xfer_cb+0x94>
100047aa:	785a      	ldrb	r2, [r3, #1]
100047ac:	2a05      	cmp	r2, #5
100047ae:	d1f8      	bne.n	100047a2 <audiod_control_xfer_cb+0xda>
100047b0:	789a      	ldrb	r2, [r3, #2]
100047b2:	4282      	cmp	r2, r0
100047b4:	d1f5      	bne.n	100047a2 <audiod_control_xfer_cb+0xda>
100047b6:	0029      	movs	r1, r5
100047b8:	0030      	movs	r0, r6
100047ba:	697a      	ldr	r2, [r7, #20]
100047bc:	e000      	b.n	100047c0 <audiod_control_xfer_cb+0xf8>
100047be:	bf00      	nop
100047c0:	e790      	b.n	100046e4 <audiod_control_xfer_cb+0x1c>
100047c2:	796b      	ldrb	r3, [r5, #5]
100047c4:	792c      	ldrb	r4, [r5, #4]
100047c6:	021b      	lsls	r3, r3, #8
100047c8:	06ca      	lsls	r2, r1, #27
100047ca:	4323      	orrs	r3, r4
100047cc:	0ed2      	lsrs	r2, r2, #27
100047ce:	2a01      	cmp	r2, #1
100047d0:	d100      	bne.n	100047d4 <audiod_control_xfer_cb+0x10c>
100047d2:	e0d9      	b.n	10004988 <audiod_control_xfer_cb+0x2c0>
100047d4:	2a02      	cmp	r2, #2
100047d6:	d1c1      	bne.n	1000475c <audiod_control_xfer_cb+0x94>
100047d8:	4f82      	ldr	r7, [pc, #520]	; (100049e4 <audiod_control_xfer_cb+0x31c>)
100047da:	687b      	ldr	r3, [r7, #4]
100047dc:	2b00      	cmp	r3, #0
100047de:	d0bd      	beq.n	1000475c <audiod_control_xfer_cb+0x94>
100047e0:	8a78      	ldrh	r0, [r7, #18]
100047e2:	781a      	ldrb	r2, [r3, #0]
100047e4:	4680      	mov	r8, r0
100047e6:	4498      	add	r8, r3
100047e8:	189b      	adds	r3, r3, r2
100047ea:	799a      	ldrb	r2, [r3, #6]
100047ec:	4694      	mov	ip, r2
100047ee:	4660      	mov	r0, ip
100047f0:	79da      	ldrb	r2, [r3, #7]
100047f2:	0212      	lsls	r2, r2, #8
100047f4:	4302      	orrs	r2, r0
100047f6:	189b      	adds	r3, r3, r2
100047f8:	4598      	cmp	r8, r3
100047fa:	d9af      	bls.n	1000475c <audiod_control_xfer_cb+0x94>
100047fc:	4640      	mov	r0, r8
100047fe:	e003      	b.n	10004808 <audiod_control_xfer_cb+0x140>
10004800:	781a      	ldrb	r2, [r3, #0]
10004802:	189b      	adds	r3, r3, r2
10004804:	4298      	cmp	r0, r3
10004806:	d9a9      	bls.n	1000475c <audiod_control_xfer_cb+0x94>
10004808:	785a      	ldrb	r2, [r3, #1]
1000480a:	2a05      	cmp	r2, #5
1000480c:	d1f8      	bne.n	10004800 <audiod_control_xfer_cb+0x138>
1000480e:	789a      	ldrb	r2, [r3, #2]
10004810:	42a2      	cmp	r2, r4
10004812:	d1f5      	bne.n	10004800 <audiod_control_xfer_cb+0x138>
10004814:	b249      	sxtb	r1, r1
10004816:	2900      	cmp	r1, #0
10004818:	da00      	bge.n	1000481c <audiod_control_xfer_cb+0x154>
1000481a:	e183      	b.n	10004b24 <audiod_control_xfer_cb+0x45c>
1000481c:	0029      	movs	r1, r5
1000481e:	0030      	movs	r0, r6
10004820:	7e3b      	ldrb	r3, [r7, #24]
10004822:	697a      	ldr	r2, [r7, #20]
10004824:	f7ff fd56 	bl	100042d4 <tud_control_xfer>
10004828:	e75c      	b.n	100046e4 <audiod_control_xfer_cb+0x1c>
1000482a:	4f6e      	ldr	r7, [pc, #440]	; (100049e4 <audiod_control_xfer_cb+0x31c>)
1000482c:	687b      	ldr	r3, [r7, #4]
1000482e:	2b00      	cmp	r3, #0
10004830:	d094      	beq.n	1000475c <audiod_control_xfer_cb+0x94>
10004832:	8a79      	ldrh	r1, [r7, #18]
10004834:	781a      	ldrb	r2, [r3, #0]
10004836:	3908      	subs	r1, #8
10004838:	1859      	adds	r1, r3, r1
1000483a:	189b      	adds	r3, r3, r2
1000483c:	79da      	ldrb	r2, [r3, #7]
1000483e:	7998      	ldrb	r0, [r3, #6]
10004840:	0212      	lsls	r2, r2, #8
10004842:	4302      	orrs	r2, r0
10004844:	189b      	adds	r3, r3, r2
10004846:	4299      	cmp	r1, r3
10004848:	d988      	bls.n	1000475c <audiod_control_xfer_cb+0x94>
1000484a:	4644      	mov	r4, r8
1000484c:	7928      	ldrb	r0, [r5, #4]
1000484e:	e004      	b.n	1000485a <audiod_control_xfer_cb+0x192>
10004850:	781a      	ldrb	r2, [r3, #0]
10004852:	189b      	adds	r3, r3, r2
10004854:	4299      	cmp	r1, r3
10004856:	d800      	bhi.n	1000485a <audiod_control_xfer_cb+0x192>
10004858:	e780      	b.n	1000475c <audiod_control_xfer_cb+0x94>
1000485a:	785a      	ldrb	r2, [r3, #1]
1000485c:	2a04      	cmp	r2, #4
1000485e:	d1f7      	bne.n	10004850 <audiod_control_xfer_cb+0x188>
10004860:	78da      	ldrb	r2, [r3, #3]
10004862:	2a00      	cmp	r2, #0
10004864:	d1f4      	bne.n	10004850 <audiod_control_xfer_cb+0x188>
10004866:	789a      	ldrb	r2, [r3, #2]
10004868:	4282      	cmp	r2, r0
1000486a:	d07a      	beq.n	10004962 <audiod_control_xfer_cb+0x29a>
1000486c:	3401      	adds	r4, #1
1000486e:	b2e4      	uxtb	r4, r4
10004870:	e7ee      	b.n	10004850 <audiod_control_xfer_cb+0x188>
10004872:	46aa      	mov	sl, r5
10004874:	4665      	mov	r5, ip
10004876:	4690      	mov	r8, r2
10004878:	78ea      	ldrb	r2, [r5, #3]
1000487a:	4699      	mov	r9, r3
1000487c:	78ab      	ldrb	r3, [r5, #2]
1000487e:	0212      	lsls	r2, r2, #8
10004880:	431a      	orrs	r2, r3
10004882:	7b3b      	ldrb	r3, [r7, #12]
10004884:	4693      	mov	fp, r2
10004886:	4553      	cmp	r3, sl
10004888:	d100      	bne.n	1000488c <audiod_control_xfer_cb+0x1c4>
1000488a:	e110      	b.n	10004aae <audiod_control_xfer_cb+0x3e6>
1000488c:	7c3b      	ldrb	r3, [r7, #16]
1000488e:	4553      	cmp	r3, sl
10004890:	d100      	bne.n	10004894 <audiod_control_xfer_cb+0x1cc>
10004892:	e123      	b.n	10004adc <audiod_control_xfer_cb+0x414>
10004894:	465b      	mov	r3, fp
10004896:	4641      	mov	r1, r8
10004898:	b2da      	uxtb	r2, r3
1000489a:	69fb      	ldr	r3, [r7, #28]
1000489c:	4650      	mov	r0, sl
1000489e:	545a      	strb	r2, [r3, r1]
100048a0:	6879      	ldr	r1, [r7, #4]
100048a2:	8a7b      	ldrh	r3, [r7, #18]
100048a4:	4688      	mov	r8, r1
100048a6:	3b08      	subs	r3, #8
100048a8:	4498      	add	r8, r3
100048aa:	4641      	mov	r1, r8
100048ac:	45a0      	cmp	r8, r4
100048ae:	d804      	bhi.n	100048ba <audiod_control_xfer_cb+0x1f2>
100048b0:	e064      	b.n	1000497c <audiod_control_xfer_cb+0x2b4>
100048b2:	7823      	ldrb	r3, [r4, #0]
100048b4:	18e4      	adds	r4, r4, r3
100048b6:	42a1      	cmp	r1, r4
100048b8:	d960      	bls.n	1000497c <audiod_control_xfer_cb+0x2b4>
100048ba:	7863      	ldrb	r3, [r4, #1]
100048bc:	2b04      	cmp	r3, #4
100048be:	d1f8      	bne.n	100048b2 <audiod_control_xfer_cb+0x1ea>
100048c0:	78a3      	ldrb	r3, [r4, #2]
100048c2:	4283      	cmp	r3, r0
100048c4:	d1f5      	bne.n	100048b2 <audiod_control_xfer_cb+0x1ea>
100048c6:	78e3      	ldrb	r3, [r4, #3]
100048c8:	4293      	cmp	r3, r2
100048ca:	d1f2      	bne.n	100048b2 <audiod_control_xfer_cb+0x1ea>
100048cc:	7923      	ldrb	r3, [r4, #4]
100048ce:	4682      	mov	sl, r0
100048d0:	4688      	mov	r8, r1
100048d2:	9301      	str	r3, [sp, #4]
100048d4:	2b00      	cmp	r3, #0
100048d6:	d051      	beq.n	1000497c <audiod_control_xfer_cb+0x2b4>
100048d8:	42a1      	cmp	r1, r4
100048da:	d800      	bhi.n	100048de <audiod_control_xfer_cb+0x216>
100048dc:	e73e      	b.n	1000475c <audiod_control_xfer_cb+0x94>
100048de:	7823      	ldrb	r3, [r4, #0]
100048e0:	18e4      	adds	r4, r4, r3
100048e2:	9b01      	ldr	r3, [sp, #4]
100048e4:	454b      	cmp	r3, r9
100048e6:	d945      	bls.n	10004974 <audiod_control_xfer_cb+0x2ac>
100048e8:	45a0      	cmp	r8, r4
100048ea:	d800      	bhi.n	100048ee <audiod_control_xfer_cb+0x226>
100048ec:	e736      	b.n	1000475c <audiod_control_xfer_cb+0x94>
100048ee:	7863      	ldrb	r3, [r4, #1]
100048f0:	2b05      	cmp	r3, #5
100048f2:	d1f4      	bne.n	100048de <audiod_control_xfer_cb+0x216>
100048f4:	0021      	movs	r1, r4
100048f6:	0030      	movs	r0, r6
100048f8:	f7ff fc5e 	bl	100041b8 <usbd_edpt_open>
100048fc:	2800      	cmp	r0, #0
100048fe:	d100      	bne.n	10004902 <audiod_control_xfer_cb+0x23a>
10004900:	e72c      	b.n	1000475c <audiod_control_xfer_cb+0x94>
10004902:	78a3      	ldrb	r3, [r4, #2]
10004904:	0030      	movs	r0, r6
10004906:	469b      	mov	fp, r3
10004908:	0019      	movs	r1, r3
1000490a:	f7ff fc91 	bl	10004230 <usbd_edpt_clear_stall>
1000490e:	465b      	mov	r3, fp
10004910:	09db      	lsrs	r3, r3, #7
10004912:	2b01      	cmp	r3, #1
10004914:	d100      	bne.n	10004918 <audiod_control_xfer_cb+0x250>
10004916:	e10e      	b.n	10004b36 <audiod_control_xfer_cb+0x46e>
10004918:	465b      	mov	r3, fp
1000491a:	737b      	strb	r3, [r7, #13]
1000491c:	4653      	mov	r3, sl
1000491e:	2107      	movs	r1, #7
10004920:	743b      	strb	r3, [r7, #16]
10004922:	7963      	ldrb	r3, [r4, #5]
10004924:	7922      	ldrb	r2, [r4, #4]
10004926:	400b      	ands	r3, r1
10004928:	021b      	lsls	r3, r3, #8
1000492a:	4313      	orrs	r3, r2
1000492c:	4a2f      	ldr	r2, [pc, #188]	; (100049ec <audiod_control_xfer_cb+0x324>)
1000492e:	81fb      	strh	r3, [r7, #14]
10004930:	2a00      	cmp	r2, #0
10004932:	d009      	beq.n	10004948 <audiod_control_xfer_cb+0x280>
10004934:	0029      	movs	r1, r5
10004936:	0030      	movs	r0, r6
10004938:	f7fb fe02 	bl	10000540 <tud_audio_set_itf_cb>
1000493c:	2800      	cmp	r0, #0
1000493e:	d100      	bne.n	10004942 <audiod_control_xfer_cb+0x27a>
10004940:	e70c      	b.n	1000475c <audiod_control_xfer_cb+0x94>
10004942:	7b7b      	ldrb	r3, [r7, #13]
10004944:	469b      	mov	fp, r3
10004946:	89fb      	ldrh	r3, [r7, #14]
10004948:	4659      	mov	r1, fp
1000494a:	0030      	movs	r0, r6
1000494c:	6dba      	ldr	r2, [r7, #88]	; 0x58
1000494e:	f7ff fc4b 	bl	100041e8 <usbd_edpt_xfer>
10004952:	2800      	cmp	r0, #0
10004954:	d100      	bne.n	10004958 <audiod_control_xfer_cb+0x290>
10004956:	e701      	b.n	1000475c <audiod_control_xfer_cb+0x94>
10004958:	464b      	mov	r3, r9
1000495a:	3301      	adds	r3, #1
1000495c:	b2db      	uxtb	r3, r3
1000495e:	4699      	mov	r9, r3
10004960:	e7bd      	b.n	100048de <audiod_control_xfer_cb+0x216>
10004962:	46a0      	mov	r8, r4
10004964:	69fa      	ldr	r2, [r7, #28]
10004966:	2301      	movs	r3, #1
10004968:	0029      	movs	r1, r5
1000496a:	0030      	movs	r0, r6
1000496c:	4442      	add	r2, r8
1000496e:	f7ff fcb1 	bl	100042d4 <tud_control_xfer>
10004972:	e6b7      	b.n	100046e4 <audiod_control_xfer_cb+0x1c>
10004974:	9b01      	ldr	r3, [sp, #4]
10004976:	454b      	cmp	r3, r9
10004978:	d000      	beq.n	1000497c <audiod_control_xfer_cb+0x2b4>
1000497a:	e6ef      	b.n	1000475c <audiod_control_xfer_cb+0x94>
1000497c:	0029      	movs	r1, r5
1000497e:	0030      	movs	r0, r6
10004980:	f7ff fc90 	bl	100042a4 <tud_control_status>
10004984:	2001      	movs	r0, #1
10004986:	e6ad      	b.n	100046e4 <audiod_control_xfer_cb+0x1c>
10004988:	0a1b      	lsrs	r3, r3, #8
1000498a:	d01b      	beq.n	100049c4 <audiod_control_xfer_cb+0x2fc>
1000498c:	4f15      	ldr	r7, [pc, #84]	; (100049e4 <audiod_control_xfer_cb+0x31c>)
1000498e:	b2db      	uxtb	r3, r3
10004990:	687a      	ldr	r2, [r7, #4]
10004992:	2a00      	cmp	r2, #0
10004994:	d100      	bne.n	10004998 <audiod_control_xfer_cb+0x2d0>
10004996:	e6e1      	b.n	1000475c <audiod_control_xfer_cb+0x94>
10004998:	7890      	ldrb	r0, [r2, #2]
1000499a:	42a0      	cmp	r0, r4
1000499c:	d000      	beq.n	100049a0 <audiod_control_xfer_cb+0x2d8>
1000499e:	e6dd      	b.n	1000475c <audiod_control_xfer_cb+0x94>
100049a0:	7810      	ldrb	r0, [r2, #0]
100049a2:	1812      	adds	r2, r2, r0
100049a4:	79d4      	ldrb	r4, [r2, #7]
100049a6:	7990      	ldrb	r0, [r2, #6]
100049a8:	0224      	lsls	r4, r4, #8
100049aa:	4304      	orrs	r4, r0
100049ac:	1914      	adds	r4, r2, r4
100049ae:	e003      	b.n	100049b8 <audiod_control_xfer_cb+0x2f0>
100049b0:	78d0      	ldrb	r0, [r2, #3]
100049b2:	4298      	cmp	r0, r3
100049b4:	d100      	bne.n	100049b8 <audiod_control_xfer_cb+0x2f0>
100049b6:	e0a8      	b.n	10004b0a <audiod_control_xfer_cb+0x442>
100049b8:	7810      	ldrb	r0, [r2, #0]
100049ba:	1812      	adds	r2, r2, r0
100049bc:	4294      	cmp	r4, r2
100049be:	d8f7      	bhi.n	100049b0 <audiod_control_xfer_cb+0x2e8>
100049c0:	2000      	movs	r0, #0
100049c2:	e68f      	b.n	100046e4 <audiod_control_xfer_cb+0x1c>
100049c4:	4f07      	ldr	r7, [pc, #28]	; (100049e4 <audiod_control_xfer_cb+0x31c>)
100049c6:	687b      	ldr	r3, [r7, #4]
100049c8:	469c      	mov	ip, r3
100049ca:	2b00      	cmp	r3, #0
100049cc:	d100      	bne.n	100049d0 <audiod_control_xfer_cb+0x308>
100049ce:	e6c5      	b.n	1000475c <audiod_control_xfer_cb+0x94>
100049d0:	8a78      	ldrh	r0, [r7, #18]
100049d2:	3808      	subs	r0, #8
100049d4:	4460      	add	r0, ip
100049d6:	4283      	cmp	r3, r0
100049d8:	d300      	bcc.n	100049dc <audiod_control_xfer_cb+0x314>
100049da:	e6bf      	b.n	1000475c <audiod_control_xfer_cb+0x94>
100049dc:	468c      	mov	ip, r1
100049de:	0019      	movs	r1, r3
100049e0:	e00b      	b.n	100049fa <audiod_control_xfer_cb+0x332>
100049e2:	46c0      	nop			; (mov r8, r8)
100049e4:	20002134 	.word	0x20002134
100049e8:	00000000 	.word	0x00000000
100049ec:	10000541 	.word	0x10000541
100049f0:	781a      	ldrb	r2, [r3, #0]
100049f2:	189b      	adds	r3, r3, r2
100049f4:	4298      	cmp	r0, r3
100049f6:	d800      	bhi.n	100049fa <audiod_control_xfer_cb+0x332>
100049f8:	e6b0      	b.n	1000475c <audiod_control_xfer_cb+0x94>
100049fa:	785a      	ldrb	r2, [r3, #1]
100049fc:	2a04      	cmp	r2, #4
100049fe:	d1f7      	bne.n	100049f0 <audiod_control_xfer_cb+0x328>
10004a00:	788a      	ldrb	r2, [r1, #2]
10004a02:	42a2      	cmp	r2, r4
10004a04:	d1f4      	bne.n	100049f0 <audiod_control_xfer_cb+0x328>
10004a06:	4661      	mov	r1, ip
10004a08:	b249      	sxtb	r1, r1
10004a0a:	2900      	cmp	r1, #0
10004a0c:	db00      	blt.n	10004a10 <audiod_control_xfer_cb+0x348>
10004a0e:	e705      	b.n	1000481c <audiod_control_xfer_cb+0x154>
10004a10:	4b5d      	ldr	r3, [pc, #372]	; (10004b88 <audiod_control_xfer_cb+0x4c0>)
10004a12:	2b00      	cmp	r3, #0
10004a14:	d100      	bne.n	10004a18 <audiod_control_xfer_cb+0x350>
10004a16:	e6a1      	b.n	1000475c <audiod_control_xfer_cb+0x94>
10004a18:	0029      	movs	r1, r5
10004a1a:	0030      	movs	r0, r6
10004a1c:	e000      	b.n	10004a20 <audiod_control_xfer_cb+0x358>
10004a1e:	bf00      	nop
10004a20:	e660      	b.n	100046e4 <audiod_control_xfer_cb+0x1c>
10004a22:	7969      	ldrb	r1, [r5, #5]
10004a24:	792c      	ldrb	r4, [r5, #4]
10004a26:	2900      	cmp	r1, #0
10004a28:	d01f      	beq.n	10004a6a <audiod_control_xfer_cb+0x3a2>
10004a2a:	4a58      	ldr	r2, [pc, #352]	; (10004b8c <audiod_control_xfer_cb+0x4c4>)
10004a2c:	2a00      	cmp	r2, #0
10004a2e:	d100      	bne.n	10004a32 <audiod_control_xfer_cb+0x36a>
10004a30:	e694      	b.n	1000475c <audiod_control_xfer_cb+0x94>
10004a32:	4f57      	ldr	r7, [pc, #348]	; (10004b90 <audiod_control_xfer_cb+0x4c8>)
10004a34:	b2c9      	uxtb	r1, r1
10004a36:	687b      	ldr	r3, [r7, #4]
10004a38:	2b00      	cmp	r3, #0
10004a3a:	d100      	bne.n	10004a3e <audiod_control_xfer_cb+0x376>
10004a3c:	e68e      	b.n	1000475c <audiod_control_xfer_cb+0x94>
10004a3e:	789a      	ldrb	r2, [r3, #2]
10004a40:	42a2      	cmp	r2, r4
10004a42:	d000      	beq.n	10004a46 <audiod_control_xfer_cb+0x37e>
10004a44:	e68a      	b.n	1000475c <audiod_control_xfer_cb+0x94>
10004a46:	781a      	ldrb	r2, [r3, #0]
10004a48:	189b      	adds	r3, r3, r2
10004a4a:	79d8      	ldrb	r0, [r3, #7]
10004a4c:	799a      	ldrb	r2, [r3, #6]
10004a4e:	0200      	lsls	r0, r0, #8
10004a50:	4310      	orrs	r0, r2
10004a52:	1818      	adds	r0, r3, r0
10004a54:	e003      	b.n	10004a5e <audiod_control_xfer_cb+0x396>
10004a56:	78da      	ldrb	r2, [r3, #3]
10004a58:	428a      	cmp	r2, r1
10004a5a:	d100      	bne.n	10004a5e <audiod_control_xfer_cb+0x396>
10004a5c:	e08d      	b.n	10004b7a <audiod_control_xfer_cb+0x4b2>
10004a5e:	781a      	ldrb	r2, [r3, #0]
10004a60:	189b      	adds	r3, r3, r2
10004a62:	4298      	cmp	r0, r3
10004a64:	d8f7      	bhi.n	10004a56 <audiod_control_xfer_cb+0x38e>
10004a66:	2000      	movs	r0, #0
10004a68:	e63c      	b.n	100046e4 <audiod_control_xfer_cb+0x1c>
10004a6a:	4b4a      	ldr	r3, [pc, #296]	; (10004b94 <audiod_control_xfer_cb+0x4cc>)
10004a6c:	2b00      	cmp	r3, #0
10004a6e:	d100      	bne.n	10004a72 <audiod_control_xfer_cb+0x3aa>
10004a70:	e674      	b.n	1000475c <audiod_control_xfer_cb+0x94>
10004a72:	4f47      	ldr	r7, [pc, #284]	; (10004b90 <audiod_control_xfer_cb+0x4c8>)
10004a74:	6878      	ldr	r0, [r7, #4]
10004a76:	2800      	cmp	r0, #0
10004a78:	d100      	bne.n	10004a7c <audiod_control_xfer_cb+0x3b4>
10004a7a:	e66f      	b.n	1000475c <audiod_control_xfer_cb+0x94>
10004a7c:	8a79      	ldrh	r1, [r7, #18]
10004a7e:	3908      	subs	r1, #8
10004a80:	1841      	adds	r1, r0, r1
10004a82:	4288      	cmp	r0, r1
10004a84:	d300      	bcc.n	10004a88 <audiod_control_xfer_cb+0x3c0>
10004a86:	e669      	b.n	1000475c <audiod_control_xfer_cb+0x94>
10004a88:	0003      	movs	r3, r0
10004a8a:	e004      	b.n	10004a96 <audiod_control_xfer_cb+0x3ce>
10004a8c:	781a      	ldrb	r2, [r3, #0]
10004a8e:	189b      	adds	r3, r3, r2
10004a90:	4299      	cmp	r1, r3
10004a92:	d800      	bhi.n	10004a96 <audiod_control_xfer_cb+0x3ce>
10004a94:	e662      	b.n	1000475c <audiod_control_xfer_cb+0x94>
10004a96:	785a      	ldrb	r2, [r3, #1]
10004a98:	2a04      	cmp	r2, #4
10004a9a:	d1f7      	bne.n	10004a8c <audiod_control_xfer_cb+0x3c4>
10004a9c:	7882      	ldrb	r2, [r0, #2]
10004a9e:	42a2      	cmp	r2, r4
10004aa0:	d1f4      	bne.n	10004a8c <audiod_control_xfer_cb+0x3c4>
10004aa2:	0029      	movs	r1, r5
10004aa4:	0030      	movs	r0, r6
10004aa6:	697a      	ldr	r2, [r7, #20]
10004aa8:	e000      	b.n	10004aac <audiod_control_xfer_cb+0x3e4>
10004aaa:	bf00      	nop
10004aac:	e61a      	b.n	100046e4 <audiod_control_xfer_cb+0x1c>
10004aae:	464b      	mov	r3, r9
10004ab0:	0030      	movs	r0, r6
10004ab2:	733b      	strb	r3, [r7, #12]
10004ab4:	7a39      	ldrb	r1, [r7, #8]
10004ab6:	f7ff fbd5 	bl	10004264 <usbd_edpt_close>
10004aba:	0038      	movs	r0, r7
10004abc:	303c      	adds	r0, #60	; 0x3c
10004abe:	f000 fbb7 	bl	10005230 <tu_fifo_clear>
10004ac2:	4b35      	ldr	r3, [pc, #212]	; (10004b98 <audiod_control_xfer_cb+0x4d0>)
10004ac4:	2b00      	cmp	r3, #0
10004ac6:	d006      	beq.n	10004ad6 <audiod_control_xfer_cb+0x40e>
10004ac8:	0029      	movs	r1, r5
10004aca:	0030      	movs	r0, r6
10004acc:	f7fb fd28 	bl	10000520 <tud_audio_set_itf_close_EP_cb>
10004ad0:	2800      	cmp	r0, #0
10004ad2:	d100      	bne.n	10004ad6 <audiod_control_xfer_cb+0x40e>
10004ad4:	e642      	b.n	1000475c <audiod_control_xfer_cb+0x94>
10004ad6:	2300      	movs	r3, #0
10004ad8:	723b      	strb	r3, [r7, #8]
10004ada:	e6d7      	b.n	1000488c <audiod_control_xfer_cb+0x1c4>
10004adc:	2300      	movs	r3, #0
10004ade:	0030      	movs	r0, r6
10004ae0:	743b      	strb	r3, [r7, #16]
10004ae2:	7b79      	ldrb	r1, [r7, #13]
10004ae4:	f7ff fbbe 	bl	10004264 <usbd_edpt_close>
10004ae8:	0038      	movs	r0, r7
10004aea:	3020      	adds	r0, #32
10004aec:	f000 fba0 	bl	10005230 <tu_fifo_clear>
10004af0:	4b29      	ldr	r3, [pc, #164]	; (10004b98 <audiod_control_xfer_cb+0x4d0>)
10004af2:	2b00      	cmp	r3, #0
10004af4:	d006      	beq.n	10004b04 <audiod_control_xfer_cb+0x43c>
10004af6:	0029      	movs	r1, r5
10004af8:	0030      	movs	r0, r6
10004afa:	f7fb fd11 	bl	10000520 <tud_audio_set_itf_close_EP_cb>
10004afe:	2800      	cmp	r0, #0
10004b00:	d100      	bne.n	10004b04 <audiod_control_xfer_cb+0x43c>
10004b02:	e62b      	b.n	1000475c <audiod_control_xfer_cb+0x94>
10004b04:	2300      	movs	r3, #0
10004b06:	737b      	strb	r3, [r7, #13]
10004b08:	e6c4      	b.n	10004894 <audiod_control_xfer_cb+0x1cc>
10004b0a:	b249      	sxtb	r1, r1
10004b0c:	2900      	cmp	r1, #0
10004b0e:	db00      	blt.n	10004b12 <audiod_control_xfer_cb+0x44a>
10004b10:	e684      	b.n	1000481c <audiod_control_xfer_cb+0x154>
10004b12:	4b22      	ldr	r3, [pc, #136]	; (10004b9c <audiod_control_xfer_cb+0x4d4>)
10004b14:	2b00      	cmp	r3, #0
10004b16:	d100      	bne.n	10004b1a <audiod_control_xfer_cb+0x452>
10004b18:	e620      	b.n	1000475c <audiod_control_xfer_cb+0x94>
10004b1a:	0029      	movs	r1, r5
10004b1c:	0030      	movs	r0, r6
10004b1e:	f7fb fc13 	bl	10000348 <tud_audio_get_req_entity_cb>
10004b22:	e5df      	b.n	100046e4 <audiod_control_xfer_cb+0x1c>
10004b24:	4b1e      	ldr	r3, [pc, #120]	; (10004ba0 <audiod_control_xfer_cb+0x4d8>)
10004b26:	2b00      	cmp	r3, #0
10004b28:	d100      	bne.n	10004b2c <audiod_control_xfer_cb+0x464>
10004b2a:	e617      	b.n	1000475c <audiod_control_xfer_cb+0x94>
10004b2c:	0029      	movs	r1, r5
10004b2e:	0030      	movs	r0, r6
10004b30:	e000      	b.n	10004b34 <audiod_control_xfer_cb+0x46c>
10004b32:	bf00      	nop
10004b34:	e5d6      	b.n	100046e4 <audiod_control_xfer_cb+0x1c>
10004b36:	2230      	movs	r2, #48	; 0x30
10004b38:	78e3      	ldrb	r3, [r4, #3]
10004b3a:	421a      	tst	r2, r3
10004b3c:	d000      	beq.n	10004b40 <audiod_control_xfer_cb+0x478>
10004b3e:	e70b      	b.n	10004958 <audiod_control_xfer_cb+0x290>
10004b40:	465b      	mov	r3, fp
10004b42:	723b      	strb	r3, [r7, #8]
10004b44:	4653      	mov	r3, sl
10004b46:	2107      	movs	r1, #7
10004b48:	733b      	strb	r3, [r7, #12]
10004b4a:	7963      	ldrb	r3, [r4, #5]
10004b4c:	7922      	ldrb	r2, [r4, #4]
10004b4e:	400b      	ands	r3, r1
10004b50:	021b      	lsls	r3, r3, #8
10004b52:	4313      	orrs	r3, r2
10004b54:	817b      	strh	r3, [r7, #10]
10004b56:	4b13      	ldr	r3, [pc, #76]	; (10004ba4 <audiod_control_xfer_cb+0x4dc>)
10004b58:	2b00      	cmp	r3, #0
10004b5a:	d006      	beq.n	10004b6a <audiod_control_xfer_cb+0x4a2>
10004b5c:	0029      	movs	r1, r5
10004b5e:	0030      	movs	r0, r6
10004b60:	f7fb fcee 	bl	10000540 <tud_audio_set_itf_cb>
10004b64:	2800      	cmp	r0, #0
10004b66:	d100      	bne.n	10004b6a <audiod_control_xfer_cb+0x4a2>
10004b68:	e5f8      	b.n	1000475c <audiod_control_xfer_cb+0x94>
10004b6a:	0030      	movs	r0, r6
10004b6c:	f7ff fca8 	bl	100044c0 <audiod_tx_done_cb.constprop.0>
10004b70:	2800      	cmp	r0, #0
10004b72:	d000      	beq.n	10004b76 <audiod_control_xfer_cb+0x4ae>
10004b74:	e6f0      	b.n	10004958 <audiod_control_xfer_cb+0x290>
10004b76:	2000      	movs	r0, #0
10004b78:	e5b4      	b.n	100046e4 <audiod_control_xfer_cb+0x1c>
10004b7a:	0029      	movs	r1, r5
10004b7c:	0030      	movs	r0, r6
10004b7e:	697a      	ldr	r2, [r7, #20]
10004b80:	f7fb fc80 	bl	10000484 <tud_audio_set_req_entity_cb>
10004b84:	e5ae      	b.n	100046e4 <audiod_control_xfer_cb+0x1c>
10004b86:	46c0      	nop			; (mov r8, r8)
10004b88:	00000000 	.word	0x00000000
10004b8c:	10000485 	.word	0x10000485
10004b90:	20002134 	.word	0x20002134
10004b94:	00000000 	.word	0x00000000
10004b98:	10000521 	.word	0x10000521
10004b9c:	10000349 	.word	0x10000349
10004ba0:	00000000 	.word	0x00000000
10004ba4:	10000541 	.word	0x10000541

10004ba8 <audiod_xfer_cb>:
10004ba8:	b5f0      	push	{r4, r5, r6, r7, lr}
10004baa:	4647      	mov	r7, r8
10004bac:	46ce      	mov	lr, r9
10004bae:	2200      	movs	r2, #0
10004bb0:	b580      	push	{r7, lr}
10004bb2:	4e3c      	ldr	r6, [pc, #240]	; (10004ca4 <audiod_xfer_cb+0xfc>)
10004bb4:	0007      	movs	r7, r0
10004bb6:	7a30      	ldrb	r0, [r6, #8]
10004bb8:	4690      	mov	r8, r2
10004bba:	b083      	sub	sp, #12
10004bbc:	4288      	cmp	r0, r1
10004bbe:	d068      	beq.n	10004c92 <audiod_xfer_cb+0xea>
10004bc0:	7b72      	ldrb	r2, [r6, #13]
10004bc2:	428a      	cmp	r2, r1
10004bc4:	d12e      	bne.n	10004c24 <audiod_xfer_cb+0x7c>
10004bc6:	4a38      	ldr	r2, [pc, #224]	; (10004ca8 <audiod_xfer_cb+0x100>)
10004bc8:	4691      	mov	r9, r2
10004bca:	2a00      	cmp	r2, #0
10004bcc:	d030      	beq.n	10004c30 <audiod_xfer_cb+0x88>
10004bce:	6874      	ldr	r4, [r6, #4]
10004bd0:	2c00      	cmp	r4, #0
10004bd2:	d027      	beq.n	10004c24 <audiod_xfer_cb+0x7c>
10004bd4:	8a70      	ldrh	r0, [r6, #18]
10004bd6:	7825      	ldrb	r5, [r4, #0]
10004bd8:	3808      	subs	r0, #8
10004bda:	1820      	adds	r0, r4, r0
10004bdc:	1964      	adds	r4, r4, r5
10004bde:	79a5      	ldrb	r5, [r4, #6]
10004be0:	46ac      	mov	ip, r5
10004be2:	4662      	mov	r2, ip
10004be4:	79e5      	ldrb	r5, [r4, #7]
10004be6:	022d      	lsls	r5, r5, #8
10004be8:	4315      	orrs	r5, r2
10004bea:	1964      	adds	r4, r4, r5
10004bec:	42a0      	cmp	r0, r4
10004bee:	d919      	bls.n	10004c24 <audiod_xfer_cb+0x7c>
10004bf0:	7c32      	ldrb	r2, [r6, #16]
10004bf2:	4694      	mov	ip, r2
10004bf4:	2200      	movs	r2, #0
10004bf6:	4690      	mov	r8, r2
10004bf8:	e003      	b.n	10004c02 <audiod_xfer_cb+0x5a>
10004bfa:	7825      	ldrb	r5, [r4, #0]
10004bfc:	1964      	adds	r4, r4, r5
10004bfe:	42a0      	cmp	r0, r4
10004c00:	d910      	bls.n	10004c24 <audiod_xfer_cb+0x7c>
10004c02:	7865      	ldrb	r5, [r4, #1]
10004c04:	2d04      	cmp	r5, #4
10004c06:	d1f8      	bne.n	10004bfa <audiod_xfer_cb+0x52>
10004c08:	78e5      	ldrb	r5, [r4, #3]
10004c0a:	2d00      	cmp	r5, #0
10004c0c:	d1f5      	bne.n	10004bfa <audiod_xfer_cb+0x52>
10004c0e:	78a5      	ldrb	r5, [r4, #2]
10004c10:	4565      	cmp	r5, ip
10004c12:	d010      	beq.n	10004c36 <audiod_xfer_cb+0x8e>
10004c14:	4645      	mov	r5, r8
10004c16:	3501      	adds	r5, #1
10004c18:	b2ed      	uxtb	r5, r5
10004c1a:	46a8      	mov	r8, r5
10004c1c:	7825      	ldrb	r5, [r4, #0]
10004c1e:	1964      	adds	r4, r4, r5
10004c20:	42a0      	cmp	r0, r4
10004c22:	d8ee      	bhi.n	10004c02 <audiod_xfer_cb+0x5a>
10004c24:	2000      	movs	r0, #0
10004c26:	b003      	add	sp, #12
10004c28:	bc0c      	pop	{r2, r3}
10004c2a:	4690      	mov	r8, r2
10004c2c:	4699      	mov	r9, r3
10004c2e:	bdf0      	pop	{r4, r5, r6, r7, pc}
10004c30:	481e      	ldr	r0, [pc, #120]	; (10004cac <audiod_xfer_cb+0x104>)
10004c32:	2800      	cmp	r0, #0
10004c34:	d1cb      	bne.n	10004bce <audiod_xfer_cb+0x26>
10004c36:	b29c      	uxth	r4, r3
10004c38:	464b      	mov	r3, r9
10004c3a:	2b00      	cmp	r3, #0
10004c3c:	d00b      	beq.n	10004c56 <audiod_xfer_cb+0xae>
10004c3e:	4642      	mov	r2, r8
10004c40:	69f3      	ldr	r3, [r6, #28]
10004c42:	0038      	movs	r0, r7
10004c44:	5c9b      	ldrb	r3, [r3, r2]
10004c46:	2200      	movs	r2, #0
10004c48:	9300      	str	r3, [sp, #0]
10004c4a:	000b      	movs	r3, r1
10004c4c:	0021      	movs	r1, r4
10004c4e:	f7fb fca3 	bl	10000598 <tud_audio_rx_done_pre_read_cb>
10004c52:	2800      	cmp	r0, #0
10004c54:	d0e6      	beq.n	10004c24 <audiod_xfer_cb+0x7c>
10004c56:	0030      	movs	r0, r6
10004c58:	0022      	movs	r2, r4
10004c5a:	6db1      	ldr	r1, [r6, #88]	; 0x58
10004c5c:	3020      	adds	r0, #32
10004c5e:	f000 fa6b 	bl	10005138 <tu_fifo_write_n>
10004c62:	2800      	cmp	r0, #0
10004c64:	d0de      	beq.n	10004c24 <audiod_xfer_cb+0x7c>
10004c66:	0038      	movs	r0, r7
10004c68:	89f3      	ldrh	r3, [r6, #14]
10004c6a:	7b71      	ldrb	r1, [r6, #13]
10004c6c:	6db2      	ldr	r2, [r6, #88]	; 0x58
10004c6e:	f7ff fabb 	bl	100041e8 <usbd_edpt_xfer>
10004c72:	2800      	cmp	r0, #0
10004c74:	d0d6      	beq.n	10004c24 <audiod_xfer_cb+0x7c>
10004c76:	4b0d      	ldr	r3, [pc, #52]	; (10004cac <audiod_xfer_cb+0x104>)
10004c78:	2b00      	cmp	r3, #0
10004c7a:	d0d4      	beq.n	10004c26 <audiod_xfer_cb+0x7e>
10004c7c:	4641      	mov	r1, r8
10004c7e:	69f2      	ldr	r2, [r6, #28]
10004c80:	7b73      	ldrb	r3, [r6, #13]
10004c82:	5c52      	ldrb	r2, [r2, r1]
10004c84:	0038      	movs	r0, r7
10004c86:	9200      	str	r2, [sp, #0]
10004c88:	0021      	movs	r1, r4
10004c8a:	2200      	movs	r2, #0
10004c8c:	e000      	b.n	10004c90 <audiod_xfer_cb+0xe8>
10004c8e:	bf00      	nop
10004c90:	e7c9      	b.n	10004c26 <audiod_xfer_cb+0x7e>
10004c92:	69f2      	ldr	r2, [r6, #28]
10004c94:	2a00      	cmp	r2, #0
10004c96:	d100      	bne.n	10004c9a <audiod_xfer_cb+0xf2>
10004c98:	e792      	b.n	10004bc0 <audiod_xfer_cb+0x18>
10004c9a:	0038      	movs	r0, r7
10004c9c:	f7ff fc10 	bl	100044c0 <audiod_tx_done_cb.constprop.0>
10004ca0:	e7c1      	b.n	10004c26 <audiod_xfer_cb+0x7e>
10004ca2:	46c0      	nop			; (mov r8, r8)
10004ca4:	20002134 	.word	0x20002134
10004ca8:	10000599 	.word	0x10000599
10004cac:	00000000 	.word	0x00000000

10004cb0 <tud_audio_buffer_and_schedule_control_xfer>:
10004cb0:	b5f8      	push	{r3, r4, r5, r6, r7, lr}
10004cb2:	46de      	mov	lr, fp
10004cb4:	4657      	mov	r7, sl
10004cb6:	4645      	mov	r5, r8
10004cb8:	464e      	mov	r6, r9
10004cba:	780c      	ldrb	r4, [r1, #0]
10004cbc:	4682      	mov	sl, r0
10004cbe:	b5e0      	push	{r5, r6, r7, lr}
10004cc0:	4693      	mov	fp, r2
10004cc2:	000d      	movs	r5, r1
10004cc4:	2000      	movs	r0, #0
10004cc6:	2c7f      	cmp	r4, #127	; 0x7f
10004cc8:	d93a      	bls.n	10004d40 <tud_audio_buffer_and_schedule_control_xfer+0x90>
10004cca:	794f      	ldrb	r7, [r1, #5]
10004ccc:	790a      	ldrb	r2, [r1, #4]
10004cce:	023f      	lsls	r7, r7, #8
10004cd0:	06e4      	lsls	r4, r4, #27
10004cd2:	4317      	orrs	r7, r2
10004cd4:	0ee4      	lsrs	r4, r4, #27
10004cd6:	2c01      	cmp	r4, #1
10004cd8:	d03a      	beq.n	10004d50 <tud_audio_buffer_and_schedule_control_xfer+0xa0>
10004cda:	2c02      	cmp	r4, #2
10004cdc:	d130      	bne.n	10004d40 <tud_audio_buffer_and_schedule_control_xfer+0x90>
10004cde:	4f3b      	ldr	r7, [pc, #236]	; (10004dcc <tud_audio_buffer_and_schedule_control_xfer+0x11c>)
10004ce0:	687c      	ldr	r4, [r7, #4]
10004ce2:	2c00      	cmp	r4, #0
10004ce4:	d02c      	beq.n	10004d40 <tud_audio_buffer_and_schedule_control_xfer+0x90>
10004ce6:	8a79      	ldrh	r1, [r7, #18]
10004ce8:	4688      	mov	r8, r1
10004cea:	7821      	ldrb	r1, [r4, #0]
10004cec:	44a0      	add	r8, r4
10004cee:	468c      	mov	ip, r1
10004cf0:	4464      	add	r4, ip
10004cf2:	79a1      	ldrb	r1, [r4, #6]
10004cf4:	4689      	mov	r9, r1
10004cf6:	79e1      	ldrb	r1, [r4, #7]
10004cf8:	0209      	lsls	r1, r1, #8
10004cfa:	468c      	mov	ip, r1
10004cfc:	4649      	mov	r1, r9
10004cfe:	4666      	mov	r6, ip
10004d00:	4331      	orrs	r1, r6
10004d02:	468c      	mov	ip, r1
10004d04:	4464      	add	r4, ip
10004d06:	45a0      	cmp	r8, r4
10004d08:	d804      	bhi.n	10004d14 <tud_audio_buffer_and_schedule_control_xfer+0x64>
10004d0a:	e019      	b.n	10004d40 <tud_audio_buffer_and_schedule_control_xfer+0x90>
10004d0c:	7820      	ldrb	r0, [r4, #0]
10004d0e:	1824      	adds	r4, r4, r0
10004d10:	45a0      	cmp	r8, r4
10004d12:	d91b      	bls.n	10004d4c <tud_audio_buffer_and_schedule_control_xfer+0x9c>
10004d14:	7860      	ldrb	r0, [r4, #1]
10004d16:	2805      	cmp	r0, #5
10004d18:	d1f8      	bne.n	10004d0c <tud_audio_buffer_and_schedule_control_xfer+0x5c>
10004d1a:	78a0      	ldrb	r0, [r4, #2]
10004d1c:	4290      	cmp	r0, r2
10004d1e:	d1f5      	bne.n	10004d0c <tud_audio_buffer_and_schedule_control_xfer+0x5c>
10004d20:	7e3a      	ldrb	r2, [r7, #24]
10004d22:	1c14      	adds	r4, r2, #0
10004d24:	429a      	cmp	r2, r3
10004d26:	d835      	bhi.n	10004d94 <tud_audio_buffer_and_schedule_control_xfer+0xe4>
10004d28:	b2a4      	uxth	r4, r4
10004d2a:	0022      	movs	r2, r4
10004d2c:	4659      	mov	r1, fp
10004d2e:	6978      	ldr	r0, [r7, #20]
10004d30:	f7fd fd62 	bl	100027f8 <__wrap___aeabi_memcpy>
10004d34:	0023      	movs	r3, r4
10004d36:	0029      	movs	r1, r5
10004d38:	4650      	mov	r0, sl
10004d3a:	697a      	ldr	r2, [r7, #20]
10004d3c:	f7ff faca 	bl	100042d4 <tud_control_xfer>
10004d40:	bc3c      	pop	{r2, r3, r4, r5}
10004d42:	4690      	mov	r8, r2
10004d44:	4699      	mov	r9, r3
10004d46:	46a2      	mov	sl, r4
10004d48:	46ab      	mov	fp, r5
10004d4a:	bdf8      	pop	{r3, r4, r5, r6, r7, pc}
10004d4c:	2000      	movs	r0, #0
10004d4e:	e7f7      	b.n	10004d40 <tud_audio_buffer_and_schedule_control_xfer+0x90>
10004d50:	0a3f      	lsrs	r7, r7, #8
10004d52:	d021      	beq.n	10004d98 <tud_audio_buffer_and_schedule_control_xfer+0xe8>
10004d54:	b2f9      	uxtb	r1, r7
10004d56:	4f1d      	ldr	r7, [pc, #116]	; (10004dcc <tud_audio_buffer_and_schedule_control_xfer+0x11c>)
10004d58:	4689      	mov	r9, r1
10004d5a:	6879      	ldr	r1, [r7, #4]
10004d5c:	468c      	mov	ip, r1
10004d5e:	2900      	cmp	r1, #0
10004d60:	d0ee      	beq.n	10004d40 <tud_audio_buffer_and_schedule_control_xfer+0x90>
10004d62:	788c      	ldrb	r4, [r1, #2]
10004d64:	4294      	cmp	r4, r2
10004d66:	d1eb      	bne.n	10004d40 <tud_audio_buffer_and_schedule_control_xfer+0x90>
10004d68:	4662      	mov	r2, ip
10004d6a:	7812      	ldrb	r2, [r2, #0]
10004d6c:	4462      	add	r2, ip
10004d6e:	79d1      	ldrb	r1, [r2, #7]
10004d70:	7994      	ldrb	r4, [r2, #6]
10004d72:	0209      	lsls	r1, r1, #8
10004d74:	430c      	orrs	r4, r1
10004d76:	7811      	ldrb	r1, [r2, #0]
10004d78:	1914      	adds	r4, r2, r4
10004d7a:	4688      	mov	r8, r1
10004d7c:	4442      	add	r2, r8
10004d7e:	4294      	cmp	r4, r2
10004d80:	d804      	bhi.n	10004d8c <tud_audio_buffer_and_schedule_control_xfer+0xdc>
10004d82:	e7dd      	b.n	10004d40 <tud_audio_buffer_and_schedule_control_xfer+0x90>
10004d84:	7810      	ldrb	r0, [r2, #0]
10004d86:	1812      	adds	r2, r2, r0
10004d88:	4294      	cmp	r4, r2
10004d8a:	d9df      	bls.n	10004d4c <tud_audio_buffer_and_schedule_control_xfer+0x9c>
10004d8c:	78d0      	ldrb	r0, [r2, #3]
10004d8e:	4548      	cmp	r0, r9
10004d90:	d1f8      	bne.n	10004d84 <tud_audio_buffer_and_schedule_control_xfer+0xd4>
10004d92:	e7c5      	b.n	10004d20 <tud_audio_buffer_and_schedule_control_xfer+0x70>
10004d94:	1c1c      	adds	r4, r3, #0
10004d96:	e7c7      	b.n	10004d28 <tud_audio_buffer_and_schedule_control_xfer+0x78>
10004d98:	4f0c      	ldr	r7, [pc, #48]	; (10004dcc <tud_audio_buffer_and_schedule_control_xfer+0x11c>)
10004d9a:	6879      	ldr	r1, [r7, #4]
10004d9c:	468c      	mov	ip, r1
10004d9e:	2900      	cmp	r1, #0
10004da0:	d0ce      	beq.n	10004d40 <tud_audio_buffer_and_schedule_control_xfer+0x90>
10004da2:	8a7c      	ldrh	r4, [r7, #18]
10004da4:	3c08      	subs	r4, #8
10004da6:	4464      	add	r4, ip
10004da8:	42a1      	cmp	r1, r4
10004daa:	d2c9      	bcs.n	10004d40 <tud_audio_buffer_and_schedule_control_xfer+0x90>
10004dac:	0008      	movs	r0, r1
10004dae:	e004      	b.n	10004dba <tud_audio_buffer_and_schedule_control_xfer+0x10a>
10004db0:	7801      	ldrb	r1, [r0, #0]
10004db2:	4688      	mov	r8, r1
10004db4:	4440      	add	r0, r8
10004db6:	4284      	cmp	r4, r0
10004db8:	d9c8      	bls.n	10004d4c <tud_audio_buffer_and_schedule_control_xfer+0x9c>
10004dba:	7841      	ldrb	r1, [r0, #1]
10004dbc:	2904      	cmp	r1, #4
10004dbe:	d1f7      	bne.n	10004db0 <tud_audio_buffer_and_schedule_control_xfer+0x100>
10004dc0:	4661      	mov	r1, ip
10004dc2:	7889      	ldrb	r1, [r1, #2]
10004dc4:	4291      	cmp	r1, r2
10004dc6:	d1f3      	bne.n	10004db0 <tud_audio_buffer_and_schedule_control_xfer+0x100>
10004dc8:	e7aa      	b.n	10004d20 <tud_audio_buffer_and_schedule_control_xfer+0x70>
10004dca:	46c0      	nop			; (mov r8, r8)
10004dcc:	20002134 	.word	0x20002134

10004dd0 <tusb_init>:
10004dd0:	b510      	push	{r4, lr}
10004dd2:	2000      	movs	r0, #0
10004dd4:	f7fe fc12 	bl	100035fc <tud_init>
10004dd8:	bd10      	pop	{r4, pc}
10004dda:	46c0      	nop			; (mov r8, r8)

10004ddc <tusb_inited>:
10004ddc:	b510      	push	{r4, lr}
10004dde:	f7fe fc07 	bl	100035f0 <tud_inited>
10004de2:	bd10      	pop	{r4, pc}

10004de4 <tu_edpt_validate>:
10004de4:	2207      	movs	r2, #7
10004de6:	b510      	push	{r4, lr}
10004de8:	7944      	ldrb	r4, [r0, #5]
10004dea:	7903      	ldrb	r3, [r0, #4]
10004dec:	4022      	ands	r2, r4
10004dee:	0212      	lsls	r2, r2, #8
10004df0:	431a      	orrs	r2, r3
10004df2:	78c3      	ldrb	r3, [r0, #3]
10004df4:	079b      	lsls	r3, r3, #30
10004df6:	0f9b      	lsrs	r3, r3, #30
10004df8:	2b02      	cmp	r3, #2
10004dfa:	d005      	beq.n	10004e08 <tu_edpt_validate+0x24>
10004dfc:	2b03      	cmp	r3, #3
10004dfe:	d015      	beq.n	10004e2c <tu_edpt_validate+0x48>
10004e00:	2000      	movs	r0, #0
10004e02:	2b01      	cmp	r3, #1
10004e04:	d008      	beq.n	10004e18 <tu_edpt_validate+0x34>
10004e06:	bd10      	pop	{r4, pc}
10004e08:	2902      	cmp	r1, #2
10004e0a:	d01c      	beq.n	10004e46 <tu_edpt_validate+0x62>
10004e0c:	2000      	movs	r0, #0
10004e0e:	2340      	movs	r3, #64	; 0x40
10004e10:	4293      	cmp	r3, r2
10004e12:	4140      	adcs	r0, r0
10004e14:	b2c0      	uxtb	r0, r0
10004e16:	e7f6      	b.n	10004e06 <tu_edpt_validate+0x22>
10004e18:	3902      	subs	r1, #2
10004e1a:	424b      	negs	r3, r1
10004e1c:	4159      	adcs	r1, r3
10004e1e:	4b0d      	ldr	r3, [pc, #52]	; (10004e54 <tu_edpt_validate+0x70>)
10004e20:	469c      	mov	ip, r3
10004e22:	4461      	add	r1, ip
10004e24:	4291      	cmp	r1, r2
10004e26:	4140      	adcs	r0, r0
10004e28:	b2c0      	uxtb	r0, r0
10004e2a:	e7ec      	b.n	10004e06 <tu_edpt_validate+0x22>
10004e2c:	3902      	subs	r1, #2
10004e2e:	424b      	negs	r3, r1
10004e30:	4159      	adcs	r1, r3
10004e32:	23f0      	movs	r3, #240	; 0xf0
10004e34:	2000      	movs	r0, #0
10004e36:	4249      	negs	r1, r1
10004e38:	009b      	lsls	r3, r3, #2
10004e3a:	4019      	ands	r1, r3
10004e3c:	3140      	adds	r1, #64	; 0x40
10004e3e:	4291      	cmp	r1, r2
10004e40:	4140      	adcs	r0, r0
10004e42:	b2c0      	uxtb	r0, r0
10004e44:	e7df      	b.n	10004e06 <tu_edpt_validate+0x22>
10004e46:	4b04      	ldr	r3, [pc, #16]	; (10004e58 <tu_edpt_validate+0x74>)
10004e48:	469c      	mov	ip, r3
10004e4a:	4462      	add	r2, ip
10004e4c:	4250      	negs	r0, r2
10004e4e:	4150      	adcs	r0, r2
10004e50:	b2c0      	uxtb	r0, r0
10004e52:	e7d8      	b.n	10004e06 <tu_edpt_validate+0x22>
10004e54:	000003ff 	.word	0x000003ff
10004e58:	fffffe00 	.word	0xfffffe00

10004e5c <tu_edpt_bind_driver>:
10004e5c:	b5f0      	push	{r4, r5, r6, r7, lr}
10004e5e:	2a00      	cmp	r2, #0
10004e60:	d011      	beq.n	10004e86 <tu_edpt_bind_driver+0x2a>
10004e62:	2400      	movs	r4, #0
10004e64:	277f      	movs	r7, #127	; 0x7f
10004e66:	784d      	ldrb	r5, [r1, #1]
10004e68:	2d05      	cmp	r5, #5
10004e6a:	d106      	bne.n	10004e7a <tu_edpt_bind_driver+0x1e>
10004e6c:	003d      	movs	r5, r7
10004e6e:	788e      	ldrb	r6, [r1, #2]
10004e70:	4035      	ands	r5, r6
10004e72:	006d      	lsls	r5, r5, #1
10004e74:	09f6      	lsrs	r6, r6, #7
10004e76:	1945      	adds	r5, r0, r5
10004e78:	55ab      	strb	r3, [r5, r6]
10004e7a:	780d      	ldrb	r5, [r1, #0]
10004e7c:	1964      	adds	r4, r4, r5
10004e7e:	b2a4      	uxth	r4, r4
10004e80:	1949      	adds	r1, r1, r5
10004e82:	42a2      	cmp	r2, r4
10004e84:	d8ef      	bhi.n	10004e66 <tu_edpt_bind_driver+0xa>
10004e86:	bdf0      	pop	{r4, r5, r6, r7, pc}

10004e88 <tu_fifo_config>:
10004e88:	b5f0      	push	{r4, r5, r6, r7, lr}
10004e8a:	46c6      	mov	lr, r8
10004e8c:	b500      	push	{lr}
10004e8e:	0015      	movs	r5, r2
10004e90:	aa06      	add	r2, sp, #24
10004e92:	001e      	movs	r6, r3
10004e94:	7813      	ldrb	r3, [r2, #0]
10004e96:	2280      	movs	r2, #128	; 0x80
10004e98:	0004      	movs	r4, r0
10004e9a:	000f      	movs	r7, r1
10004e9c:	4698      	mov	r8, r3
10004e9e:	0212      	lsls	r2, r2, #8
10004ea0:	4295      	cmp	r5, r2
10004ea2:	d82a      	bhi.n	10004efa <tu_fifo_config+0x72>
10004ea4:	6940      	ldr	r0, [r0, #20]
10004ea6:	2800      	cmp	r0, #0
10004ea8:	d003      	beq.n	10004eb2 <tu_fifo_config+0x2a>
10004eaa:	2101      	movs	r1, #1
10004eac:	4249      	negs	r1, r1
10004eae:	f000 fb2f 	bl	10005510 <__mutex_enter_timeout_ms_veneer>
10004eb2:	69a0      	ldr	r0, [r4, #24]
10004eb4:	2800      	cmp	r0, #0
10004eb6:	d003      	beq.n	10004ec0 <tu_fifo_config+0x38>
10004eb8:	2101      	movs	r1, #1
10004eba:	4249      	negs	r1, r1
10004ebc:	f000 fb28 	bl	10005510 <__mutex_enter_timeout_ms_veneer>
10004ec0:	4643      	mov	r3, r8
10004ec2:	80a5      	strh	r5, [r4, #4]
10004ec4:	006d      	lsls	r5, r5, #1
10004ec6:	b2ad      	uxth	r5, r5
10004ec8:	7223      	strb	r3, [r4, #8]
10004eca:	1e6b      	subs	r3, r5, #1
10004ecc:	81a3      	strh	r3, [r4, #12]
10004ece:	2300      	movs	r3, #0
10004ed0:	6960      	ldr	r0, [r4, #20]
10004ed2:	426d      	negs	r5, r5
10004ed4:	81e3      	strh	r3, [r4, #14]
10004ed6:	6027      	str	r7, [r4, #0]
10004ed8:	80e6      	strh	r6, [r4, #6]
10004eda:	8165      	strh	r5, [r4, #10]
10004edc:	8223      	strh	r3, [r4, #16]
10004ede:	2800      	cmp	r0, #0
10004ee0:	d001      	beq.n	10004ee6 <tu_fifo_config+0x5e>
10004ee2:	f000 faf5 	bl	100054d0 <__mutex_exit_veneer>
10004ee6:	69a0      	ldr	r0, [r4, #24]
10004ee8:	2401      	movs	r4, #1
10004eea:	2800      	cmp	r0, #0
10004eec:	d001      	beq.n	10004ef2 <tu_fifo_config+0x6a>
10004eee:	f000 faef 	bl	100054d0 <__mutex_exit_veneer>
10004ef2:	0020      	movs	r0, r4
10004ef4:	bc04      	pop	{r2}
10004ef6:	4690      	mov	r8, r2
10004ef8:	bdf0      	pop	{r4, r5, r6, r7, pc}
10004efa:	2400      	movs	r4, #0
10004efc:	e7f9      	b.n	10004ef2 <tu_fifo_config+0x6a>
10004efe:	46c0      	nop			; (mov r8, r8)

10004f00 <tu_fifo_count>:
10004f00:	89c1      	ldrh	r1, [r0, #14]
10004f02:	8a02      	ldrh	r2, [r0, #16]
10004f04:	1a8b      	subs	r3, r1, r2
10004f06:	b29b      	uxth	r3, r3
10004f08:	4291      	cmp	r1, r2
10004f0a:	d202      	bcs.n	10004f12 <tu_fifo_count+0x12>
10004f0c:	8942      	ldrh	r2, [r0, #10]
10004f0e:	1a9b      	subs	r3, r3, r2
10004f10:	b29b      	uxth	r3, r3
10004f12:	8882      	ldrh	r2, [r0, #4]
10004f14:	1c10      	adds	r0, r2, #0
10004f16:	429a      	cmp	r2, r3
10004f18:	d900      	bls.n	10004f1c <tu_fifo_count+0x1c>
10004f1a:	1c18      	adds	r0, r3, #0
10004f1c:	b280      	uxth	r0, r0
10004f1e:	4770      	bx	lr

10004f20 <tu_fifo_read>:
10004f20:	b570      	push	{r4, r5, r6, lr}
10004f22:	0004      	movs	r4, r0
10004f24:	6980      	ldr	r0, [r0, #24]
10004f26:	000d      	movs	r5, r1
10004f28:	2800      	cmp	r0, #0
10004f2a:	d003      	beq.n	10004f34 <tu_fifo_read+0x14>
10004f2c:	2101      	movs	r1, #1
10004f2e:	4249      	negs	r1, r1
10004f30:	f000 faee 	bl	10005510 <__mutex_enter_timeout_ms_veneer>
10004f34:	89e0      	ldrh	r0, [r4, #14]
10004f36:	8a21      	ldrh	r1, [r4, #16]
10004f38:	b286      	uxth	r6, r0
10004f3a:	1a42      	subs	r2, r0, r1
10004f3c:	b28b      	uxth	r3, r1
10004f3e:	b292      	uxth	r2, r2
10004f40:	4288      	cmp	r0, r1
10004f42:	d202      	bcs.n	10004f4a <tu_fifo_read+0x2a>
10004f44:	8961      	ldrh	r1, [r4, #10]
10004f46:	1a52      	subs	r2, r2, r1
10004f48:	b292      	uxth	r2, r2
10004f4a:	88a0      	ldrh	r0, [r4, #4]
10004f4c:	4290      	cmp	r0, r2
10004f4e:	d207      	bcs.n	10004f60 <tu_fifo_read+0x40>
10004f50:	4286      	cmp	r6, r0
10004f52:	d22c      	bcs.n	10004fae <tu_fifo_read+0x8e>
10004f54:	8962      	ldrh	r2, [r4, #10]
10004f56:	1882      	adds	r2, r0, r2
10004f58:	1ab2      	subs	r2, r6, r2
10004f5a:	b292      	uxth	r2, r2
10004f5c:	8222      	strh	r2, [r4, #16]
10004f5e:	0002      	movs	r2, r0
10004f60:	2a00      	cmp	r2, #0
10004f62:	d102      	bne.n	10004f6a <tu_fifo_read+0x4a>
10004f64:	e01c      	b.n	10004fa0 <tu_fifo_read+0x80>
10004f66:	1a1b      	subs	r3, r3, r0
10004f68:	b29b      	uxth	r3, r3
10004f6a:	4298      	cmp	r0, r3
10004f6c:	d9fb      	bls.n	10004f66 <tu_fifo_read+0x46>
10004f6e:	88e2      	ldrh	r2, [r4, #6]
10004f70:	6821      	ldr	r1, [r4, #0]
10004f72:	4353      	muls	r3, r2
10004f74:	0028      	movs	r0, r5
10004f76:	18c9      	adds	r1, r1, r3
10004f78:	f7fd fc3e 	bl	100027f8 <__wrap___aeabi_memcpy>
10004f7c:	8a22      	ldrh	r2, [r4, #16]
10004f7e:	2501      	movs	r5, #1
10004f80:	1c53      	adds	r3, r2, #1
10004f82:	b29b      	uxth	r3, r3
10004f84:	429a      	cmp	r2, r3
10004f86:	d90e      	bls.n	10004fa6 <tu_fifo_read+0x86>
10004f88:	2300      	movs	r3, #0
10004f8a:	8962      	ldrh	r2, [r4, #10]
10004f8c:	189b      	adds	r3, r3, r2
10004f8e:	b29b      	uxth	r3, r3
10004f90:	69a0      	ldr	r0, [r4, #24]
10004f92:	8223      	strh	r3, [r4, #16]
10004f94:	2800      	cmp	r0, #0
10004f96:	d001      	beq.n	10004f9c <tu_fifo_read+0x7c>
10004f98:	f000 fa9a 	bl	100054d0 <__mutex_exit_veneer>
10004f9c:	0028      	movs	r0, r5
10004f9e:	bd70      	pop	{r4, r5, r6, pc}
10004fa0:	2500      	movs	r5, #0
10004fa2:	8a23      	ldrh	r3, [r4, #16]
10004fa4:	b29b      	uxth	r3, r3
10004fa6:	89a2      	ldrh	r2, [r4, #12]
10004fa8:	429a      	cmp	r2, r3
10004faa:	d2f1      	bcs.n	10004f90 <tu_fifo_read+0x70>
10004fac:	e7ed      	b.n	10004f8a <tu_fifo_read+0x6a>
10004fae:	1a32      	subs	r2, r6, r0
10004fb0:	89a1      	ldrh	r1, [r4, #12]
10004fb2:	b292      	uxth	r2, r2
10004fb4:	4291      	cmp	r1, r2
10004fb6:	d2d1      	bcs.n	10004f5c <tu_fifo_read+0x3c>
10004fb8:	e7cc      	b.n	10004f54 <tu_fifo_read+0x34>
10004fba:	46c0      	nop			; (mov r8, r8)

10004fbc <tu_fifo_read_n>:
10004fbc:	b5f0      	push	{r4, r5, r6, r7, lr}
10004fbe:	464f      	mov	r7, r9
10004fc0:	4646      	mov	r6, r8
10004fc2:	46d6      	mov	lr, sl
10004fc4:	0004      	movs	r4, r0
10004fc6:	6980      	ldr	r0, [r0, #24]
10004fc8:	4688      	mov	r8, r1
10004fca:	4691      	mov	r9, r2
10004fcc:	b5c0      	push	{r6, r7, lr}
10004fce:	2800      	cmp	r0, #0
10004fd0:	d003      	beq.n	10004fda <tu_fifo_read_n+0x1e>
10004fd2:	2101      	movs	r1, #1
10004fd4:	4249      	negs	r1, r1
10004fd6:	f000 fa9b 	bl	10005510 <__mutex_enter_timeout_ms_veneer>
10004fda:	89e2      	ldrh	r2, [r4, #14]
10004fdc:	8a23      	ldrh	r3, [r4, #16]
10004fde:	b291      	uxth	r1, r2
10004fe0:	1ad6      	subs	r6, r2, r3
10004fe2:	b29d      	uxth	r5, r3
10004fe4:	b2b6      	uxth	r6, r6
10004fe6:	429a      	cmp	r2, r3
10004fe8:	d202      	bcs.n	10004ff0 <tu_fifo_read_n+0x34>
10004fea:	8963      	ldrh	r3, [r4, #10]
10004fec:	1af6      	subs	r6, r6, r3
10004fee:	b2b6      	uxth	r6, r6
10004ff0:	88a7      	ldrh	r7, [r4, #4]
10004ff2:	42b7      	cmp	r7, r6
10004ff4:	d209      	bcs.n	1000500a <tu_fifo_read_n+0x4e>
10004ff6:	42b9      	cmp	r1, r7
10004ff8:	d254      	bcs.n	100050a4 <tu_fifo_read_n+0xe8>
10004ffa:	8963      	ldrh	r3, [r4, #10]
10004ffc:	18fb      	adds	r3, r7, r3
10004ffe:	1acb      	subs	r3, r1, r3
10005000:	b29b      	uxth	r3, r3
10005002:	003e      	movs	r6, r7
10005004:	8223      	strh	r3, [r4, #16]
10005006:	8a25      	ldrh	r5, [r4, #16]
10005008:	b2ad      	uxth	r5, r5
1000500a:	2e00      	cmp	r6, #0
1000500c:	d050      	beq.n	100050b0 <tu_fifo_read_n+0xf4>
1000500e:	464b      	mov	r3, r9
10005010:	45b1      	cmp	r9, r6
10005012:	d845      	bhi.n	100050a0 <tu_fifo_read_n+0xe4>
10005014:	b29e      	uxth	r6, r3
10005016:	42af      	cmp	r7, r5
10005018:	d803      	bhi.n	10005022 <tu_fifo_read_n+0x66>
1000501a:	1bed      	subs	r5, r5, r7
1000501c:	b2ad      	uxth	r5, r5
1000501e:	42af      	cmp	r7, r5
10005020:	d9fb      	bls.n	1000501a <tu_fifo_read_n+0x5e>
10005022:	88e3      	ldrh	r3, [r4, #6]
10005024:	1b78      	subs	r0, r7, r5
10005026:	0019      	movs	r1, r3
10005028:	4699      	mov	r9, r3
1000502a:	6823      	ldr	r3, [r4, #0]
1000502c:	4369      	muls	r1, r5
1000502e:	469c      	mov	ip, r3
10005030:	b280      	uxth	r0, r0
10005032:	4461      	add	r1, ip
10005034:	4286      	cmp	r6, r0
10005036:	d925      	bls.n	10005084 <tu_fifo_read_n+0xc8>
10005038:	464b      	mov	r3, r9
1000503a:	4358      	muls	r0, r3
1000503c:	b283      	uxth	r3, r0
1000503e:	001a      	movs	r2, r3
10005040:	4640      	mov	r0, r8
10005042:	469a      	mov	sl, r3
10005044:	f7fd fbd8 	bl	100027f8 <__wrap___aeabi_memcpy>
10005048:	464b      	mov	r3, r9
1000504a:	4640      	mov	r0, r8
1000504c:	1bf7      	subs	r7, r6, r7
1000504e:	19ed      	adds	r5, r5, r7
10005050:	435d      	muls	r5, r3
10005052:	6821      	ldr	r1, [r4, #0]
10005054:	b2aa      	uxth	r2, r5
10005056:	4450      	add	r0, sl
10005058:	f7fd fbce 	bl	100027f8 <__wrap___aeabi_memcpy>
1000505c:	8a22      	ldrh	r2, [r4, #16]
1000505e:	1993      	adds	r3, r2, r6
10005060:	b29b      	uxth	r3, r3
10005062:	429a      	cmp	r2, r3
10005064:	d918      	bls.n	10005098 <tu_fifo_read_n+0xdc>
10005066:	8962      	ldrh	r2, [r4, #10]
10005068:	189b      	adds	r3, r3, r2
1000506a:	b29b      	uxth	r3, r3
1000506c:	69a0      	ldr	r0, [r4, #24]
1000506e:	8223      	strh	r3, [r4, #16]
10005070:	2800      	cmp	r0, #0
10005072:	d001      	beq.n	10005078 <tu_fifo_read_n+0xbc>
10005074:	f000 fa2c 	bl	100054d0 <__mutex_exit_veneer>
10005078:	0030      	movs	r0, r6
1000507a:	bc1c      	pop	{r2, r3, r4}
1000507c:	4690      	mov	r8, r2
1000507e:	4699      	mov	r9, r3
10005080:	46a2      	mov	sl, r4
10005082:	bdf0      	pop	{r4, r5, r6, r7, pc}
10005084:	464a      	mov	r2, r9
10005086:	4640      	mov	r0, r8
10005088:	4372      	muls	r2, r6
1000508a:	f7fd fbb5 	bl	100027f8 <__wrap___aeabi_memcpy>
1000508e:	8a22      	ldrh	r2, [r4, #16]
10005090:	1993      	adds	r3, r2, r6
10005092:	b29b      	uxth	r3, r3
10005094:	429a      	cmp	r2, r3
10005096:	d8e6      	bhi.n	10005066 <tu_fifo_read_n+0xaa>
10005098:	89a2      	ldrh	r2, [r4, #12]
1000509a:	429a      	cmp	r2, r3
1000509c:	d2e6      	bcs.n	1000506c <tu_fifo_read_n+0xb0>
1000509e:	e7e2      	b.n	10005066 <tu_fifo_read_n+0xaa>
100050a0:	1c33      	adds	r3, r6, #0
100050a2:	e7b7      	b.n	10005014 <tu_fifo_read_n+0x58>
100050a4:	1bcb      	subs	r3, r1, r7
100050a6:	89a2      	ldrh	r2, [r4, #12]
100050a8:	b29b      	uxth	r3, r3
100050aa:	429a      	cmp	r2, r3
100050ac:	d2a9      	bcs.n	10005002 <tu_fifo_read_n+0x46>
100050ae:	e7a4      	b.n	10004ffa <tu_fifo_read_n+0x3e>
100050b0:	8a23      	ldrh	r3, [r4, #16]
100050b2:	89a2      	ldrh	r2, [r4, #12]
100050b4:	b29b      	uxth	r3, r3
100050b6:	429a      	cmp	r2, r3
100050b8:	d2d8      	bcs.n	1000506c <tu_fifo_read_n+0xb0>
100050ba:	e7d4      	b.n	10005066 <tu_fifo_read_n+0xaa>

100050bc <tu_fifo_write>:
100050bc:	b5f8      	push	{r3, r4, r5, r6, r7, lr}
100050be:	0004      	movs	r4, r0
100050c0:	6940      	ldr	r0, [r0, #20]
100050c2:	000e      	movs	r6, r1
100050c4:	2800      	cmp	r0, #0
100050c6:	d003      	beq.n	100050d0 <tu_fifo_write+0x14>
100050c8:	2101      	movs	r1, #1
100050ca:	4249      	negs	r1, r1
100050cc:	f000 fa20 	bl	10005510 <__mutex_enter_timeout_ms_veneer>
100050d0:	89e2      	ldrh	r2, [r4, #14]
100050d2:	8a21      	ldrh	r1, [r4, #16]
100050d4:	b295      	uxth	r5, r2
100050d6:	1a53      	subs	r3, r2, r1
100050d8:	b29b      	uxth	r3, r3
100050da:	4291      	cmp	r1, r2
100050dc:	d902      	bls.n	100050e4 <tu_fifo_write+0x28>
100050de:	8962      	ldrh	r2, [r4, #10]
100050e0:	1a9b      	subs	r3, r3, r2
100050e2:	b29b      	uxth	r3, r3
100050e4:	88a2      	ldrh	r2, [r4, #4]
100050e6:	429a      	cmp	r2, r3
100050e8:	d021      	beq.n	1000512e <tu_fifo_write+0x72>
100050ea:	002b      	movs	r3, r5
100050ec:	4295      	cmp	r5, r2
100050ee:	d303      	bcc.n	100050f8 <tu_fifo_write+0x3c>
100050f0:	1a9b      	subs	r3, r3, r2
100050f2:	b29b      	uxth	r3, r3
100050f4:	429a      	cmp	r2, r3
100050f6:	d9fb      	bls.n	100050f0 <tu_fifo_write+0x34>
100050f8:	88e2      	ldrh	r2, [r4, #6]
100050fa:	6821      	ldr	r1, [r4, #0]
100050fc:	4353      	muls	r3, r2
100050fe:	18c8      	adds	r0, r1, r3
10005100:	0031      	movs	r1, r6
10005102:	f7fd fb79 	bl	100027f8 <__wrap___aeabi_memcpy>
10005106:	1c6b      	adds	r3, r5, #1
10005108:	b29b      	uxth	r3, r3
1000510a:	429d      	cmp	r5, r3
1000510c:	d90b      	bls.n	10005126 <tu_fifo_write+0x6a>
1000510e:	8962      	ldrh	r2, [r4, #10]
10005110:	189b      	adds	r3, r3, r2
10005112:	b29b      	uxth	r3, r3
10005114:	6960      	ldr	r0, [r4, #20]
10005116:	2701      	movs	r7, #1
10005118:	81e3      	strh	r3, [r4, #14]
1000511a:	2800      	cmp	r0, #0
1000511c:	d001      	beq.n	10005122 <tu_fifo_write+0x66>
1000511e:	f000 f9d7 	bl	100054d0 <__mutex_exit_veneer>
10005122:	0038      	movs	r0, r7
10005124:	bdf8      	pop	{r3, r4, r5, r6, r7, pc}
10005126:	89a2      	ldrh	r2, [r4, #12]
10005128:	429a      	cmp	r2, r3
1000512a:	d2f3      	bcs.n	10005114 <tu_fifo_write+0x58>
1000512c:	e7ef      	b.n	1000510e <tu_fifo_write+0x52>
1000512e:	7a27      	ldrb	r7, [r4, #8]
10005130:	2f00      	cmp	r7, #0
10005132:	d1da      	bne.n	100050ea <tu_fifo_write+0x2e>
10005134:	e7f5      	b.n	10005122 <tu_fifo_write+0x66>
10005136:	46c0      	nop			; (mov r8, r8)

10005138 <tu_fifo_write_n>:
10005138:	b5f8      	push	{r3, r4, r5, r6, r7, lr}
1000513a:	4645      	mov	r5, r8
1000513c:	46de      	mov	lr, fp
1000513e:	4657      	mov	r7, sl
10005140:	464e      	mov	r6, r9
10005142:	0004      	movs	r4, r0
10005144:	b5e0      	push	{r5, r6, r7, lr}
10005146:	4688      	mov	r8, r1
10005148:	1e15      	subs	r5, r2, #0
1000514a:	d05a      	beq.n	10005202 <tu_fifo_write_n+0xca>
1000514c:	6940      	ldr	r0, [r0, #20]
1000514e:	2800      	cmp	r0, #0
10005150:	d003      	beq.n	1000515a <tu_fifo_write_n+0x22>
10005152:	2101      	movs	r1, #1
10005154:	4249      	negs	r1, r1
10005156:	f000 f9db 	bl	10005510 <__mutex_enter_timeout_ms_veneer>
1000515a:	89e7      	ldrh	r7, [r4, #14]
1000515c:	7a23      	ldrb	r3, [r4, #8]
1000515e:	8a22      	ldrh	r2, [r4, #16]
10005160:	b2bf      	uxth	r7, r7
10005162:	b292      	uxth	r2, r2
10005164:	2b00      	cmp	r3, #0
10005166:	d13b      	bne.n	100051e0 <tu_fifo_write_n+0xa8>
10005168:	1ab9      	subs	r1, r7, r2
1000516a:	88a3      	ldrh	r3, [r4, #4]
1000516c:	b289      	uxth	r1, r1
1000516e:	4297      	cmp	r7, r2
10005170:	d202      	bcs.n	10005178 <tu_fifo_write_n+0x40>
10005172:	8962      	ldrh	r2, [r4, #10]
10005174:	1a89      	subs	r1, r1, r2
10005176:	b289      	uxth	r1, r1
10005178:	1a59      	subs	r1, r3, r1
1000517a:	1c0a      	adds	r2, r1, #0
1000517c:	b289      	uxth	r1, r1
1000517e:	42a9      	cmp	r1, r5
10005180:	d853      	bhi.n	1000522a <tu_fifo_write_n+0xf2>
10005182:	b295      	uxth	r5, r2
10005184:	88e2      	ldrh	r2, [r4, #6]
10005186:	1aee      	subs	r6, r5, r3
10005188:	4692      	mov	sl, r2
1000518a:	b2b2      	uxth	r2, r6
1000518c:	4691      	mov	r9, r2
1000518e:	003e      	movs	r6, r7
10005190:	429f      	cmp	r7, r3
10005192:	d303      	bcc.n	1000519c <tu_fifo_write_n+0x64>
10005194:	1af6      	subs	r6, r6, r3
10005196:	b2b6      	uxth	r6, r6
10005198:	429e      	cmp	r6, r3
1000519a:	d2fb      	bcs.n	10005194 <tu_fifo_write_n+0x5c>
1000519c:	4650      	mov	r0, sl
1000519e:	6822      	ldr	r2, [r4, #0]
100051a0:	4370      	muls	r0, r6
100051a2:	4694      	mov	ip, r2
100051a4:	1b9b      	subs	r3, r3, r6
100051a6:	b29b      	uxth	r3, r3
100051a8:	4652      	mov	r2, sl
100051aa:	4460      	add	r0, ip
100051ac:	429d      	cmp	r5, r3
100051ae:	d82a      	bhi.n	10005206 <tu_fifo_write_n+0xce>
100051b0:	4641      	mov	r1, r8
100051b2:	436a      	muls	r2, r5
100051b4:	f7fd fb20 	bl	100027f8 <__wrap___aeabi_memcpy>
100051b8:	19eb      	adds	r3, r5, r7
100051ba:	b29b      	uxth	r3, r3
100051bc:	429f      	cmp	r7, r3
100051be:	d81c      	bhi.n	100051fa <tu_fifo_write_n+0xc2>
100051c0:	89a2      	ldrh	r2, [r4, #12]
100051c2:	429a      	cmp	r2, r3
100051c4:	d319      	bcc.n	100051fa <tu_fifo_write_n+0xc2>
100051c6:	6960      	ldr	r0, [r4, #20]
100051c8:	81e3      	strh	r3, [r4, #14]
100051ca:	2800      	cmp	r0, #0
100051cc:	d001      	beq.n	100051d2 <tu_fifo_write_n+0x9a>
100051ce:	f000 f97f 	bl	100054d0 <__mutex_exit_veneer>
100051d2:	0028      	movs	r0, r5
100051d4:	bc3c      	pop	{r2, r3, r4, r5}
100051d6:	4690      	mov	r8, r2
100051d8:	4699      	mov	r9, r3
100051da:	46a2      	mov	sl, r4
100051dc:	46ab      	mov	fp, r5
100051de:	bdf8      	pop	{r3, r4, r5, r6, r7, pc}
100051e0:	88a3      	ldrh	r3, [r4, #4]
100051e2:	429d      	cmp	r5, r3
100051e4:	d3ce      	bcc.n	10005184 <tu_fifo_write_n+0x4c>
100051e6:	0017      	movs	r7, r2
100051e8:	2200      	movs	r2, #0
100051ea:	88e1      	ldrh	r1, [r4, #6]
100051ec:	1aed      	subs	r5, r5, r3
100051ee:	434d      	muls	r5, r1
100051f0:	468a      	mov	sl, r1
100051f2:	44a8      	add	r8, r5
100051f4:	4691      	mov	r9, r2
100051f6:	001d      	movs	r5, r3
100051f8:	e7c9      	b.n	1000518e <tu_fifo_write_n+0x56>
100051fa:	8962      	ldrh	r2, [r4, #10]
100051fc:	189b      	adds	r3, r3, r2
100051fe:	b29b      	uxth	r3, r3
10005200:	e7e1      	b.n	100051c6 <tu_fifo_write_n+0x8e>
10005202:	2500      	movs	r5, #0
10005204:	e7e5      	b.n	100051d2 <tu_fifo_write_n+0x9a>
10005206:	4353      	muls	r3, r2
10005208:	b29b      	uxth	r3, r3
1000520a:	001a      	movs	r2, r3
1000520c:	4641      	mov	r1, r8
1000520e:	469b      	mov	fp, r3
10005210:	f7fd faf2 	bl	100027f8 <__wrap___aeabi_memcpy>
10005214:	0032      	movs	r2, r6
10005216:	4653      	mov	r3, sl
10005218:	4641      	mov	r1, r8
1000521a:	444a      	add	r2, r9
1000521c:	435a      	muls	r2, r3
1000521e:	6820      	ldr	r0, [r4, #0]
10005220:	b292      	uxth	r2, r2
10005222:	4459      	add	r1, fp
10005224:	f7fd fae8 	bl	100027f8 <__wrap___aeabi_memcpy>
10005228:	e7c6      	b.n	100051b8 <tu_fifo_write_n+0x80>
1000522a:	1c2a      	adds	r2, r5, #0
1000522c:	b295      	uxth	r5, r2
1000522e:	e7a9      	b.n	10005184 <tu_fifo_write_n+0x4c>

10005230 <tu_fifo_clear>:
10005230:	b510      	push	{r4, lr}
10005232:	0004      	movs	r4, r0
10005234:	6940      	ldr	r0, [r0, #20]
10005236:	2800      	cmp	r0, #0
10005238:	d003      	beq.n	10005242 <tu_fifo_clear+0x12>
1000523a:	2101      	movs	r1, #1
1000523c:	4249      	negs	r1, r1
1000523e:	f000 f967 	bl	10005510 <__mutex_enter_timeout_ms_veneer>
10005242:	69a0      	ldr	r0, [r4, #24]
10005244:	2800      	cmp	r0, #0
10005246:	d003      	beq.n	10005250 <tu_fifo_clear+0x20>
10005248:	2101      	movs	r1, #1
1000524a:	4249      	negs	r1, r1
1000524c:	f000 f960 	bl	10005510 <__mutex_enter_timeout_ms_veneer>
10005250:	2300      	movs	r3, #0
10005252:	81e3      	strh	r3, [r4, #14]
10005254:	8223      	strh	r3, [r4, #16]
10005256:	88a3      	ldrh	r3, [r4, #4]
10005258:	6960      	ldr	r0, [r4, #20]
1000525a:	005b      	lsls	r3, r3, #1
1000525c:	b29b      	uxth	r3, r3
1000525e:	1e5a      	subs	r2, r3, #1
10005260:	425b      	negs	r3, r3
10005262:	81a2      	strh	r2, [r4, #12]
10005264:	8163      	strh	r3, [r4, #10]
10005266:	2800      	cmp	r0, #0
10005268:	d001      	beq.n	1000526e <tu_fifo_clear+0x3e>
1000526a:	f000 f931 	bl	100054d0 <__mutex_exit_veneer>
1000526e:	69a0      	ldr	r0, [r4, #24]
10005270:	2800      	cmp	r0, #0
10005272:	d001      	beq.n	10005278 <tu_fifo_clear+0x48>
10005274:	f000 f92c 	bl	100054d0 <__mutex_exit_veneer>
10005278:	2001      	movs	r0, #1
1000527a:	bd10      	pop	{r4, pc}

1000527c <hw_enumeration_fix_force_ls_j_done>:
1000527c:	2180      	movs	r1, #128	; 0x80
1000527e:	4a0b      	ldr	r2, [pc, #44]	; (100052ac <hw_enumeration_fix_force_ls_j_done+0x30>)
10005280:	0249      	lsls	r1, r1, #9
10005282:	6d13      	ldr	r3, [r2, #80]	; 0x50
10005284:	420b      	tst	r3, r1
10005286:	d0fc      	beq.n	10005282 <hw_enumeration_fix_force_ls_j_done+0x6>
10005288:	2309      	movs	r3, #9
1000528a:	2104      	movs	r1, #4
1000528c:	6753      	str	r3, [r2, #116]	; 0x74
1000528e:	4a08      	ldr	r2, [pc, #32]	; (100052b0 <hw_enumeration_fix_force_ls_j_done+0x34>)
10005290:	3377      	adds	r3, #119	; 0x77
10005292:	50d1      	str	r1, [r2, r3]
10005294:	4b07      	ldr	r3, [pc, #28]	; (100052b4 <hw_enumeration_fix_force_ls_j_done+0x38>)
10005296:	2000      	movs	r0, #0
10005298:	681a      	ldr	r2, [r3, #0]
1000529a:	4b07      	ldr	r3, [pc, #28]	; (100052b8 <hw_enumeration_fix_force_ls_j_done+0x3c>)
1000529c:	2100      	movs	r1, #0
1000529e:	67da      	str	r2, [r3, #124]	; 0x7c
100052a0:	4b06      	ldr	r3, [pc, #24]	; (100052bc <hw_enumeration_fix_force_ls_j_done+0x40>)
100052a2:	681a      	ldr	r2, [r3, #0]
100052a4:	4b06      	ldr	r3, [pc, #24]	; (100052c0 <hw_enumeration_fix_force_ls_j_done+0x44>)
100052a6:	641a      	str	r2, [r3, #64]	; 0x40
100052a8:	4770      	bx	lr
100052aa:	46c0      	nop			; (mov r8, r8)
100052ac:	50110000 	.word	0x50110000
100052b0:	50113000 	.word	0x50113000
100052b4:	2000060c 	.word	0x2000060c
100052b8:	40014000 	.word	0x40014000
100052bc:	20000a18 	.word	0x20000a18
100052c0:	4001c000 	.word	0x4001c000

100052c4 <hw_enumeration_fix_force_ls_j>:
100052c4:	b5f0      	push	{r4, r5, r6, r7, lr}
100052c6:	46c6      	mov	lr, r8
100052c8:	b500      	push	{lr}
100052ca:	2010      	movs	r0, #16
100052cc:	b084      	sub	sp, #16
100052ce:	f7fb fa63 	bl	10000798 <gpio_get_function>
100052d2:	2808      	cmp	r0, #8
100052d4:	d069      	beq.n	100053aa <hw_enumeration_fix_force_ls_j+0xe6>
100052d6:	4b36      	ldr	r3, [pc, #216]	; (100053b0 <hw_enumeration_fix_force_ls_j+0xec>)
100052d8:	4f36      	ldr	r7, [pc, #216]	; (100053b4 <hw_enumeration_fix_force_ls_j+0xf0>)
100052da:	6fdb      	ldr	r3, [r3, #124]	; 0x7c
100052dc:	4e36      	ldr	r6, [pc, #216]	; (100053b8 <hw_enumeration_fix_force_ls_j+0xf4>)
100052de:	603b      	str	r3, [r7, #0]
100052e0:	4b36      	ldr	r3, [pc, #216]	; (100053bc <hw_enumeration_fix_force_ls_j+0xf8>)
100052e2:	2201      	movs	r2, #1
100052e4:	6c1b      	ldr	r3, [r3, #64]	; 0x40
100052e6:	2101      	movs	r1, #1
100052e8:	200f      	movs	r0, #15
100052ea:	6033      	str	r3, [r6, #0]
100052ec:	f7fb fa5e 	bl	100007ac <gpio_set_pulls>
100052f0:	2102      	movs	r1, #2
100052f2:	200f      	movs	r0, #15
100052f4:	f7fb fa84 	bl	10000800 <gpio_set_oeover>
100052f8:	2208      	movs	r2, #8
100052fa:	4b31      	ldr	r3, [pc, #196]	; (100053c0 <hw_enumeration_fix_force_ls_j+0xfc>)
100052fc:	2103      	movs	r1, #3
100052fe:	681b      	ldr	r3, [r3, #0]
10005300:	200f      	movs	r0, #15
10005302:	405a      	eors	r2, r3
10005304:	231f      	movs	r3, #31
10005306:	4013      	ands	r3, r2
10005308:	4a2e      	ldr	r2, [pc, #184]	; (100053c4 <hw_enumeration_fix_force_ls_j+0x100>)
1000530a:	6013      	str	r3, [r2, #0]
1000530c:	f7fb fa66 	bl	100007dc <gpio_set_inover>
10005310:	2202      	movs	r2, #2
10005312:	2104      	movs	r1, #4
10005314:	4b2c      	ldr	r3, [pc, #176]	; (100053c8 <hw_enumeration_fix_force_ls_j+0x104>)
10005316:	67da      	str	r2, [r3, #124]	; 0x7c
10005318:	327e      	adds	r2, #126	; 0x7e
1000531a:	5099      	str	r1, [r3, r2]
1000531c:	4b2b      	ldr	r3, [pc, #172]	; (100053cc <hw_enumeration_fix_force_ls_j+0x108>)
1000531e:	3a74      	subs	r2, #116	; 0x74
10005320:	675a      	str	r2, [r3, #116]	; 0x74
10005322:	6d1b      	ldr	r3, [r3, #80]	; 0x50
10005324:	071b      	lsls	r3, r3, #28
10005326:	0f9b      	lsrs	r3, r3, #30
10005328:	2b01      	cmp	r3, #1
1000532a:	d13b      	bne.n	100053a4 <hw_enumeration_fix_force_ls_j+0xe0>
1000532c:	f7fb fe14 	bl	10000f58 <alarm_pool_get_default>
10005330:	4680      	mov	r8, r0
10005332:	f7fb ffbd 	bl	100012b0 <time_us_64>
10005336:	22fa      	movs	r2, #250	; 0xfa
10005338:	0004      	movs	r4, r0
1000533a:	000d      	movs	r5, r1
1000533c:	2300      	movs	r3, #0
1000533e:	0092      	lsls	r2, r2, #2
10005340:	1912      	adds	r2, r2, r4
10005342:	416b      	adcs	r3, r5
10005344:	4299      	cmp	r1, r3
10005346:	d811      	bhi.n	1000536c <hw_enumeration_fix_force_ls_j+0xa8>
10005348:	d00e      	beq.n	10005368 <hw_enumeration_fix_force_ls_j+0xa4>
1000534a:	2101      	movs	r1, #1
1000534c:	9102      	str	r1, [sp, #8]
1000534e:	2100      	movs	r1, #0
10005350:	9101      	str	r1, [sp, #4]
10005352:	491f      	ldr	r1, [pc, #124]	; (100053d0 <hw_enumeration_fix_force_ls_j+0x10c>)
10005354:	4640      	mov	r0, r8
10005356:	9100      	str	r1, [sp, #0]
10005358:	f7fb fe02 	bl	10000f60 <alarm_pool_add_alarm_at>
1000535c:	2800      	cmp	r0, #0
1000535e:	db09      	blt.n	10005374 <hw_enumeration_fix_force_ls_j+0xb0>
10005360:	b004      	add	sp, #16
10005362:	bc04      	pop	{r2}
10005364:	4690      	mov	r8, r2
10005366:	bdf0      	pop	{r4, r5, r6, r7, pc}
10005368:	4290      	cmp	r0, r2
1000536a:	d9ee      	bls.n	1000534a <hw_enumeration_fix_force_ls_j+0x86>
1000536c:	2201      	movs	r2, #1
1000536e:	4252      	negs	r2, r2
10005370:	17d3      	asrs	r3, r2, #31
10005372:	e7ea      	b.n	1000534a <hw_enumeration_fix_force_ls_j+0x86>
10005374:	20fa      	movs	r0, #250	; 0xfa
10005376:	2100      	movs	r1, #0
10005378:	0080      	lsls	r0, r0, #2
1000537a:	f7fb ffa3 	bl	100012c4 <busy_wait_us>
1000537e:	2180      	movs	r1, #128	; 0x80
10005380:	4a12      	ldr	r2, [pc, #72]	; (100053cc <hw_enumeration_fix_force_ls_j+0x108>)
10005382:	0249      	lsls	r1, r1, #9
10005384:	6d13      	ldr	r3, [r2, #80]	; 0x50
10005386:	420b      	tst	r3, r1
10005388:	d0fc      	beq.n	10005384 <hw_enumeration_fix_force_ls_j+0xc0>
1000538a:	2309      	movs	r3, #9
1000538c:	2104      	movs	r1, #4
1000538e:	6753      	str	r3, [r2, #116]	; 0x74
10005390:	4a10      	ldr	r2, [pc, #64]	; (100053d4 <hw_enumeration_fix_force_ls_j+0x110>)
10005392:	3377      	adds	r3, #119	; 0x77
10005394:	50d1      	str	r1, [r2, r3]
10005396:	683a      	ldr	r2, [r7, #0]
10005398:	4b05      	ldr	r3, [pc, #20]	; (100053b0 <hw_enumeration_fix_force_ls_j+0xec>)
1000539a:	67da      	str	r2, [r3, #124]	; 0x7c
1000539c:	6832      	ldr	r2, [r6, #0]
1000539e:	4b07      	ldr	r3, [pc, #28]	; (100053bc <hw_enumeration_fix_force_ls_j+0xf8>)
100053a0:	641a      	str	r2, [r3, #64]	; 0x40
100053a2:	e7dd      	b.n	10005360 <hw_enumeration_fix_force_ls_j+0x9c>
100053a4:	f7fc fb46 	bl	10001a34 <hard_assertion_failure>
100053a8:	e7c0      	b.n	1000532c <hw_enumeration_fix_force_ls_j+0x68>
100053aa:	480b      	ldr	r0, [pc, #44]	; (100053d8 <hw_enumeration_fix_force_ls_j+0x114>)
100053ac:	f7fc fb2a 	bl	10001a04 <panic>
100053b0:	40014000 	.word	0x40014000
100053b4:	2000060c 	.word	0x2000060c
100053b8:	20000a18 	.word	0x20000a18
100053bc:	4001c000 	.word	0x4001c000
100053c0:	4001407c 	.word	0x4001407c
100053c4:	4001507c 	.word	0x4001507c
100053c8:	50112000 	.word	0x50112000
100053cc:	50110000 	.word	0x50110000
100053d0:	1000527d 	.word	0x1000527d
100053d4:	50113000 	.word	0x50113000
100053d8:	10005900 	.word	0x10005900

100053dc <hw_enumeration_fix_wait_se0_callback>:
100053dc:	4b07      	ldr	r3, [pc, #28]	; (100053fc <hw_enumeration_fix_wait_se0_callback+0x20>)
100053de:	b510      	push	{r4, lr}
100053e0:	6d1b      	ldr	r3, [r3, #80]	; 0x50
100053e2:	071b      	lsls	r3, r3, #28
100053e4:	0f9b      	lsrs	r3, r3, #30
100053e6:	d103      	bne.n	100053f0 <hw_enumeration_fix_wait_se0_callback+0x14>
100053e8:	20fa      	movs	r0, #250	; 0xfa
100053ea:	2100      	movs	r1, #0
100053ec:	0080      	lsls	r0, r0, #2
100053ee:	bd10      	pop	{r4, pc}
100053f0:	f7ff ff68 	bl	100052c4 <hw_enumeration_fix_force_ls_j>
100053f4:	2000      	movs	r0, #0
100053f6:	2100      	movs	r1, #0
100053f8:	e7f9      	b.n	100053ee <hw_enumeration_fix_wait_se0_callback+0x12>
100053fa:	46c0      	nop			; (mov r8, r8)
100053fc:	50110000 	.word	0x50110000

10005400 <rp2040_usb_device_enumeration_fix>:
10005400:	b570      	push	{r4, r5, r6, lr}
10005402:	b084      	sub	sp, #16
10005404:	f7fb faa6 	bl	10000954 <rp2040_chip_version>
10005408:	2801      	cmp	r0, #1
1000540a:	d001      	beq.n	10005410 <rp2040_usb_device_enumeration_fix+0x10>
1000540c:	b004      	add	sp, #16
1000540e:	bd70      	pop	{r4, r5, r6, pc}
10005410:	f7fb fda2 	bl	10000f58 <alarm_pool_get_default>
10005414:	0006      	movs	r6, r0
10005416:	f7fb ff4b 	bl	100012b0 <time_us_64>
1000541a:	22fa      	movs	r2, #250	; 0xfa
1000541c:	0004      	movs	r4, r0
1000541e:	000d      	movs	r5, r1
10005420:	2300      	movs	r3, #0
10005422:	0092      	lsls	r2, r2, #2
10005424:	1912      	adds	r2, r2, r4
10005426:	416b      	adcs	r3, r5
10005428:	4299      	cmp	r1, r3
1000542a:	d816      	bhi.n	1000545a <rp2040_usb_device_enumeration_fix+0x5a>
1000542c:	d013      	beq.n	10005456 <rp2040_usb_device_enumeration_fix+0x56>
1000542e:	2101      	movs	r1, #1
10005430:	9102      	str	r1, [sp, #8]
10005432:	2100      	movs	r1, #0
10005434:	9101      	str	r1, [sp, #4]
10005436:	490b      	ldr	r1, [pc, #44]	; (10005464 <rp2040_usb_device_enumeration_fix+0x64>)
10005438:	0030      	movs	r0, r6
1000543a:	9100      	str	r1, [sp, #0]
1000543c:	f7fb fd90 	bl	10000f60 <alarm_pool_add_alarm_at>
10005440:	2800      	cmp	r0, #0
10005442:	dae3      	bge.n	1000540c <rp2040_usb_device_enumeration_fix+0xc>
10005444:	2203      	movs	r2, #3
10005446:	4908      	ldr	r1, [pc, #32]	; (10005468 <rp2040_usb_device_enumeration_fix+0x68>)
10005448:	6d0b      	ldr	r3, [r1, #80]	; 0x50
1000544a:	089b      	lsrs	r3, r3, #2
1000544c:	421a      	tst	r2, r3
1000544e:	d0fb      	beq.n	10005448 <rp2040_usb_device_enumeration_fix+0x48>
10005450:	f7ff ff38 	bl	100052c4 <hw_enumeration_fix_force_ls_j>
10005454:	e7da      	b.n	1000540c <rp2040_usb_device_enumeration_fix+0xc>
10005456:	4290      	cmp	r0, r2
10005458:	d9e9      	bls.n	1000542e <rp2040_usb_device_enumeration_fix+0x2e>
1000545a:	2201      	movs	r2, #1
1000545c:	4252      	negs	r2, r2
1000545e:	17d3      	asrs	r3, r2, #31
10005460:	e7e5      	b.n	1000542e <rp2040_usb_device_enumeration_fix+0x2e>
10005462:	46c0      	nop			; (mov r8, r8)
10005464:	100053dd 	.word	0x100053dd
10005468:	50110000 	.word	0x50110000

1000546c <strlen>:
1000546c:	b510      	push	{r4, lr}
1000546e:	0783      	lsls	r3, r0, #30
10005470:	d00a      	beq.n	10005488 <strlen+0x1c>
10005472:	0003      	movs	r3, r0
10005474:	2103      	movs	r1, #3
10005476:	e002      	b.n	1000547e <strlen+0x12>
10005478:	3301      	adds	r3, #1
1000547a:	420b      	tst	r3, r1
1000547c:	d005      	beq.n	1000548a <strlen+0x1e>
1000547e:	781a      	ldrb	r2, [r3, #0]
10005480:	2a00      	cmp	r2, #0
10005482:	d1f9      	bne.n	10005478 <strlen+0xc>
10005484:	1a18      	subs	r0, r3, r0
10005486:	bd10      	pop	{r4, pc}
10005488:	0003      	movs	r3, r0
1000548a:	6819      	ldr	r1, [r3, #0]
1000548c:	4a0c      	ldr	r2, [pc, #48]	; (100054c0 <strlen+0x54>)
1000548e:	4c0d      	ldr	r4, [pc, #52]	; (100054c4 <strlen+0x58>)
10005490:	188a      	adds	r2, r1, r2
10005492:	438a      	bics	r2, r1
10005494:	4222      	tst	r2, r4
10005496:	d10f      	bne.n	100054b8 <strlen+0x4c>
10005498:	6859      	ldr	r1, [r3, #4]
1000549a:	4a09      	ldr	r2, [pc, #36]	; (100054c0 <strlen+0x54>)
1000549c:	3304      	adds	r3, #4
1000549e:	188a      	adds	r2, r1, r2
100054a0:	438a      	bics	r2, r1
100054a2:	4222      	tst	r2, r4
100054a4:	d108      	bne.n	100054b8 <strlen+0x4c>
100054a6:	6859      	ldr	r1, [r3, #4]
100054a8:	4a05      	ldr	r2, [pc, #20]	; (100054c0 <strlen+0x54>)
100054aa:	3304      	adds	r3, #4
100054ac:	188a      	adds	r2, r1, r2
100054ae:	438a      	bics	r2, r1
100054b0:	4222      	tst	r2, r4
100054b2:	d0f1      	beq.n	10005498 <strlen+0x2c>
100054b4:	e000      	b.n	100054b8 <strlen+0x4c>
100054b6:	3301      	adds	r3, #1
100054b8:	781a      	ldrb	r2, [r3, #0]
100054ba:	2a00      	cmp	r2, #0
100054bc:	d1fb      	bne.n	100054b6 <strlen+0x4a>
100054be:	e7e1      	b.n	10005484 <strlen+0x18>
100054c0:	fefefeff 	.word	0xfefefeff
100054c4:	80808080 	.word	0x80808080

100054c8 <_fini>:
100054c8:	b5f8      	push	{r3, r4, r5, r6, r7, lr}
100054ca:	46c0      	nop			; (mov r8, r8)
100054cc:	0000      	movs	r0, r0
	...

100054d0 <__mutex_exit_veneer>:
100054d0:	b401      	push	{r0}
100054d2:	4802      	ldr	r0, [pc, #8]	; (100054dc <__mutex_exit_veneer+0xc>)
100054d4:	4684      	mov	ip, r0
100054d6:	bc01      	pop	{r0}
100054d8:	4760      	bx	ip
100054da:	bf00      	nop
100054dc:	200001e9 	.word	0x200001e9

100054e0 <____aeabi_ldiv0_veneer>:
100054e0:	b401      	push	{r0}
100054e2:	4802      	ldr	r0, [pc, #8]	; (100054ec <____aeabi_ldiv0_veneer+0xc>)
100054e4:	4684      	mov	ip, r0
100054e6:	bc01      	pop	{r0}
100054e8:	4760      	bx	ip
100054ea:	bf00      	nop
100054ec:	20000211 	.word	0x20000211

100054f0 <____aeabi_idiv0_veneer>:
100054f0:	b401      	push	{r0}
100054f2:	4802      	ldr	r0, [pc, #8]	; (100054fc <____aeabi_idiv0_veneer+0xc>)
100054f4:	4684      	mov	ip, r0
100054f6:	bc01      	pop	{r0}
100054f8:	4760      	bx	ip
100054fa:	bf00      	nop
100054fc:	20000211 	.word	0x20000211

10005500 <__mutex_try_enter_veneer>:
10005500:	b401      	push	{r0}
10005502:	4802      	ldr	r0, [pc, #8]	; (1000550c <__mutex_try_enter_veneer+0xc>)
10005504:	4684      	mov	ip, r0
10005506:	bc01      	pop	{r0}
10005508:	4760      	bx	ip
1000550a:	bf00      	nop
1000550c:	20000109 	.word	0x20000109

10005510 <__mutex_enter_timeout_ms_veneer>:
10005510:	b401      	push	{r0}
10005512:	4802      	ldr	r0, [pc, #8]	; (1000551c <__mutex_enter_timeout_ms_veneer+0xc>)
10005514:	4684      	mov	ip, r0
10005516:	bc01      	pop	{r0}
10005518:	4760      	bx	ip
1000551a:	bf00      	nop
1000551c:	20000151 	.word	0x20000151

10005520 <__mutex_enter_blocking_veneer>:
10005520:	b401      	push	{r0}
10005522:	4802      	ldr	r0, [pc, #8]	; (1000552c <__mutex_enter_blocking_veneer+0xc>)
10005524:	4684      	mov	ip, r0
10005526:	bc01      	pop	{r0}
10005528:	4760      	bx	ip
1000552a:	bf00      	nop
1000552c:	200000c1 	.word	0x200000c1

Disassembly of section .data:

200000c0 <mutex_enter_blocking>:
200000c0:	23d0      	movs	r3, #208	; 0xd0
200000c2:	b530      	push	{r4, r5, lr}
200000c4:	2500      	movs	r5, #0
200000c6:	061b      	lsls	r3, r3, #24
200000c8:	2400      	movs	r4, #0
200000ca:	575d      	ldrsb	r5, [r3, r5]
200000cc:	e006      	b.n	200000dc <mutex_enter_blocking+0x1c>
200000ce:	6803      	ldr	r3, [r0, #0]
200000d0:	f3bf 8f5f 	dmb	sy
200000d4:	601c      	str	r4, [r3, #0]
200000d6:	f381 8810 	msr	PRIMASK, r1
200000da:	bf20      	wfe
200000dc:	6802      	ldr	r2, [r0, #0]
200000de:	f3ef 8110 	mrs	r1, PRIMASK
200000e2:	b672      	cpsid	i
200000e4:	6813      	ldr	r3, [r2, #0]
200000e6:	2b00      	cmp	r3, #0
200000e8:	d0fc      	beq.n	200000e4 <mutex_enter_blocking+0x24>
200000ea:	f3bf 8f5f 	dmb	sy
200000ee:	7903      	ldrb	r3, [r0, #4]
200000f0:	2b7f      	cmp	r3, #127	; 0x7f
200000f2:	d9ec      	bls.n	200000ce <mutex_enter_blocking+0xe>
200000f4:	7105      	strb	r5, [r0, #4]
200000f6:	6803      	ldr	r3, [r0, #0]
200000f8:	f3bf 8f5f 	dmb	sy
200000fc:	2200      	movs	r2, #0
200000fe:	601a      	str	r2, [r3, #0]
20000100:	f381 8810 	msr	PRIMASK, r1
20000104:	bd30      	pop	{r4, r5, pc}
20000106:	46c0      	nop			; (mov r8, r8)

20000108 <mutex_try_enter>:
20000108:	0003      	movs	r3, r0
2000010a:	b510      	push	{r4, lr}
2000010c:	6800      	ldr	r0, [r0, #0]
2000010e:	f3ef 8410 	mrs	r4, PRIMASK
20000112:	b672      	cpsid	i
20000114:	6802      	ldr	r2, [r0, #0]
20000116:	2a00      	cmp	r2, #0
20000118:	d0fc      	beq.n	20000114 <mutex_try_enter+0xc>
2000011a:	f3bf 8f5f 	dmb	sy
2000011e:	2204      	movs	r2, #4
20000120:	569a      	ldrsb	r2, [r3, r2]
20000122:	2a00      	cmp	r2, #0
20000124:	db0b      	blt.n	2000013e <mutex_try_enter+0x36>
20000126:	2900      	cmp	r1, #0
20000128:	d00f      	beq.n	2000014a <mutex_try_enter+0x42>
2000012a:	2000      	movs	r0, #0
2000012c:	600a      	str	r2, [r1, #0]
2000012e:	681b      	ldr	r3, [r3, #0]
20000130:	f3bf 8f5f 	dmb	sy
20000134:	2200      	movs	r2, #0
20000136:	601a      	str	r2, [r3, #0]
20000138:	f384 8810 	msr	PRIMASK, r4
2000013c:	bd10      	pop	{r4, pc}
2000013e:	22d0      	movs	r2, #208	; 0xd0
20000140:	0612      	lsls	r2, r2, #24
20000142:	6812      	ldr	r2, [r2, #0]
20000144:	2001      	movs	r0, #1
20000146:	711a      	strb	r2, [r3, #4]
20000148:	e7f1      	b.n	2000012e <mutex_try_enter+0x26>
2000014a:	2000      	movs	r0, #0
2000014c:	e7ef      	b.n	2000012e <mutex_try_enter+0x26>
2000014e:	46c0      	nop			; (mov r8, r8)

20000150 <mutex_enter_timeout_ms>:
20000150:	b5f0      	push	{r4, r5, r6, r7, lr}
20000152:	46c6      	mov	lr, r8
20000154:	b500      	push	{lr}
20000156:	000c      	movs	r4, r1
20000158:	4680      	mov	r8, r0
2000015a:	f000 f865 	bl	20000228 <__time_us_64_veneer>
2000015e:	22fa      	movs	r2, #250	; 0xfa
20000160:	0006      	movs	r6, r0
20000162:	000f      	movs	r7, r1
20000164:	0020      	movs	r0, r4
20000166:	2300      	movs	r3, #0
20000168:	2100      	movs	r1, #0
2000016a:	0092      	lsls	r2, r2, #2
2000016c:	f000 f854 	bl	20000218 <____wrap___aeabi_lmul_veneer>
20000170:	1980      	adds	r0, r0, r6
20000172:	4179      	adcs	r1, r7
20000174:	0004      	movs	r4, r0
20000176:	000d      	movs	r5, r1
20000178:	428f      	cmp	r7, r1
2000017a:	d82f      	bhi.n	200001dc <mutex_enter_timeout_ms+0x8c>
2000017c:	d02c      	beq.n	200001d8 <mutex_enter_timeout_ms+0x88>
2000017e:	23d0      	movs	r3, #208	; 0xd0
20000180:	061b      	lsls	r3, r3, #24
20000182:	2600      	movs	r6, #0
20000184:	681f      	ldr	r7, [r3, #0]
20000186:	e00c      	b.n	200001a2 <mutex_enter_timeout_ms+0x52>
20000188:	4642      	mov	r2, r8
2000018a:	6812      	ldr	r2, [r2, #0]
2000018c:	f3bf 8f5f 	dmb	sy
20000190:	6016      	str	r6, [r2, #0]
20000192:	f383 8810 	msr	PRIMASK, r3
20000196:	0020      	movs	r0, r4
20000198:	0029      	movs	r1, r5
2000019a:	f000 f84d 	bl	20000238 <__best_effort_wfe_or_timeout_veneer>
2000019e:	2800      	cmp	r0, #0
200001a0:	d120      	bne.n	200001e4 <mutex_enter_timeout_ms+0x94>
200001a2:	4643      	mov	r3, r8
200001a4:	681a      	ldr	r2, [r3, #0]
200001a6:	f3ef 8310 	mrs	r3, PRIMASK
200001aa:	b672      	cpsid	i
200001ac:	6811      	ldr	r1, [r2, #0]
200001ae:	2900      	cmp	r1, #0
200001b0:	d0fc      	beq.n	200001ac <mutex_enter_timeout_ms+0x5c>
200001b2:	f3bf 8f5f 	dmb	sy
200001b6:	4642      	mov	r2, r8
200001b8:	7912      	ldrb	r2, [r2, #4]
200001ba:	2a7f      	cmp	r2, #127	; 0x7f
200001bc:	d9e4      	bls.n	20000188 <mutex_enter_timeout_ms+0x38>
200001be:	4642      	mov	r2, r8
200001c0:	7117      	strb	r7, [r2, #4]
200001c2:	6812      	ldr	r2, [r2, #0]
200001c4:	f3bf 8f5f 	dmb	sy
200001c8:	2100      	movs	r1, #0
200001ca:	6011      	str	r1, [r2, #0]
200001cc:	f383 8810 	msr	PRIMASK, r3
200001d0:	2001      	movs	r0, #1
200001d2:	bc04      	pop	{r2}
200001d4:	4690      	mov	r8, r2
200001d6:	bdf0      	pop	{r4, r5, r6, r7, pc}
200001d8:	4286      	cmp	r6, r0
200001da:	d9d0      	bls.n	2000017e <mutex_enter_timeout_ms+0x2e>
200001dc:	2401      	movs	r4, #1
200001de:	4264      	negs	r4, r4
200001e0:	17e5      	asrs	r5, r4, #31
200001e2:	e7cc      	b.n	2000017e <mutex_enter_timeout_ms+0x2e>
200001e4:	2000      	movs	r0, #0
200001e6:	e7f4      	b.n	200001d2 <mutex_enter_timeout_ms+0x82>

200001e8 <mutex_exit>:
200001e8:	6802      	ldr	r2, [r0, #0]
200001ea:	f3ef 8110 	mrs	r1, PRIMASK
200001ee:	b672      	cpsid	i
200001f0:	6813      	ldr	r3, [r2, #0]
200001f2:	2b00      	cmp	r3, #0
200001f4:	d0fc      	beq.n	200001f0 <mutex_exit+0x8>
200001f6:	f3bf 8f5f 	dmb	sy
200001fa:	23ff      	movs	r3, #255	; 0xff
200001fc:	7103      	strb	r3, [r0, #4]
200001fe:	6803      	ldr	r3, [r0, #0]
20000200:	f3bf 8f5f 	dmb	sy
20000204:	2200      	movs	r2, #0
20000206:	601a      	str	r2, [r3, #0]
20000208:	f381 8810 	msr	PRIMASK, r1
2000020c:	bf40      	sev
2000020e:	4770      	bx	lr

20000210 <__aeabi_idiv0>:
20000210:	4770      	bx	lr
20000212:	46c0      	nop			; (mov r8, r8)
20000214:	0000      	movs	r0, r0
	...

20000218 <____wrap___aeabi_lmul_veneer>:
20000218:	b401      	push	{r0}
2000021a:	4802      	ldr	r0, [pc, #8]	; (20000224 <____wrap___aeabi_lmul_veneer+0xc>)
2000021c:	4684      	mov	ip, r0
2000021e:	bc01      	pop	{r0}
20000220:	4760      	bx	ip
20000222:	bf00      	nop
20000224:	10002719 	.word	0x10002719

20000228 <__time_us_64_veneer>:
20000228:	b401      	push	{r0}
2000022a:	4802      	ldr	r0, [pc, #8]	; (20000234 <__time_us_64_veneer+0xc>)
2000022c:	4684      	mov	ip, r0
2000022e:	bc01      	pop	{r0}
20000230:	4760      	bx	ip
20000232:	bf00      	nop
20000234:	100012b1 	.word	0x100012b1

20000238 <__best_effort_wfe_or_timeout_veneer>:
20000238:	b401      	push	{r0}
2000023a:	4802      	ldr	r0, [pc, #8]	; (20000244 <__best_effort_wfe_or_timeout_veneer+0xc>)
2000023c:	4684      	mov	ip, r0
2000023e:	bc01      	pop	{r0}
20000240:	4760      	bx	ip
20000242:	bf00      	nop
20000244:	1000110d 	.word	0x1000110d

20000248 <blink_interval_ms>:
20000248:	000000fa                                ....

2000024c <current_sample_rate>:
2000024c:	0000ac44                                D...

20000250 <string_desc_arr>:
20000250:	10005584 1000553c 10005544 10005554     .U..<U..DU..TU..
20000260:	1000555c 10005570                       \U..pU..

20000268 <striped_spin_lock_num>:
20000268:	00000010                                ....

2000026c <default_alarm_pool>:
2000026c:	20000284 00000000 20000370 200005c4     ... ....p.. ... 
	...

20000284 <default_alarm_pool_heap>:
20000284:	200005d4 00000000 00000000 00000010     ... ............

20000294 <irq_handler_chain_slots>:
20000294:	00000000 	.word	0x00000000
20000298:	00010000 	.word	0x00010000
	...
200002a4:	00020000 	.word	0x00020000
	...
200002b0:	00030000 	.word	0x00030000
	...
200002bc:	00ff0000 	.word	0x00ff0000
200002c0:	00000000 	.word	0x00000000

200002c4 <irq_handler_chain_first_slot>:
200002c4:	b500      	push	{lr}
200002c6:	6848      	ldr	r0, [r1, #4]
200002c8:	3101      	adds	r1, #1
200002ca:	468e      	mov	lr, r1
200002cc:	4700      	bx	r0

200002ce <irq_handler_chain_remove_tail>:
200002ce:	4670      	mov	r0, lr
200002d0:	3809      	subs	r0, #9
200002d2:	4901      	ldr	r1, [pc, #4]	; (200002d8 <irq_handler_chain_remove_tail+0xa>)
200002d4:	4788      	blx	r1
200002d6:	bd00      	pop	{pc}
200002d8:	10001f49 	.word	0x10001f49
200002dc:	00000000 	.word	0x00000000

200002e0 <aeabi_bits_funcs>:
200002e0:	00003350 	.word	0x00003350
200002e4:	0000334c 	.word	0x0000334c
200002e8:	00003354 	.word	0x00003354
200002ec:	00003352 	.word	0x00003352

200002f0 <aeabi_bits_funcs_end>:
200002f0:	0000534d 	.word	0x0000534d
200002f4:	0000434d 	.word	0x0000434d
200002f8:	00003453 	.word	0x00003453
200002fc:	00003443 	.word	0x00003443

20000300 <stdio_uart>:
20000300:	10002ac5 00000000 10002b11 00000000     .*.......+......
20000310:	00000100                                ....

20000314 <ep_dir_string>:
20000314:	10005854 10005858                       TX..XX..

2000031c <_usbd_qdef>:
2000031c:	20001584 000c0010 ffe00000 0000001f     ... ............
	...

20000340 <print_mutex>:
	...

20000348 <__mutex_array_end>:
20000348:	100027dd 	.word	0x100027dd
2000034c:	10002141 	.word	0x10002141
20000350:	1000262d 	.word	0x1000262d
20000354:	1000274d 	.word	0x1000274d

20000358 <__frame_dummy_init_array_entry>:
20000358:	100002ed 10002b81                       .....+..
